 Represent3

 Timestamp is 5f7d65d9 (Wed Oct 07 13:53:13 2020)

 Preferred load address is 10000000

 Start         Length     Name                   Class
 0001:00000000 000ae8daH .text                   CODE
 0001:000ae8e0 00000388H .text$x                 CODE
 0002:00000000 00000284H .idata$5                DATA
 0002:00000290 00016c70H .rdata                  DATA
 0002:00016f00 00000598H .xdata$x                DATA
 0002:00017498 000000dcH .idata$2                DATA
 0002:00017574 00000014H .idata$3                DATA
 0002:00017588 00000284H .idata$4                DATA
 0002:0001780c 00000a56H .idata$6                DATA
 0002:00018270 0000007dH .edata                  DATA
 0003:00000000 00000004H .CRT$XCA                DATA
 0003:00000004 00000008H .CRT$XCU                DATA
 0003:0000000c 00000004H .CRT$XCZ                DATA
 0003:00000010 00000004H .CRT$XIA                DATA
 0003:00000014 00000004H .CRT$XIZ                DATA
 0003:00000040 0000a300H .data                   DATA
 0003:0000a340 00002670H .bss                    DATA

  Address         Publics by Value              Rva+Base     Lib:Object

 0001:0000005b       ?CreateDevice@CD3D_Device@@QAE_NPAUD3DAdapterInfo@@PAUD3DDeviceInfo@@PAUD3DModeInfo@@@Z 1000105b f   D3D_Device.obj
 0001:000001df       ?SetMode@CD3D_Device@@QAE_NPAUD3DModeInfo@@@Z 100011df f   D3D_Device.obj
 0001:00000270       ?ResetDevice@CD3D_Device@@QAE_NXZ 10001270 f   D3D_Device.obj
 0001:000002c4       ?FreeDevice@CD3D_Device@@QAEXXZ 100012c4 f   D3D_Device.obj
 0001:00000317       ?ReleaseDevObjects@CD3D_Device@@QAE_NXZ 10001317 f   D3D_Device.obj
 0001:0000032b       ?RestoreDevObjects@CD3D_Device@@QAE_NXZ 1000132b f   D3D_Device.obj
 0001:0000033f       ?ResetDeviceVars@CD3D_Device@@QAEXXZ 1000133f f   D3D_Device.obj
 0001:00000395       ?Reset@CD3D_Device@@QAEXXZ 10001395 f   D3D_Device.obj
 0001:000003ed       ?FreeAll@CD3D_Device@@QAEXXZ 100013ed f   D3D_Device.obj
 0001:00000419       ?SetPresentationParams@CD3D_Device@@AAEXAAU_D3DPRESENT_PARAMETERS_@@PAUD3DModeInfo@@@Z 10001419 f   D3D_Device.obj
 0001:0000050b       ?GetDefaultMultiSampleType@CD3D_Device@@AAE?AW4_D3DMULTISAMPLE_TYPE@@I@Z 1000150b f   D3D_Device.obj
 0001:000005aa       ?SetDefaultRenderStates@CD3D_Device@@QAEXXZ 100015aa f   D3D_Device.obj
 0001:00000afd       ?SetupViewport@CD3D_Device@@QAEXIIIIMM@Z 10001afd f   D3D_Device.obj
 0001:00000c74       ?Start3D@CD3D_Device@@SA_NXZ 10001c74 f   D3D_Device.obj
 0001:00000cdd       ?End3D@CD3D_Device@@SA_NXZ 10001cdd f   D3D_Device.obj
 0001:00000d43       ?IsIn3D@CD3D_Device@@SA_NXZ 10001d43 f   D3D_Device.obj
 0001:00000d4d       ?ListDeviceCaps@CD3D_Device@@QAEXXZ 10001d4d f   D3D_Device.obj
 0001:00000f00       ??0CD3D_Device@@QAE@XZ     10001f00 f i D3D_Device.obj
 0001:00000f30       ??1CD3D_Device@@QAE@XZ     10001f30 f i D3D_Device.obj
 0001:00000fbb       ?Create@CD3D_Shell@@QAE_NXZ 10001fbb f   D3D_Shell.obj
 0001:0000104a       ?Reset@CD3D_Shell@@QAEXXZ  1000204a f   D3D_Shell.obj
 0001:0000107a       ?FreeAll@CD3D_Shell@@QAEXXZ 1000207a f   D3D_Shell.obj
 0001:000010cd       ?BuildDeviceList@CD3D_Shell@@QAE_NXZ 100020cd f   D3D_Shell.obj
 0001:00001920       ?PickDefaultDev@CD3D_Shell@@QAEPAUD3DDeviceInfo@@PAPAUD3DAdapterInfo@@@Z 10002920 f   D3D_Shell.obj
 0001:00001a08       ?PickDefaultMode@CD3D_Shell@@QAEPAUD3DModeInfo@@PAUD3DDeviceInfo@@I@Z 10002a08 f   D3D_Shell.obj
 0001:00001b19       ?ListDevices@CD3D_Shell@@QAEXXZ 10002b19 f   D3D_Shell.obj
 0001:00001bc9       ?FindDevice@CD3D_Shell@@QAEPAUD3DDeviceInfo@@PBDPAPAUD3DAdapterInfo@@@Z 10002bc9 f   D3D_Shell.obj
 0001:00001c81       ?GetAdapterInfo@CD3D_Shell@@QAEPAUD3DAdapterInfo@@I@Z 10002c81 f   D3D_Shell.obj
 0001:00001cc2       ?GetDeviceInfo@CD3D_Shell@@QAEPAUD3DDeviceInfo@@II@Z 10002cc2 f   D3D_Shell.obj
 0001:00001d27       ?GetModeInfo@CD3D_Shell@@QAEPAUD3DModeInfo@@III@Z 10002d27 f   D3D_Shell.obj
 0001:00001d90       ??0CD3D_Shell@@QAE@XZ      10002d90 f i D3D_Shell.obj
 0001:00001e00       ??1CD3D_Shell@@QAE@XZ      10002e00 f i D3D_Shell.obj
 0001:00001e60       ??0D3DAdapterInfo@@QAE@XZ  10002e60 f i D3D_Shell.obj
 0001:00001ea0       ??1D3DAdapterInfo@@QAE@XZ  10002ea0 f i D3D_Shell.obj
 0001:00001ed0       ??0D3DDeviceInfo@@QAE@XZ   10002ed0 f i D3D_Shell.obj
 0001:00001f10       ??1D3DDeviceInfo@@QAE@XZ   10002f10 f i D3D_Shell.obj
 0001:00001f40       ??0?$vector@UD3DDeviceInfo@@V?$allocator@UD3DDeviceInfo@@@std@@@std@@QAE@ABV?$allocator@UD3DDeviceInfo@@@1@@Z 10002f40 f i D3D_Shell.obj
 0001:00001f80       ??1?$vector@UD3DDeviceInfo@@V?$allocator@UD3DDeviceInfo@@@std@@@std@@QAE@XZ 10002f80 f i D3D_Shell.obj
 0001:00002000       ?begin@?$vector@UD3DDeviceInfo@@V?$allocator@UD3DDeviceInfo@@@std@@@std@@QAEPAUD3DDeviceInfo@@XZ 10003000 f i D3D_Shell.obj
 0001:00002020       ?end@?$vector@UD3DDeviceInfo@@V?$allocator@UD3DDeviceInfo@@@std@@@std@@QAEPAUD3DDeviceInfo@@XZ 10003020 f i D3D_Shell.obj
 0001:00002040       ?size@?$vector@UD3DDeviceInfo@@V?$allocator@UD3DDeviceInfo@@@std@@@std@@QBEIXZ 10003040 f i D3D_Shell.obj
 0001:00002090       ??A?$vector@UD3DDeviceInfo@@V?$allocator@UD3DDeviceInfo@@@std@@@std@@QAEAAUD3DDeviceInfo@@I@Z 10003090 f i D3D_Shell.obj
 0001:000020d0       ?push_back@?$vector@UD3DDeviceInfo@@V?$allocator@UD3DDeviceInfo@@@std@@@std@@QAEXABUD3DDeviceInfo@@@Z 100030d0 f i D3D_Shell.obj
 0001:00002110       ??0?$vector@UD3DModeInfo@@V?$allocator@UD3DModeInfo@@@std@@@std@@QAE@ABV?$allocator@UD3DModeInfo@@@1@@Z 10003110 f i D3D_Shell.obj
 0001:00002150       ??1?$vector@UD3DModeInfo@@V?$allocator@UD3DModeInfo@@@std@@@std@@QAE@XZ 10003150 f i D3D_Shell.obj
 0001:000021c0       ?begin@?$vector@UD3DModeInfo@@V?$allocator@UD3DModeInfo@@@std@@@std@@QAEPAUD3DModeInfo@@XZ 100031c0 f i D3D_Shell.obj
 0001:000021e0       ?end@?$vector@UD3DModeInfo@@V?$allocator@UD3DModeInfo@@@std@@@std@@QAEPAUD3DModeInfo@@XZ 100031e0 f i D3D_Shell.obj
 0001:00002200       ?size@?$vector@UD3DModeInfo@@V?$allocator@UD3DModeInfo@@@std@@@std@@QBEIXZ 10003200 f i D3D_Shell.obj
 0001:00002250       ??A?$vector@UD3DModeInfo@@V?$allocator@UD3DModeInfo@@@std@@@std@@QAEAAUD3DModeInfo@@I@Z 10003250 f i D3D_Shell.obj
 0001:00002280       ?push_back@?$vector@UD3DModeInfo@@V?$allocator@UD3DModeInfo@@@std@@@std@@QAEXABUD3DModeInfo@@@Z 10003280 f i D3D_Shell.obj
 0001:000022c0       ??0?$vector@UD3DAdapterInfo@@V?$allocator@UD3DAdapterInfo@@@std@@@std@@QAE@ABV?$allocator@UD3DAdapterInfo@@@1@@Z 100032c0 f i D3D_Shell.obj
 0001:00002300       ??1?$vector@UD3DAdapterInfo@@V?$allocator@UD3DAdapterInfo@@@std@@@std@@QAE@XZ 10003300 f i D3D_Shell.obj
 0001:00002380       ?begin@?$vector@UD3DAdapterInfo@@V?$allocator@UD3DAdapterInfo@@@std@@@std@@QAEPAUD3DAdapterInfo@@XZ 10003380 f i D3D_Shell.obj
 0001:000023a0       ?end@?$vector@UD3DAdapterInfo@@V?$allocator@UD3DAdapterInfo@@@std@@@std@@QAEPAUD3DAdapterInfo@@XZ 100033a0 f i D3D_Shell.obj
 0001:000023c0       ?size@?$vector@UD3DAdapterInfo@@V?$allocator@UD3DAdapterInfo@@@std@@@std@@QBEIXZ 100033c0 f i D3D_Shell.obj
 0001:00002410       ??A?$vector@UD3DAdapterInfo@@V?$allocator@UD3DAdapterInfo@@@std@@@std@@QAEAAUD3DAdapterInfo@@I@Z 10003410 f i D3D_Shell.obj
 0001:00002450       ?push_back@?$vector@UD3DAdapterInfo@@V?$allocator@UD3DAdapterInfo@@@std@@@std@@QAEXABUD3DAdapterInfo@@@Z 10003450 f i D3D_Shell.obj
 0001:00002490       ?clear@?$vector@UD3DAdapterInfo@@V?$allocator@UD3DAdapterInfo@@@std@@@std@@QAEXXZ 10003490 f i D3D_Shell.obj
 0001:000024d0       ??0?$vector@W4_D3DFORMAT@@V?$allocator@W4_D3DFORMAT@@@std@@@std@@QAE@ABV?$allocator@W4_D3DFORMAT@@@1@@Z 100034d0 f i D3D_Shell.obj
 0001:00002510       ??1?$vector@W4_D3DFORMAT@@V?$allocator@W4_D3DFORMAT@@@std@@@std@@QAE@XZ 10003510 f i D3D_Shell.obj
 0001:00002580       ?size@?$vector@W4_D3DFORMAT@@V?$allocator@W4_D3DFORMAT@@@std@@@std@@QBEIXZ 10003580 f i D3D_Shell.obj
 0001:000025d0       ??A?$vector@W4_D3DFORMAT@@V?$allocator@W4_D3DFORMAT@@@std@@@std@@QAEAAW4_D3DFORMAT@@I@Z 100035d0 f i D3D_Shell.obj
 0001:00002600       ?push_back@?$vector@W4_D3DFORMAT@@V?$allocator@W4_D3DFORMAT@@@std@@@std@@QAEXABW4_D3DFORMAT@@@Z 10003600 f i D3D_Shell.obj
 0001:00002640       ??0?$vector@_NV?$allocator@_N@std@@@std@@QAE@ABV?$allocator@_N@1@@Z 10003640 f i D3D_Shell.obj
 0001:00002680       ??1?$vector@_NV?$allocator@_N@std@@@std@@QAE@XZ 10003680 f i D3D_Shell.obj
 0001:000026f0       ??A?$vector@_NV?$allocator@_N@std@@@std@@QAEAA_NI@Z 100036f0 f i D3D_Shell.obj
 0001:00002720       ?push_back@?$vector@_NV?$allocator@_N@std@@@std@@QAEXAB_N@Z 10003720 f i D3D_Shell.obj
 0001:00002760       ?insert@?$vector@UD3DDeviceInfo@@V?$allocator@UD3DDeviceInfo@@@std@@@std@@QAEPAUD3DDeviceInfo@@PAU3@ABU3@@Z 10003760 f i D3D_Shell.obj
 0001:000027d0       ?_Destroy@?$vector@UD3DDeviceInfo@@V?$allocator@UD3DDeviceInfo@@@std@@@std@@IAEXPAUD3DDeviceInfo@@0@Z 100037d0 f i D3D_Shell.obj
 0001:00002820       ?deallocate@?$allocator@UD3DDeviceInfo@@@std@@QAEXPAXI@Z 10003820 f i D3D_Shell.obj
 0001:00002850       ?insert@?$vector@UD3DModeInfo@@V?$allocator@UD3DModeInfo@@@std@@@std@@QAEPAUD3DModeInfo@@PAU3@ABU3@@Z 10003850 f i D3D_Shell.obj
 0001:000028b0       ?_Destroy@?$vector@UD3DModeInfo@@V?$allocator@UD3DModeInfo@@@std@@@std@@IAEXPAUD3DModeInfo@@0@Z 100038b0 f i D3D_Shell.obj
 0001:000028f0       ?deallocate@?$allocator@UD3DModeInfo@@@std@@QAEXPAXI@Z 100038f0 f i D3D_Shell.obj
 0001:00002920       ?insert@?$vector@UD3DAdapterInfo@@V?$allocator@UD3DAdapterInfo@@@std@@@std@@QAEPAUD3DAdapterInfo@@PAU3@ABU3@@Z 10003920 f i D3D_Shell.obj
 0001:00002990       ?erase@?$vector@UD3DAdapterInfo@@V?$allocator@UD3DAdapterInfo@@@std@@@std@@QAEPAUD3DAdapterInfo@@PAU3@0@Z 10003990 f i D3D_Shell.obj
 0001:00002a00       ?_Destroy@?$vector@UD3DAdapterInfo@@V?$allocator@UD3DAdapterInfo@@@std@@@std@@IAEXPAUD3DAdapterInfo@@0@Z 10003a00 f i D3D_Shell.obj
 0001:00002a50       ?deallocate@?$allocator@UD3DAdapterInfo@@@std@@QAEXPAXI@Z 10003a50 f i D3D_Shell.obj
 0001:00002a80       ?begin@?$vector@W4_D3DFORMAT@@V?$allocator@W4_D3DFORMAT@@@std@@@std@@QAEPAW4_D3DFORMAT@@XZ 10003a80 f i D3D_Shell.obj
 0001:00002aa0       ?end@?$vector@W4_D3DFORMAT@@V?$allocator@W4_D3DFORMAT@@@std@@@std@@QAEPAW4_D3DFORMAT@@XZ 10003aa0 f i D3D_Shell.obj
 0001:00002ac0       ?insert@?$vector@W4_D3DFORMAT@@V?$allocator@W4_D3DFORMAT@@@std@@@std@@QAEPAW4_D3DFORMAT@@PAW43@ABW43@@Z 10003ac0 f i D3D_Shell.obj
 0001:00002b20       ?_Destroy@?$vector@W4_D3DFORMAT@@V?$allocator@W4_D3DFORMAT@@@std@@@std@@IAEXPAW4_D3DFORMAT@@0@Z 10003b20 f i D3D_Shell.obj
 0001:00002b60       ?deallocate@?$allocator@W4_D3DFORMAT@@@std@@QAEXPAXI@Z 10003b60 f i D3D_Shell.obj
 0001:00002b90       ?begin@?$vector@_NV?$allocator@_N@std@@@std@@QAEPA_NXZ 10003b90 f i D3D_Shell.obj
 0001:00002bb0       ?end@?$vector@_NV?$allocator@_N@std@@@std@@QAEPA_NXZ 10003bb0 f i D3D_Shell.obj
 0001:00002bd0       ?insert@?$vector@_NV?$allocator@_N@std@@@std@@QAEPA_NPA_NAB_N@Z 10003bd0 f i D3D_Shell.obj
 0001:00002c30       ?_Destroy@?$vector@_NV?$allocator@_N@std@@@std@@IAEXPA_N0@Z 10003c30 f i D3D_Shell.obj
 0001:00002c70       ?deallocate@?$allocator@_N@std@@QAEXPAXI@Z 10003c70 f i D3D_Shell.obj
 0001:00002ca0       ?insert@?$vector@UD3DDeviceInfo@@V?$allocator@UD3DDeviceInfo@@@std@@@std@@QAEXPAUD3DDeviceInfo@@IABU3@@Z 10003ca0 f i D3D_Shell.obj
 0001:00002f20       ?destroy@?$allocator@UD3DDeviceInfo@@@std@@QAEXPAUD3DDeviceInfo@@@Z 10003f20 f i D3D_Shell.obj
 0001:00002f50       ?insert@?$vector@UD3DModeInfo@@V?$allocator@UD3DModeInfo@@@std@@@std@@QAEXPAUD3DModeInfo@@IABU3@@Z 10003f50 f i D3D_Shell.obj
 0001:000031a0       ?destroy@?$allocator@UD3DModeInfo@@@std@@QAEXPAUD3DModeInfo@@@Z 100041a0 f i D3D_Shell.obj
 0001:000031d0       ?insert@?$vector@UD3DAdapterInfo@@V?$allocator@UD3DAdapterInfo@@@std@@@std@@QAEXPAUD3DAdapterInfo@@IABU3@@Z 100041d0 f i D3D_Shell.obj
 0001:00003450       ?destroy@?$allocator@UD3DAdapterInfo@@@std@@QAEXPAUD3DAdapterInfo@@@Z 10004450 f i D3D_Shell.obj
 0001:00003480       ?insert@?$vector@W4_D3DFORMAT@@V?$allocator@W4_D3DFORMAT@@@std@@@std@@QAEXPAW4_D3DFORMAT@@IABW43@@Z 10004480 f i D3D_Shell.obj
 0001:000036c0       ?destroy@?$allocator@W4_D3DFORMAT@@@std@@QAEXPAW4_D3DFORMAT@@@Z 100046c0 f i D3D_Shell.obj
 0001:000036f0       ?insert@?$vector@_NV?$allocator@_N@std@@@std@@QAEXPA_NIAB_N@Z 100046f0 f i D3D_Shell.obj
 0001:00003900       ?destroy@?$allocator@_N@std@@QAEXPA_N@Z 10004900 f i D3D_Shell.obj
 0001:00003930       ?_Ucopy@?$vector@UD3DDeviceInfo@@V?$allocator@UD3DDeviceInfo@@@std@@@std@@IAEPAUD3DDeviceInfo@@PBU3@0PAU3@@Z 10004930 f i D3D_Shell.obj
 0001:00003990       ?_Ufill@?$vector@UD3DDeviceInfo@@V?$allocator@UD3DDeviceInfo@@@std@@@std@@IAEXPAUD3DDeviceInfo@@IABU3@@Z 10004990 f i D3D_Shell.obj
 0001:000039e0       ?allocate@?$allocator@UD3DDeviceInfo@@@std@@QAEPAUD3DDeviceInfo@@IPBX@Z 100049e0 f i D3D_Shell.obj
 0001:00003a10       ?_Ucopy@?$vector@UD3DModeInfo@@V?$allocator@UD3DModeInfo@@@std@@@std@@IAEPAUD3DModeInfo@@PBU3@0PAU3@@Z 10004a10 f i D3D_Shell.obj
 0001:00003a60       ?_Ufill@?$vector@UD3DModeInfo@@V?$allocator@UD3DModeInfo@@@std@@@std@@IAEXPAUD3DModeInfo@@IABU3@@Z 10004a60 f i D3D_Shell.obj
 0001:00003ab0       ?allocate@?$allocator@UD3DModeInfo@@@std@@QAEPAUD3DModeInfo@@IPBX@Z 10004ab0 f i D3D_Shell.obj
 0001:00003ae0       ?_Ucopy@?$vector@UD3DAdapterInfo@@V?$allocator@UD3DAdapterInfo@@@std@@@std@@IAEPAUD3DAdapterInfo@@PBU3@0PAU3@@Z 10004ae0 f i D3D_Shell.obj
 0001:00003b40       ?_Ufill@?$vector@UD3DAdapterInfo@@V?$allocator@UD3DAdapterInfo@@@std@@@std@@IAEXPAUD3DAdapterInfo@@IABU3@@Z 10004b40 f i D3D_Shell.obj
 0001:00003b90       ?allocate@?$allocator@UD3DAdapterInfo@@@std@@QAEPAUD3DAdapterInfo@@IPBX@Z 10004b90 f i D3D_Shell.obj
 0001:00003bc0       ?_Ucopy@?$vector@W4_D3DFORMAT@@V?$allocator@W4_D3DFORMAT@@@std@@@std@@IAEPAW4_D3DFORMAT@@PBW43@0PAW43@@Z 10004bc0 f i D3D_Shell.obj
 0001:00003c10       ?_Ufill@?$vector@W4_D3DFORMAT@@V?$allocator@W4_D3DFORMAT@@@std@@@std@@IAEXPAW4_D3DFORMAT@@IABW43@@Z 10004c10 f i D3D_Shell.obj
 0001:00003c60       ?allocate@?$allocator@W4_D3DFORMAT@@@std@@QAEPAW4_D3DFORMAT@@IPBX@Z 10004c60 f i D3D_Shell.obj
 0001:00003c90       ?size@?$vector@_NV?$allocator@_N@std@@@std@@QBEIXZ 10004c90 f i D3D_Shell.obj
 0001:00003cd0       ?_Ucopy@?$vector@_NV?$allocator@_N@std@@@std@@IAEPA_NPB_N0PA_N@Z 10004cd0 f i D3D_Shell.obj
 0001:00003d20       ?_Ufill@?$vector@_NV?$allocator@_N@std@@@std@@IAEXPA_NIAB_N@Z 10004d20 f i D3D_Shell.obj
 0001:00003d70       ?allocate@?$allocator@_N@std@@QAEPA_NIPBX@Z 10004d70 f i D3D_Shell.obj
 0001:00003da0       ?construct@?$allocator@UD3DDeviceInfo@@@std@@QAEXPAUD3DDeviceInfo@@ABU3@@Z 10004da0 f i D3D_Shell.obj
 0001:00003dd0       ?construct@?$allocator@UD3DModeInfo@@@std@@QAEXPAUD3DModeInfo@@ABU3@@Z 10004dd0 f i D3D_Shell.obj
 0001:00003e00       ?construct@?$allocator@UD3DAdapterInfo@@@std@@QAEXPAUD3DAdapterInfo@@ABU3@@Z 10004e00 f i D3D_Shell.obj
 0001:00003e30       ?construct@?$allocator@W4_D3DFORMAT@@@std@@QAEXPAW4_D3DFORMAT@@ABW43@@Z 10004e30 f i D3D_Shell.obj
 0001:00003e60       ?construct@?$allocator@_N@std@@QAEXPA_NAB_N@Z 10004e60 f i D3D_Shell.obj
 0001:00003e90       ?sort@std@@YAXPAUD3DModeInfo@@0@Z 10004e90 f i D3D_Shell.obj
 0001:00003ec0       ?copy@std@@YAPAUD3DAdapterInfo@@PAU2@00@Z 10004ec0 f i D3D_Shell.obj
 0001:00003f00       ?fill@std@@YAXPAUD3DDeviceInfo@@0ABU2@@Z 10004f00 f i D3D_Shell.obj
 0001:00003f30       ?copy_backward@std@@YAPAUD3DDeviceInfo@@PAU2@00@Z 10004f30 f i D3D_Shell.obj
 0001:00003f70       ?_Destroy@std@@YAXPAUD3DDeviceInfo@@@Z 10004f70 f i D3D_Shell.obj
 0001:00003f90       ?fill@std@@YAXPAUD3DModeInfo@@0ABU2@@Z 10004f90 f i D3D_Shell.obj
 0001:00003fd0       ?copy_backward@std@@YAPAUD3DModeInfo@@PAU2@00@Z 10004fd0 f i D3D_Shell.obj
 0001:00004010       ?_Destroy@std@@YAXPAUD3DModeInfo@@@Z 10005010 f i D3D_Shell.obj
 0001:00004020       ?fill@std@@YAXPAUD3DAdapterInfo@@0ABU2@@Z 10005020 f i D3D_Shell.obj
 0001:00004050       ?copy_backward@std@@YAPAUD3DAdapterInfo@@PAU2@00@Z 10005050 f i D3D_Shell.obj
 0001:00004090       ?_Destroy@std@@YAXPAUD3DAdapterInfo@@@Z 10005090 f i D3D_Shell.obj
 0001:000040b0       ?fill@std@@YAXPAW4_D3DFORMAT@@0ABW42@@Z 100050b0 f i D3D_Shell.obj
 0001:000040e0       ?copy_backward@std@@YAPAW4_D3DFORMAT@@PAW42@00@Z 100050e0 f i D3D_Shell.obj
 0001:00004110       ?_Destroy@std@@YAXPAW4_D3DFORMAT@@@Z 10005110 f i D3D_Shell.obj
 0001:00004120       ?fill@std@@YAXPA_N0AB_N@Z  10005120 f i D3D_Shell.obj
 0001:00004150       ?copy_backward@std@@YAPA_NPA_N00@Z 10005150 f i D3D_Shell.obj
 0001:00004180       ?_Destroy@std@@YAXPA_N@Z   10005180 f i D3D_Shell.obj
 0001:00004190       ?_Allocate@std@@YAPAUD3DDeviceInfo@@HPAU2@@Z 10005190 f i D3D_Shell.obj
 0001:000041c0       ?_Allocate@std@@YAPAUD3DModeInfo@@HPAU2@@Z 100051c0 f i D3D_Shell.obj
 0001:000041f0       ?_Allocate@std@@YAPAUD3DAdapterInfo@@HPAU2@@Z 100051f0 f i D3D_Shell.obj
 0001:00004220       ?_Allocate@std@@YAPAW4_D3DFORMAT@@HPAW42@@Z 10005220 f i D3D_Shell.obj
 0001:00004250       ?_Allocate@std@@YAPA_NHPA_N@Z 10005250 f i D3D_Shell.obj
 0001:00004280       ?_Construct@std@@YAXPAUD3DDeviceInfo@@ABU2@@Z 10005280 f i D3D_Shell.obj
 0001:00004310       ??2@YAPAXIPAX@Z            10005310 f i D3D_Shell.obj
 0001:00004320       ??3@YAXPAX0@Z              10005320 f i D3D_Shell.obj
 0001:00004330       ?_Construct@std@@YAXPAUD3DModeInfo@@ABU2@@Z 10005330 f i D3D_Shell.obj
 0001:000043a0       ?_Construct@std@@YAXPAUD3DAdapterInfo@@ABU2@@Z 100053a0 f i D3D_Shell.obj
 0001:00004430       ?_Construct@std@@YAXPAW4_D3DFORMAT@@ABW42@@Z 10005430 f i D3D_Shell.obj
 0001:00004490       ?_Construct@std@@YAXPA_NAB_N@Z 10005490 f i D3D_Shell.obj
 0001:000044f0       ??4D3DAdapterInfo@@QAEAAU0@ABU0@@Z 100054f0 f i D3D_Shell.obj
 0001:00004570       ??4D3DDeviceInfo@@QAEAAU0@ABU0@@Z 10005570 f i D3D_Shell.obj
 0001:00004640       ??_GD3DDeviceInfo@@QAEPAXI@Z 10005640 f i D3D_Shell.obj
 0001:00004680       ??_GD3DAdapterInfo@@QAEPAXI@Z 10005680 f i D3D_Shell.obj
 0001:000046c0       ??0D3DDeviceInfo@@QAE@ABU0@@Z 100056c0 f i D3D_Shell.obj
 0001:00004790       ??0D3DAdapterInfo@@QAE@ABU0@@Z 10005790 f i D3D_Shell.obj
 0001:00004810       ??0?$vector@UD3DDeviceInfo@@V?$allocator@UD3DDeviceInfo@@@std@@@std@@QAE@ABV01@@Z 10005810 f i D3D_Shell.obj
 0001:00004890       ??4?$vector@UD3DDeviceInfo@@V?$allocator@UD3DDeviceInfo@@@std@@@std@@QAEAAV01@ABV01@@Z 10005890 f i D3D_Shell.obj
 0001:00004a60       ??0?$vector@UD3DModeInfo@@V?$allocator@UD3DModeInfo@@@std@@@std@@QAE@ABV01@@Z 10005a60 f i D3D_Shell.obj
 0001:00004ae0       ??4?$vector@UD3DModeInfo@@V?$allocator@UD3DModeInfo@@@std@@@std@@QAEAAV01@ABV01@@Z 10005ae0 f i D3D_Shell.obj
 0001:00004ca0       ?capacity@?$vector@UD3DDeviceInfo@@V?$allocator@UD3DDeviceInfo@@@std@@@std@@QBEIXZ 10005ca0 f i D3D_Shell.obj
 0001:00004cf0       ?begin@?$vector@UD3DDeviceInfo@@V?$allocator@UD3DDeviceInfo@@@std@@@std@@QBEPBUD3DDeviceInfo@@XZ 10005cf0 f i D3D_Shell.obj
 0001:00004d10       ?end@?$vector@UD3DDeviceInfo@@V?$allocator@UD3DDeviceInfo@@@std@@@std@@QBEPBUD3DDeviceInfo@@XZ 10005d10 f i D3D_Shell.obj
 0001:00004d30       ?capacity@?$vector@UD3DModeInfo@@V?$allocator@UD3DModeInfo@@@std@@@std@@QBEIXZ 10005d30 f i D3D_Shell.obj
 0001:00004d80       ?begin@?$vector@UD3DModeInfo@@V?$allocator@UD3DModeInfo@@@std@@@std@@QBEPBUD3DModeInfo@@XZ 10005d80 f i D3D_Shell.obj
 0001:00004da0       ?end@?$vector@UD3DModeInfo@@V?$allocator@UD3DModeInfo@@@std@@@std@@QBEPBUD3DModeInfo@@XZ 10005da0 f i D3D_Shell.obj
 0001:00004dc0       ?_Val_type@std@@YAPAUD3DModeInfo@@PBU2@@Z 10005dc0 f i D3D_Shell.obj
 0001:00004dd0       ?_Sort_0@std@@YAXPAUD3DModeInfo@@00@Z 10005dd0 f i D3D_Shell.obj
 0001:00004eb0       ?copy@std@@YAPAUD3DDeviceInfo@@PBU2@0PAU2@@Z 10005eb0 f i D3D_Shell.obj
 0001:00004ef0       ?copy@std@@YAPAUD3DModeInfo@@PBU2@0PAU2@@Z 10005ef0 f i D3D_Shell.obj
 0001:00004f40       ?_Insertion_sort@std@@YAXPAUD3DModeInfo@@0@Z 10005f40 f i D3D_Shell.obj
 0001:00004f70       ?_Sort@std@@YAXPAUD3DModeInfo@@00@Z 10005f70 f i D3D_Shell.obj
 0001:00005120       ?_Unguarded_insert@std@@YAXPAUD3DModeInfo@@U2@@Z 10006120 f i D3D_Shell.obj
 0001:000051a0       ??MD3DModeInfo@@QBE_NABU0@@Z 100061a0 f i D3D_Shell.obj
 0001:00005220       ?_Insertion_sort_1@std@@YAXPAUD3DModeInfo@@00@Z 10006220 f i D3D_Shell.obj
 0001:00005300       ?_Median@std@@YA?AUD3DModeInfo@@U2@00@Z 10006300 f i D3D_Shell.obj
 0001:00005410       ?_Unguarded_partition@std@@YAPAUD3DModeInfo@@PAU2@0U2@@Z 10006410 f i D3D_Shell.obj
 0001:00005490       ?iter_swap@std@@YAXPAUD3DModeInfo@@0@Z 10006490 f i D3D_Shell.obj
 0001:000054c0       ?_Iter_swap@std@@YAXPAUD3DModeInfo@@00@Z 100064c0 f i D3D_Shell.obj
 0001:00005530       ?d3d_GetColorMasks@@YAXW4_D3DFORMAT@@AAI1111@Z 10006530 f   D3D_Utils.obj
 0001:0000575e       ?FitTextureSize@@YAHH@Z    1000675e f   D3D_Utils.obj
 0001:000057b0       ??0KCharSet@@QAE@XZ        100067b0 f   KCharSet.obj
 0001:00005861       ??1KCharSet@@UAE@XZ        10006861 f   KCharSet.obj
 0001:000058d5       ?Init@KCharSet@@QAE_NPBDPAUIDirect3DDevice9@@@Z 100068d5 f   KCharSet.obj
 0001:00005985       ?GetInfo@KCharSet@@QAEXAAH0@Z 10006985 f   KCharSet.obj
 0001:000059af       ?Terminate@KCharSet@@QAEXXZ 100069af f   KCharSet.obj
 0001:000059ff       ?CommitText@KCharSet@@QAEXPAGHPAUKFontVertex@@@Z 100069ff f   KCharSet.obj
 0001:00005bd5       ?GetTexture@KCharSet@@QBEPAUIDirect3DTexture9@@XZ 10006bd5 f   KCharSet.obj
 0001:00005c00       ??_GKCharSet@@UAEPAXI@Z    10006c00 f i KCharSet.obj
 0001:00005c00       ??_EKCharSet@@UAEPAXI@Z    10006c00 f i KCharSet.obj
 0001:00005c40       ?GetTexture@KFontRes@@QBEPAUIDirect3DTexture9@@XZ 10006c40 f i KCharSet.obj
 0001:00005c60       ?CheckAlphaCmpCaps@KFont3@@CAXXZ 10006c60 f   KFont3.obj
 0001:00005e45       ??0KFont3@@QAE@XZ          10006e45 f   KFont3.obj
 0001:00005f16       ??1KFont3@@AAE@XZ          10006f16 f   KFont3.obj
 0001:00005f7b       ?Init@KFont3@@UAE_NPAX@Z   10006f7b f   KFont3.obj
 0001:00005fe1       ?Release@KFont3@@UAEXXZ    10006fe1 f   KFont3.obj
 0001:00006050       ?Load@KFont3@@UAE_NPBD@Z   10007050 f   KFont3.obj
 0001:0000610b       ?Terminate@KFont3@@UAEXXZ  1000710b f   KFont3.obj
 0001:000061cf       ?OutputText@KFont3@@UAEXPBDHHHIH@Z 100071cf f   KFont3.obj
 0001:0000686b       ?RenderTextDirect@KFont3@@CAXPAUKFontVertex@@I@Z 1000786b f   KFont3.obj
 0001:000068a3       ?RenderTextCmp@KFont3@@CAXPAUKFontVertex@@I@Z 100078a3 f   KFont3.obj
 0001:000069eb       ?RenderTextCmpReverse@KFont3@@CAXPAUKFontVertex@@I@Z 100079eb f   KFont3.obj
 0001:00006b6d       ?InvalidateDeviceObjects@KFont3@@QAEXXZ 10007b6d f   KFont3.obj
 0001:00006c7c       ?RestoreDeviceObjects@KFont3@@QAE_NXZ 10007c7c f   KFont3.obj
 0001:0000710c       ?GetFontSize@KFont3@@UAEXPAH0@Z 1000810c f   KFont3.obj
 0001:0000714c       ?SetBorderColor@KFont3@@UAEXI@Z 1000814c f   KFont3.obj
 0001:00007168       ?SetOutputSize@KFont3@@UAEXHH@Z 10008168 f   KFont3.obj
 0001:000071fa       ?Clone@KFont3@@UAEPAUiFont@@XZ 100081fa f   KFont3.obj
 0001:00007240       ??0iFont@@QAE@XZ           10008240 f i KFont3.obj
 0001:00007260       ??_GKFont3@@AAEPAXI@Z      10008260 f i KFont3.obj
 0001:000072a0       ??0KFontData@@QAE@XZ       100082a0 f   KFontData.obj
 0001:000072e6       ??1KFontData@@QAE@XZ       100082e6 f   KFontData.obj
 0001:0000730a       ?Load@KFontData@@QAE_NPBD@Z 1000830a f   KFontData.obj
 0001:0000757e       ?GetInfo@KFontData@@QBEXAAH0@Z 1000857e f   KFontData.obj
 0001:000075a8       ?Terminate@KFontData@@QAEXXZ 100085a8 f   KFontData.obj
 0001:0000762f       ?GetCharacterData@KFontData@@QBEPAEEE@Z 1000862f f   KFontData.obj
 0001:00007690       ?EnableTextBorder@KFontRes@@SAX_N@Z 10008690 f   KFontRes.obj
 0001:000076a8       ??0KFontRes@@QAE@XZ        100086a8 f   KFontRes.obj
 0001:00007721       ??1KFontRes@@UAE@XZ        10008721 f   KFontRes.obj
 0001:00007786       ?Init@KFontRes@@QAE_NPBDPAUIDirect3DDevice9@@@Z 10008786 f   KFontRes.obj
 0001:00007949       ?GetInfo@KFontRes@@QBEXAAH000@Z 10008949 f   KFontRes.obj
 0001:00007989       ?GetInfo@KFontRes@@QBEXAAM000@Z 10008989 f   KFontRes.obj
 0001:00007a35       ?Terminate@KFontRes@@QAEXXZ 10008a35 f   KFontRes.obj
 0001:00007aaa       ?Update@KFontRes@@QAEXPAGH@Z 10008aaa f   KFontRes.obj
 0001:00007c04       ?Update@KFontRes@@AAEXPAE0H@Z 10008c04 f   KFontRes.obj
 0001:00007ce0       ??_GKFontRes@@UAEPAXI@Z    10008ce0 f i KFontRes.obj
 0001:00007ce0       ??_EKFontRes@@UAEPAXI@Z    10008ce0 f i KFontRes.obj
 0001:00007d20       ??0KMRU@@QAE@XZ            10008d20 f   KMRU.obj
 0001:00007d66       ??1KMRU@@UAE@XZ            10008d66 f   KMRU.obj
 0001:00007d93       ?Init@KMRU@@QAE_NH@Z       10008d93 f   KMRU.obj
 0001:00007e47       ?Terminate@KMRU@@QAEXXZ    10008e47 f   KMRU.obj
 0001:00007eaf       ?GetItemData@KMRU@@AAEGH@Z 10008eaf f   KMRU.obj
 0001:00007ee7       ?Update@KMRU@@AAEXXZ       10008ee7 f   KMRU.obj
 0001:00007f54       ?Commit@KMRU@@QAEXPAGH00AAH@Z 10008f54 f   KMRU.obj
 0001:00008131       ?AdjustCharPos@KMRU@@AAEXII@Z 10009131 f   KMRU.obj
 0001:0000821f       ?GetCharPos@KMRU@@AAE_NGHHAAI@Z 1000921f f   KMRU.obj
 0001:0000832e       ?GetMostLongestUnusedItem@KMRU@@AAEIXZ 1000932e f   KMRU.obj
 0001:000083b0       ??_EKMRU@@UAEPAXI@Z        100093b0 f i KMRU.obj
 0001:000083b0       ??_GKMRU@@UAEPAXI@Z        100093b0 f i KMRU.obj
 0001:000083f0       ?Test3D@@YA_NXZ            100093f0 f   KRepresentShell3.obj
 0001:000084ba       ?SetPoint3dLighting@KRepresentShell3@@AAIXAAUVERTEX3D@@0K@Z 100094ba f   KRepresentShell3.obj
 0001:0000862b       ?RenderToA4R4G4B4@@YAXPAGIPAEAAUtagRECT@@II0@Z 1000962b f   KRepresentShell3.obj
 0001:00008792       ?WndProc@@YGJPAUHWND__@@IIJ@Z 10009792 f   KRepresentShell3.obj
 0001:000087c1       ?WorldToScreen@@YAPAUD3DXVECTOR3@@PAU1@PBU1@PBU_D3DVIEWPORT9@@PBUD3DXMATRIX@@33@Z 100097c1 f   KRepresentShell3.obj
 0001:00008887       _RepresentIsModuleRecommended 10009887 f   KRepresentShell3.obj
 0001:00008898       _CreateRepresentShell      10009898 f   KRepresentShell3.obj
 0001:000088f4       ?AdviseRepresent@KRepresentShell3@@UAEJPAUIInlinePicEngineSink@@@Z 100098f4 f   KRepresentShell3.obj
 0001:00008949       ?UnAdviseRepresent@KRepresentShell3@@UAEJPAUIInlinePicEngineSink@@@Z 10009949 f   KRepresentShell3.obj
 0001:00008974       ??0KRepresentShell3@@QAE@XZ 10009974 f   KRepresentShell3.obj
 0001:00008a9c       ??1KRepresentShell3@@AAE@XZ 10009a9c f   KRepresentShell3.obj
 0001:00008b7b       ?SetOption@KRepresentShell3@@UAEXW4RepresentOption@@_N@Z 10009b7b f   KRepresentShell3.obj
 0001:00008c06       ?SetUpProjectionMatrix@KRepresentShell3@@AAEXXZ 10009c06 f   KRepresentShell3.obj
 0001:00008cc6       ?Create@KRepresentShell3@@UAE_NHH_N@Z 10009cc6 f   KRepresentShell3.obj
 0001:00008f9d       ?InitDeviceObjects@KRepresentShell3@@AAE_NXZ 10009f9d f   KRepresentShell3.obj
 0001:0000903d       ?Release@KRepresentShell3@@UAEXXZ 1000a03d f   KRepresentShell3.obj
 0001:000090a2       ?DeleteDeviceObjects@KRepresentShell3@@AAEXXZ 1000a0a2 f   KRepresentShell3.obj
 0001:000091b6       ?InvalidateDeviceObjects@KRepresentShell3@@AAE_NXZ 1000a1b6 f   KRepresentShell3.obj
 0001:000092aa       ?RestoreDeviceObjects@KRepresentShell3@@AAE_NXZ 1000a2aa f   KRepresentShell3.obj
 0001:00009800       ?Reset@KRepresentShell3@@UAE_NHH_N@Z 1000a800 f   KRepresentShell3.obj
 0001:00009910       ?CreateAFont@KRepresentShell3@@UAE_NPBDW4CHARACTER_CODE_SET@@H@Z 1000a910 f   KRepresentShell3.obj
 0001:00009c19       ?CreateImage@KRepresentShell3@@UAEIPBDHHH@Z 1000ac19 f   KRepresentShell3.obj
 0001:00009c68       ?DrawPrimitives@KRepresentShell3@@UAEXHPAUKRepresentUnit@@IH@Z 1000ac68 f   KRepresentShell3.obj
 0001:0000a37a       ?DrawImage2D@KRepresentShell3@@AAEXHPAUKRepresentUnit@@H@Z 1000b37a f   KRepresentShell3.obj
 0001:0000a669       ?DrawImage2DStretch@KRepresentShell3@@AAEXHPAUKRepresentUnit@@@Z 1000b669 f   KRepresentShell3.obj
 0001:0000a755       ?DrawPlayer2D@KRepresentShell3@@AAEXHPAUKRepresentUnit@@H@Z 1000b755 f   KRepresentShell3.obj
 0001:0000a87f       ?GetBoundBox2D@KRepresentShell3@@AAEXHPAUKRepresentUnit@@HAAUtagRECT@@@Z 1000b87f f   KRepresentShell3.obj
 0001:0000ab55       ?DrawSprOnTexture2D@KRepresentShell3@@AAEXHPAUKRepresentUnit@@HAAUtagRECT@@AAURECTFLOAT@@H_N@Z 1000bb55 f   KRepresentShell3.obj
 0001:0000b5b9       ?DrawImage3D@KRepresentShell3@@AAEXIHPAUKRepresentUnit@@H@Z 1000c5b9 f   KRepresentShell3.obj
 0001:0000c01c       ?DrawPlayer3D@KRepresentShell3@@AAEXHPAUKRepresentUnit@@H@Z 1000d01c f   KRepresentShell3.obj
 0001:0000c18a       ?GetBoundBox3D@KRepresentShell3@@AAEXHPAUKRepresentUnit@@AAURECTFLOAT@@@Z 1000d18a f   KRepresentShell3.obj
 0001:0000c5c0       ?DrawPrimitivesOnImage@KRepresentShell3@@UAEXHPAUKRepresentUnit@@IPBDIAAF@Z 1000d5c0 f   KRepresentShell3.obj
 0001:0000ca05       ?ClearImageData@KRepresentShell3@@UAEXPBDIF@Z 1000da05 f   KRepresentShell3.obj
 0001:0000cae1       ?FreeAllImage@KRepresentShell3@@UAEXXZ 1000dae1 f   KRepresentShell3.obj
 0001:0000cb0b       ?FreeImage@KRepresentShell3@@UAEXPBD@Z 1000db0b f   KRepresentShell3.obj
 0001:0000cb4d       ?GetBitmapDataBuffer@KRepresentShell3@@UAEPAXPBDPAUKBitmapDataBuffInfo@@@Z 1000db4d f   KRepresentShell3.obj
 0001:0000cc50       ?ReleaseBitmapDataBuffer@KRepresentShell3@@UAEXPBDPAX@Z 1000dc50 f   KRepresentShell3.obj
 0001:0000ccd7       ?GetImageParam@KRepresentShell3@@UAE_NPBDPAUKImageParam@@H@Z 1000dcd7 f   KRepresentShell3.obj
 0001:0000cd29       ?GetImageFrameParam@KRepresentShell3@@UAE_NPBDHPAUKRPosition2@@1H@Z 1000dd29 f   KRepresentShell3.obj
 0001:0000cd83       ?GetImagePixelAlpha@KRepresentShell3@@UAEHPBDHHHH@Z 1000dd83 f   KRepresentShell3.obj
 0001:0000cdea       ?LookAt@KRepresentShell3@@UAEXHHH@Z 1000ddea f   KRepresentShell3.obj
 0001:0000cf70       ?OutputText@KRepresentShell3@@UAEXHPBDHHHIHHI@Z 1000df70 f   KRepresentShell3.obj
 0001:0000d198       ?OutputRichText@KRepresentShell3@@UAEHHPAUKOutputTextParam@@PBDHH@Z 1000e198 f   KRepresentShell3.obj
 0001:0000d3f1       ?LocateRichText@KRepresentShell3@@UAEHHHHPAUKOutputTextParam@@PBDHH@Z 1000e3f1 f   KRepresentShell3.obj
 0001:0000d61d       ?ReleaseAFont@KRepresentShell3@@UAEXH@Z 1000e61d f   KRepresentShell3.obj
 0001:0000d6ce       ?SaveImage@KRepresentShell3@@UAE_NPBD0H@Z 1000e6ce f   KRepresentShell3.obj
 0001:0000d71b       ?SetImageStoreBalanceParam@KRepresentShell3@@UAEXHI@Z 1000e71b f   KRepresentShell3.obj
 0001:0000d74f       ?CopyDeviceImageToImage@KRepresentShell3@@UAE_NPBDHHHHHH@Z 1000e74f f   KRepresentShell3.obj
 0001:0000d78c       ?RepresentBegin@KRepresentShell3@@UAE_NHI@Z 1000e78c f   KRepresentShell3.obj
 0001:0000d8a9       ?RepresentEnd@KRepresentShell3@@UAEXXZ 1000e8a9 f   KRepresentShell3.obj
 0001:0000d9d6       ?ViewPortCoordToSpaceCoord@KRepresentShell3@@UAEXAAH0H@Z 1000e9d6 f   KRepresentShell3.obj
 0001:0000dbd0       ?D3DTerm@KRepresentShell3@@AAEXXZ 1000ebd0 f   KRepresentShell3.obj
 0001:0000dc31       ?CoordinateTransform@KRepresentShell3@@AAEXAAH0H@Z 1000ec31 f   KRepresentShell3.obj
 0001:0000dc7e       ?DrawRect@KRepresentShell3@@AAEXHHHHK@Z 1000ec7e f   KRepresentShell3.obj
 0001:0000df18       ?DrawPoint@KRepresentShell3@@AAEXHPAUKRepresentUnit@@H@Z 1000ef18 f   KRepresentShell3.obj
 0001:0000e19c       ?DrawLine@KRepresentShell3@@AAEXHHHHK@Z 1000f19c f   KRepresentShell3.obj
 0001:0000e3b2       ?DrawRectFrame@KRepresentShell3@@AAEXHHHHK@Z 1000f3b2 f   KRepresentShell3.obj
 0001:0000e68b       ?DrawBitmap16@KRepresentShell3@@AAEXHHHHPAVTextureResBmp@@_N@Z 1000f68b f   KRepresentShell3.obj
 0001:0000ea42       ?DrawSpriteAlpha@KRepresentShell3@@AAEXHHHHHPAVTextureResSpr@@KH@Z 1000fa42 f   KRepresentShell3.obj
 0001:0000f11a       ?DrawSpritePartAlpha@KRepresentShell3@@AAEXHHHHHPAVTextureResSpr@@AAUtagRECT@@@Z 1001011a f   KRepresentShell3.obj
 0001:0000f8f8       ?DrawBitmap16Part@KRepresentShell3@@AAEXHHHHPAVTextureResBmp@@AAUtagRECT@@@Z 100108f8 f   KRepresentShell3.obj
 0001:0000fce2       ?DrawBitmap163D@KRepresentShell3@@AAEXAAURenderParam3D@@PAVTextureResBmp@@@Z 10010ce2 f   KRepresentShell3.obj
 0001:0000ffed       ?DrawBitmap163DLighting@KRepresentShell3@@AAEXAAURenderParam3D@@PAVTextureResBmp@@@Z 10010fed f   KRepresentShell3.obj
 0001:00010370       ?DrawSpriteAlpha3D@KRepresentShell3@@AAEXAAURenderParam3D@@HPAVTextureResSpr@@KHPAUtagRECT@@@Z 10011370 f   KRepresentShell3.obj
 0001:000114ad       ?DrawSpriteAlpha3DLighting@KRepresentShell3@@AAEXAAURenderParam3D@@HPAVTextureResSpr@@KHPAUtagRECT@@@Z 100124ad f   KRepresentShell3.obj
 0001:000125b1       ?BuildMesh3D@KRepresentShell3@@AAEIPAUVERTEX3D@@0IK@Z 100135b1 f   KRepresentShell3.obj
 0001:00012e6b       ?GetPoint3dLightingLerp@KRepresentShell3@@AAEIAAUD3DXVECTOR3@@@Z 10013e6b f   KRepresentShell3.obj
 0001:00013222       ?RIO_CopyBitmap16ToBuffer@KRepresentShell3@@AAEXPAVTextureResBmp@@0HH@Z 10014222 f   KRepresentShell3.obj
 0001:00013236       ?RIO_CopySprToBufferAlpha@KRepresentShell3@@AAEXPAVTextureResSpr@@HPAVTextureResBmp@@HH@Z 10014236 f   KRepresentShell3.obj
 0001:000137dd       ?SetLightInfo@KRepresentShell3@@UAEXHHPAI@Z 100147dd f   KRepresentShell3.obj
 0001:0001383f       ?SaveScreenToFile@KRepresentShell3@@UAE_NPBDW4ScreenFileType@@I@Z 1001483f f   KRepresentShell3.obj
 0001:00013b86       ?SetGamma@KRepresentShell3@@UAEXH@Z 10014b86 f   KRepresentShell3.obj
 0001:00013da0       ?GetPoint3dLighting@KRepresentShell3@@AAEIAAUD3DXVECTOR3@@@Z 10014da0 f i KRepresentShell3.obj
 0001:00013e50       ??DD3DXMATRIX@@QBE?AU0@ABU0@@Z 10014e50 f i KRepresentShell3.obj
 0001:00013eb0       ??0D3DXMATRIX@@QAE@XZ      10014eb0 f i KRepresentShell3.obj
 0001:00013ed0       ??0D3DXVECTOR3@@QAE@XZ     10014ed0 f i KRepresentShell3.obj
 0001:00013ef0       ?SetAdjustColorList@KRepresentShell3@@UAEIPAII@Z 10014ef0 f i KRepresentShell3.obj
 0001:00013f10       ??0iRepresentShell@@QAE@XZ 10014f10 f i KRepresentShell3.obj
 0001:00013f30       ??_GKRepresentShell3@@AAEPAXI@Z 10014f30 f i KRepresentShell3.obj
 0001:00013f70       ?GetAdapterInfo@CD3D_Device@@QAEPAUD3DAdapterInfo@@XZ 10014f70 f i KRepresentShell3.obj
 0001:00013f90       ?GetDeviceInfo@CD3D_Device@@QAEPAUD3DDeviceInfo@@XZ 10014f90 f i KRepresentShell3.obj
 0001:00013fb0       ?GetWidth@TextureRes@@QAEHXZ 10014fb0 f i KRepresentShell3.obj
 0001:00013fd0       ?GetHeight@TextureRes@@QAEHXZ 10014fd0 f i KRepresentShell3.obj
 0001:00013ff0       ?GetCenterX@TextureResSpr@@QAEIXZ 10014ff0 f i KRepresentShell3.obj
 0001:00014010       ?GetCenterY@TextureResSpr@@QAEIXZ 10015010 f i KRepresentShell3.obj
 0001:00014030       ?D3DXMatrixIdentity@@YAPAUD3DXMATRIX@@PAU1@@Z 10015030 f i KRepresentShell3.obj
 0001:000140e0       ??0D3DXVECTOR4@@QAE@MMMM@Z 100150e0 f i KRepresentShell3.obj
 0001:00014120       ??0D3DXVECTOR3@@QAE@MMM@Z  10015120 f i KRepresentShell3.obj
 0001:00014160       ??0RenderParam3D@@QAE@XZ   10015160 f i KRepresentShell3.obj
 0001:000141a0       ??_H@YGXPAXIHP6EX0@Z@Z     100151a0 f i KRepresentShell3.obj
 0001:000141e0       ?GetViewport@CD3D_Device@@QAE?AU_D3DVIEWPORT9@@XZ 100151e0 f i KRepresentShell3.obj
 0001:00014210       ??0KOutputTextParam@@QAE@XZ 10015210 f i KRepresentShell3.obj
 0001:00014280       ??GD3DXVECTOR3@@QBE?AU0@ABU0@@Z 10015280 f i KRepresentShell3.obj
 0001:00014300       ??DD3DXVECTOR3@@QBE?AU0@M@Z 10015300 f i KRepresentShell3.obj
 0001:00014370       ?ChaZhi@@YAMMMMMM@Z        10015370 f i KRepresentShell3.obj
 0001:00014390       ??0VERTEX3D@@QAE@XZ        10015390 f i KRepresentShell3.obj
 0001:000143c0       ?ChaZhi@@YA?AUD3DXVECTOR3@@U1@0MMM@Z 100153c0 f i KRepresentShell3.obj
 0001:00014450       ??HD3DXVECTOR3@@QBE?AU0@ABU0@@Z 10015450 f i KRepresentShell3.obj
 0001:000144d0       ??KD3DXVECTOR3@@QBE?AU0@M@Z 100154d0 f i KRepresentShell3.obj
 0001:00014550       ??YD3DXVECTOR3@@QAEAAU0@ABU0@@Z 10015550 f i KRepresentShell3.obj
 0001:000145a0       ?InitGdiplus@@YA_NXZ       100155a0 f   RepresentUtility.obj
 0001:00014603       ?ShutdownGdiplus@@YAXXZ    10015603 f   RepresentUtility.obj
 0001:00014621       ?GetEncoderClsid@@YAHPBGPAU_GUID@@@Z 10015621 f   RepresentUtility.obj
 0001:00014752       ?SaveBufferToJpgFile32@@YA_NPADPAXHHHI@Z 10015752 f   RepresentUtility.obj
 0001:00014d6f       ?SaveBufferToJpgFile24@@YA_NPADPAXHHHI@Z 10015d6f f   RepresentUtility.obj
 0001:00015390       ??0GdiplusStartupInput@Gdiplus@@QAE@P6GXW4DebugEventLevel@1@PAD@ZHH@Z 10016390 f i RepresentUtility.obj
 0001:000153d0       ?GetImageEncodersSize@Gdiplus@@YA?AW4Status@1@PAI0@Z 100163d0 f i RepresentUtility.obj
 0001:000153f0       ?GetImageEncoders@Gdiplus@@YA?AW4Status@1@IIPAVImageCodecInfo@1@@Z 100163f0 f i RepresentUtility.obj
 0001:00015410       ??3GdiplusBase@Gdiplus@@SAXPAX@Z 10016410 f i RepresentUtility.obj
 0001:00015430       ??2GdiplusBase@Gdiplus@@SAPAXI@Z 10016430 f i RepresentUtility.obj
 0001:00015450       ??0Image@Gdiplus@@QAE@PAUIStream@@H@Z 10016450 f i RepresentUtility.obj
 0001:000154c0       ??_EImage@Gdiplus@@UAEPAXI@Z 100164c0 f i RepresentUtility.obj
 0001:000154c0       ??_GImage@Gdiplus@@UAEPAXI@Z 100164c0 f i RepresentUtility.obj
 0001:00015500       ??1Image@Gdiplus@@UAE@XZ   10016500 f i RepresentUtility.obj
 0001:00015540       ?Clone@Image@Gdiplus@@UAEPAV12@XZ 10016540 f i RepresentUtility.obj
 0001:00015600       ?SetStatus@Image@Gdiplus@@IBE?AW4Status@2@W432@@Z 10016600 f i RepresentUtility.obj
 0001:00015630       ?Save@Image@Gdiplus@@QAE?AW4Status@2@PBGPBU_GUID@@PBVEncoderParameters@2@@Z 10016630 f i RepresentUtility.obj
 0001:00015670       ??0Image@Gdiplus@@IAE@PAVGpImage@1@W4Status@1@@Z 10016670 f i RepresentUtility.obj
 0001:000156b0       ?SetNativeImage@Image@Gdiplus@@IAEXPAVGpImage@2@@Z 100166b0 f i RepresentUtility.obj
 0001:000156d0       ??0KTextProcess@@QAE@XZ    100166d0 f   TextProcess.obj
 0001:00015720       ??0KTextProcess@@QAE@PBDHH@Z 10016720 f   TextProcess.obj
 0001:00015755       ?SetContent@KTextProcess@@QAEXPBDHH@Z 10016755 f   TextProcess.obj
 0001:000157cc       ?GetSimplexText@KTextProcess@@AAEHAAHAAUKTP_CTRL@1@1H@Z 100167cc f   TextProcess.obj
 0001:00015cc4       ?SeekToSpecialLine@KTextProcess@@QAEHHAAUKTP_CTRL@1@0AAHHH@Z 10016cc4 f   TextProcess.obj
 0001:0001615f       ?DrawTextLine@KTextProcess@@QAEHPAUiFont@@HPAUKOutputTextParam@@@Z 1001715f f   TextProcess.obj
 0001:00016875       ?TransXYPosToCharOffset@KTextProcess@@QAEHHHPAUiFont@@HPAUKOutputTextParam@@@Z 10017875 f   TextProcess.obj
 0001:000170b1       ?GetCurLineHeight@KTextProcess@@QAEXAAH0HH@Z 100180b1 f   TextProcess.obj
 0001:000173f0       ?Backup@KTextProcess@@QAEXXZ 100183f0 f i TextProcess.obj
 0001:00017450       ?Restore@KTextProcess@@QAEXXZ 10018450 f i TextProcess.obj
 0001:000174b0       ??0TextureRes@@QAE@XZ      100184b0 f   TextureRes.obj
 0001:000174ce       ??1TextureRes@@UAE@XZ      100184ce f   TextureRes.obj
 0001:000174e9       ?Release@TextureRes@@UAEXXZ 100184e9 f   TextureRes.obj
 0001:000174fb       ??0TextureResBmp@@QAE@XZ   100184fb f   TextureRes.obj
 0001:00017577       ??1TextureResBmp@@UAE@XZ   10018577 f   TextureRes.obj
 0001:000175d9       ?ResetVar@TextureResBmp@@UAEXXZ 100185d9 f   TextureRes.obj
 0001:00017624       ?InvalidateDeviceObjects@TextureResBmp@@UAE_NXZ 10018624 f   TextureRes.obj
 0001:00017672       ?RestoreDeviceObjects@TextureResBmp@@UAE_NXZ 10018672 f   TextureRes.obj
 0001:0001772b       ?CreateImage@TextureResBmp@@UAE_NPBDHHI@Z 1001872b f   TextureRes.obj
 0001:0001788e       ?LoadImageA@TextureResBmp@@UAE_NPADI@Z 1001888e f   TextureRes.obj
 0001:00017900       ?LoadJpegFile@TextureResBmp@@AAE_NPAD@Z 10018900 f   TextureRes.obj
 0001:00017bb6       ?LockData@TextureResBmp@@QAE_NPAPAXAAH@Z 10018bb6 f   TextureRes.obj
 0001:00017c3b       ?UnLockData@TextureResBmp@@QAEXXZ 10018c3b f   TextureRes.obj
 0001:00017cb6       ?Release@TextureResBmp@@UAEXXZ 10018cb6 f   TextureRes.obj
 0001:00017d50       ??0TextureResSpr@@QAE@XZ   10018d50 f   TextureRes.obj
 0001:00017db5       ??1TextureResSpr@@UAE@XZ   10018db5 f   TextureRes.obj
 0001:00017e17       ?ResetVar@TextureResSpr@@UAEXXZ 10018e17 f   TextureRes.obj
 0001:00017ebc       ?CreateImage@TextureResSpr@@UAE_NPBDHHI@Z 10018ebc f   TextureRes.obj
 0001:00017ed2       ?LoadImageA@TextureResSpr@@UAE_NPADI@Z 10018ed2 f   TextureRes.obj
 0001:00017f44       ?LoadSprFile@TextureResSpr@@AAE_NPAD@Z 10018f44 f   TextureRes.obj
 0001:0001837d       ?PrepareFrameData@TextureResSpr@@QAE_NPBDH_N@Z 1001937d f   TextureRes.obj
 0001:000185be       ?GetTexture@TextureResSpr@@QAEPAUIDirect3DTexture9@@HH@Z 100195be f   TextureRes.obj
 0001:00018682       ?CreateTexture16Bit@TextureResSpr@@AAEXPBDH@Z 10019682 f   TextureRes.obj
 0001:00018b2c       ?CreateTexture32Bit@TextureResSpr@@AAEXI@Z 10019b2c f   TextureRes.obj
 0001:00018b40       ?GetPixelAlpha@TextureResSpr@@QAEHHHH@Z 10019b40 f   TextureRes.obj
 0001:00018e0a       ?Release@TextureResSpr@@UAEXXZ 10019e0a f   TextureRes.obj
 0001:0001919f       ?ReleaseAFrameData@TextureResSpr@@UAE_NXZ 1001a19f f   TextureRes.obj
 0001:0001930e       ?SplitTexture@TextureResSpr@@AAEHI@Z 1001a30e f   TextureRes.obj
 0001:00019ab0       ?InvalidateDeviceObjects@TextureRes@@UAE_NXZ 1001aab0 f i TextureRes.obj
 0001:00019ad0       ?RestoreDeviceObjects@TextureRes@@UAE_NXZ 1001aad0 f i TextureRes.obj
 0001:00019af0       ??_GTextureRes@@UAEPAXI@Z  1001aaf0 f i TextureRes.obj
 0001:00019af0       ??_ETextureRes@@UAEPAXI@Z  1001aaf0 f i TextureRes.obj
 0001:00019b30       ?ReleaseAFrameData@TextureResBmp@@UAE_NXZ 1001ab30 f i TextureRes.obj
 0001:00019b70       ??_ETextureResBmp@@UAEPAXI@Z 1001ab70 f i TextureRes.obj
 0001:00019b70       ??_GTextureResBmp@@UAEPAXI@Z 1001ab70 f i TextureRes.obj
 0001:00019bb0       ??_GTextureResSpr@@UAEPAXI@Z 1001abb0 f i TextureRes.obj
 0001:00019bb0       ??_ETextureResSpr@@UAEPAXI@Z 1001abb0 f i TextureRes.obj
 0001:00019bf0       ?RenderToA4R4G4B4@@YAXPAGPAEHH1@Z 1001abf0 f i TextureRes.obj
 0001:00019c70       ??0TextureResMgr@@QAE@XZ   1001ac70 f   TextureResMgr.obj
 0001:00019d98       ??1TextureResMgr@@QAE@XZ   1001ad98 f   TextureResMgr.obj
 0001:00019e03       ?SetBalanceParam@TextureResMgr@@QAEXHI@Z 1001ae03 f   TextureResMgr.obj
 0001:00019e17       ?CheckBalance@TextureResMgr@@QAEXXZ 1001ae17 f   TextureResMgr.obj
 0001:0001a003       ?CreateImage@TextureResMgr@@QAEIPBDHHH@Z 1001b003 f   TextureResMgr.obj
 0001:0001a223       ?FindImage@TextureResMgr@@AAEHIH@Z 1001b223 f   TextureResMgr.obj
 0001:0001a3d3       ?FreeImage@TextureResMgr@@QAEXPBD@Z 1001b3d3 f   TextureResMgr.obj
 0001:0001a531       ?Free@TextureResMgr@@QAEXXZ 1001b531 f   TextureResMgr.obj
 0001:0001a659       ?GetImageParam@TextureResMgr@@QAE_NPBDPAUKImageParam@@H@Z 1001b659 f   TextureResMgr.obj
 0001:0001a7a3       ?GetImageFrameParam@TextureResMgr@@QAE_NPBDHPAUKRPosition2@@1H@Z 1001b7a3 f   TextureResMgr.obj
 0001:0001a910       ?GetImage@TextureResMgr@@QAEPAVTextureRes@@PBDAAIAAFHH_N@Z 1001b910 f   TextureResMgr.obj
 0001:0001acfd       ?GetImagePixelAlpha@TextureResMgr@@QAEHPBDHHHH@Z 1001bcfd f   TextureResMgr.obj
 0001:0001ae0f       ?LoadImageA@TextureResMgr@@ABEPAVTextureRes@@PBDI@Z 1001be0f f   TextureResMgr.obj
 0001:0001afe1       ?StartProfile@TextureResMgr@@QAEXXZ 1001bfe1 f   TextureResMgr.obj
 0001:0001b0c5       ?EndProfile@TextureResMgr@@QAEXXZ 1001c0c5 f   TextureResMgr.obj
 0001:0001b1df       ?GetProfileStringA@TextureResMgr@@QAEXPADH@Z 1001c1df f   TextureResMgr.obj
 0001:0001b295       ?InvalidateDeviceObjects@TextureResMgr@@QAE_NXZ 1001c295 f   TextureResMgr.obj
 0001:0001b393       ?RestoreDeviceObjects@TextureResMgr@@QAE_NXZ 1001c393 f   TextureResMgr.obj
 0001:0001b4a0       ??0KCriticalSection@@QAE@XZ 1001c4a0 f i TextureResMgr.obj
 0001:0001b4e0       ??1KCriticalSection@@QAE@XZ 1001c4e0 f i TextureResMgr.obj
 0001:0001b520       ??0KAutoCriticalSection@@QAE@AAVKCriticalSection@@@Z 1001c520 f i TextureResMgr.obj
 0001:0001b560       ?Lock@KCriticalSection@@QAEHXZ 1001c560 f i TextureResMgr.obj
 0001:0001b5a0       ??1KAutoCriticalSection@@QAE@XZ 1001c5a0 f i TextureResMgr.obj
 0001:0001b5d0       ?UnLock@KCriticalSection@@QAEHXZ 1001c5d0 f i TextureResMgr.obj
 0001:0001b610       ?GetFrameNum@TextureResSpr@@QAEIXZ 1001c610 f i TextureResMgr.obj
 0001:0001b630       ?GetDirections@TextureResSpr@@QAEIXZ 1001c630 f i TextureResMgr.obj
 0001:0001b650       ?GetInterval@TextureResSpr@@QAEIXZ 1001c650 f i TextureResMgr.obj
 0001:0001b670       ??0?$vector@UResNode@@V?$allocator@UResNode@@@std@@@std@@QAE@ABV?$allocator@UResNode@@@1@@Z 1001c670 f i TextureResMgr.obj
 0001:0001b6b0       ??1?$vector@UResNode@@V?$allocator@UResNode@@@std@@@std@@QAE@XZ 1001c6b0 f i TextureResMgr.obj
 0001:0001b730       ?begin@?$vector@UResNode@@V?$allocator@UResNode@@@std@@@std@@QAEPAUResNode@@XZ 1001c730 f i TextureResMgr.obj
 0001:0001b750       ?end@?$vector@UResNode@@V?$allocator@UResNode@@@std@@@std@@QAEPAUResNode@@XZ 1001c750 f i TextureResMgr.obj
 0001:0001b770       ?size@?$vector@UResNode@@V?$allocator@UResNode@@@std@@@std@@QBEIXZ 1001c770 f i TextureResMgr.obj
 0001:0001b7c0       ??A?$vector@UResNode@@V?$allocator@UResNode@@@std@@@std@@QAEAAUResNode@@I@Z 1001c7c0 f i TextureResMgr.obj
 0001:0001b7f0       ?insert@?$vector@UResNode@@V?$allocator@UResNode@@@std@@@std@@QAEPAUResNode@@PAU3@ABU3@@Z 1001c7f0 f i TextureResMgr.obj
 0001:0001b860       ?erase@?$vector@UResNode@@V?$allocator@UResNode@@@std@@@std@@QAEPAUResNode@@PAU3@@Z 1001c860 f i TextureResMgr.obj
 0001:0001b8d0       ?erase@?$vector@UResNode@@V?$allocator@UResNode@@@std@@@std@@QAEPAUResNode@@PAU3@0@Z 1001c8d0 f i TextureResMgr.obj
 0001:0001b940       ?clear@?$vector@UResNode@@V?$allocator@UResNode@@@std@@@std@@QAEXXZ 1001c940 f i TextureResMgr.obj
 0001:0001b980       ?insert@?$vector@UResNode@@V?$allocator@UResNode@@@std@@@std@@QAEXPAUResNode@@IABU3@@Z 1001c980 f i TextureResMgr.obj
 0001:0001bbe0       ?_Destroy@?$vector@UResNode@@V?$allocator@UResNode@@@std@@@std@@IAEXPAUResNode@@0@Z 1001cbe0 f i TextureResMgr.obj
 0001:0001bc20       ?deallocate@?$allocator@UResNode@@@std@@QAEXPAXI@Z 1001cc20 f i TextureResMgr.obj
 0001:0001bc50       ?_Ucopy@?$vector@UResNode@@V?$allocator@UResNode@@@std@@@std@@IAEPAUResNode@@PBU3@0PAU3@@Z 1001cc50 f i TextureResMgr.obj
 0001:0001bca0       ?_Ufill@?$vector@UResNode@@V?$allocator@UResNode@@@std@@@std@@IAEXPAUResNode@@IABU3@@Z 1001cca0 f i TextureResMgr.obj
 0001:0001bcf0       ?allocate@?$allocator@UResNode@@@std@@QAEPAUResNode@@IPBX@Z 1001ccf0 f i TextureResMgr.obj
 0001:0001bd20       ?destroy@?$allocator@UResNode@@@std@@QAEXPAUResNode@@@Z 1001cd20 f i TextureResMgr.obj
 0001:0001bd50       ?construct@?$allocator@UResNode@@@std@@QAEXPAUResNode@@ABU3@@Z 1001cd50 f i TextureResMgr.obj
 0001:0001bd80       ?copy@std@@YAPAUResNode@@PAU2@00@Z 1001cd80 f i TextureResMgr.obj
 0001:0001bdc0       ?fill@std@@YAXPAUResNode@@0ABU2@@Z 1001cdc0 f i TextureResMgr.obj
 0001:0001bdf0       ?copy_backward@std@@YAPAUResNode@@PAU2@00@Z 1001cdf0 f i TextureResMgr.obj
 0001:0001be30       ?_Allocate@std@@YAPAUResNode@@HPAU2@@Z 1001ce30 f i TextureResMgr.obj
 0001:0001be60       ?_Destroy@std@@YAXPAUResNode@@@Z 1001ce60 f i TextureResMgr.obj
 0001:0001be70       ?_Construct@std@@YAXPAUResNode@@ABU2@@Z 1001ce70 f i TextureResMgr.obj
 0001:0001beca       _GlobalMemoryStatus@4      1001ceca f   kernel32:KERNEL32.dll
 0001:0001bed0       _MultiByteToWideChar@24    1001ced0 f   kernel32:KERNEL32.dll
 0001:0001bed6       _InitializeCriticalSection@4 1001ced6 f   kernel32:KERNEL32.dll
 0001:0001bedc       _DeleteCriticalSection@4   1001cedc f   kernel32:KERNEL32.dll
 0001:0001bee2       _GetTickCount@0            1001cee2 f   kernel32:KERNEL32.dll
 0001:0001bee8       _EnterCriticalSection@4    1001cee8 f   kernel32:KERNEL32.dll
 0001:0001beee       _LeaveCriticalSection@4    1001ceee f   kernel32:KERNEL32.dll
 0001:0001bef4       _DefWindowProcA@16         1001cef4 f   user32:USER32.dll
 0001:0001befa       _SetWindowLongA@12         1001cefa f   user32:USER32.dll
 0001:0001bf00       _GetWindowLongA@8          1001cf00 f   user32:USER32.dll
 0001:0001bf06       _ClientToScreen@8          1001cf06 f   user32:USER32.dll
 0001:0001bf0c       _GetClientRect@8           1001cf0c f   user32:USER32.dll
 0001:0001bf12       _CreateStreamOnHGlobal@12  1001cf12 f   ole32:ole32.dll
 0001:0001bf60       ?init_D3DXFloat32To16Array@@YGPAUD3DXFLOAT16@@PAU1@PBMI@Z 1001cf60 f   d3dx9dt:d3dxmath.obj
 0001:0001bf71       _D3DXFloat32To16Array@12   1001cf71 f   d3dx9dt:d3dxmath.obj
 0001:0001bf77       ?c_D3DXFloat32To16Array@@YGPAUD3DXFLOAT16@@PAU1@PBMI@Z 1001cf77 f   d3dx9dt:d3dxmath.obj
 0001:0001c017       ?init_D3DXFloat16To32Array@@YGPAMPAMPBUD3DXFLOAT16@@I@Z 1001d017 f   d3dx9dt:d3dxmath.obj
 0001:0001c028       _D3DXFloat16To32Array@12   1001d028 f   d3dx9dt:d3dxmath.obj
 0001:0001c02e       ?c_D3DXFloat16To32Array@@YGPAMPAMPBUD3DXFLOAT16@@I@Z 1001d02e f   d3dx9dt:d3dxmath.obj
 0001:0001c0e9       ?init_D3DXVec2Normalize@@YGPAUD3DXVECTOR2@@PAU1@PBU1@@Z 1001d0e9 f   d3dx9dt:d3dxmath.obj
 0001:0001c0fa       _D3DXVec2Normalize@8       1001d0fa f   d3dx9dt:d3dxmath.obj
 0001:0001c100       ?init_D3DXVec2Hermite@@YGPAUD3DXVECTOR2@@PAU1@PBU1@111M@Z 1001d100 f   d3dx9dt:d3dxmath.obj
 0001:0001c12a       _D3DXVec2Hermite@24        1001d12a f   d3dx9dt:d3dxmath.obj
 0001:0001c130       ?c_D3DXVec2Hermite@@YGPAUD3DXVECTOR2@@PAU1@PBU1@111M@Z 1001d130 f   d3dx9dt:d3dxmath.obj
 0001:0001c1e0       ?init_D3DXVec2CatmullRom@@YGPAUD3DXVECTOR2@@PAU1@PBU1@111M@Z 1001d1e0 f   d3dx9dt:d3dxmath.obj
 0001:0001c20a       _D3DXVec2CatmullRom@24     1001d20a f   d3dx9dt:d3dxmath.obj
 0001:0001c210       ?c_D3DXVec2CatmullRom@@YGPAUD3DXVECTOR2@@PAU1@PBU1@111M@Z 1001d210 f   d3dx9dt:d3dxmath.obj
 0001:0001c2e9       ?init_D3DXVec2BaryCentric@@YGPAUD3DXVECTOR2@@PAU1@PBU1@11MM@Z 1001d2e9 f   d3dx9dt:d3dxmath.obj
 0001:0001c318       _D3DXVec2BaryCentric@24    1001d318 f   d3dx9dt:d3dxmath.obj
 0001:0001c31e       ?c_D3DXVec2BaryCentric@@YGPAUD3DXVECTOR2@@PAU1@PBU1@11MM@Z 1001d31e f   d3dx9dt:d3dxmath.obj
 0001:0001c375       ?init_D3DXVec2Transform@@YGPAUD3DXVECTOR4@@PAU1@PBUD3DXVECTOR2@@PBUD3DXMATRIX@@@Z 1001d375 f   d3dx9dt:d3dxmath.obj
 0001:0001c386       _D3DXVec2Transform@12      1001d386 f   d3dx9dt:d3dxmath.obj
 0001:0001c38c       ?init_D3DXVec2TransformArray@@YGPAUD3DXVECTOR4@@PAU1@IPBUD3DXVECTOR2@@IPBUD3DXMATRIX@@I@Z 1001d38c f   d3dx9dt:d3dxmath.obj
 0001:0001c39d       _D3DXVec2TransformArray@24 1001d39d f   d3dx9dt:d3dxmath.obj
 0001:0001c3a3       _acosf@4                   1001d3a3 f i d3dx9dt:d3dxmath.obj
 0001:0001c3b2       ?init_D3DXVec2TransformCoord@@YGPAUD3DXVECTOR2@@PAU1@PBU1@PBUD3DXMATRIX@@@Z 1001d3b2 f   d3dx9dt:d3dxmath.obj
 0001:0001c3c3       _D3DXVec2TransformCoord@12 1001d3c3 f   d3dx9dt:d3dxmath.obj
 0001:0001c3c9       _atan2f@8                  1001d3c9 f i d3dx9dt:d3dxmath.obj
 0001:0001c3d8       _fabsf@4                   1001d3d8 f i d3dx9dt:d3dxmath.obj
 0001:0001c3e4       ?init_D3DXVec2TransformCoordArray@@YGPAUD3DXVECTOR2@@PAU1@IPBU1@IPBUD3DXMATRIX@@I@Z 1001d3e4 f   d3dx9dt:d3dxmath.obj
 0001:0001c3f5       _D3DXVec2TransformCoordArray@24 1001d3f5 f   d3dx9dt:d3dxmath.obj
 0001:0001c3fb       _sinf@4                    1001d3fb f i d3dx9dt:d3dxmath.obj
 0001:0001c407       _sqrtf@4                   1001d407 f i d3dx9dt:d3dxmath.obj
 0001:0001c413       ?init_D3DXVec2TransformNormal@@YGPAUD3DXVECTOR2@@PAU1@PBU1@PBUD3DXMATRIX@@@Z 1001d413 f   d3dx9dt:d3dxmath.obj
 0001:0001c424       _D3DXVec2TransformNormal@12 1001d424 f   d3dx9dt:d3dxmath.obj
 0001:0001c42a       ??0D3DXVECTOR2@@QAE@XZ     1001d42a f i d3dx9dt:d3dxmath.obj
 0001:0001c42d       ?init_D3DXVec2TransformNormalArray@@YGPAUD3DXVECTOR2@@PAU1@IPBU1@IPBUD3DXMATRIX@@I@Z 1001d42d f   d3dx9dt:d3dxmath.obj
 0001:0001c43e       ??0D3DXVECTOR4@@QAE@XZ     1001d43e f i d3dx9dt:d3dxmath.obj
 0001:0001c441       _D3DXVec2TransformNormalArray@24 1001d441 f   d3dx9dt:d3dxmath.obj
 0001:0001c447       ?c_D3DXVec2TransformNormalArray@@YGPAUD3DXVECTOR2@@PAU1@IPBU1@IPBUD3DXMATRIX@@I@Z 1001d447 f   d3dx9dt:d3dxmath.obj
 0001:0001c4bb       ??0_D3DXMATRIXA16@@QAE@XZ  1001d4bb f i d3dx9dt:d3dxmath.obj
 0001:0001c4be       ??0D3DXQUATERNION@@QAE@XZ  1001d4be f i d3dx9dt:d3dxmath.obj
 0001:0001c4c1       ??0D3DXPLANE@@QAE@XZ       1001d4c1 f i d3dx9dt:d3dxmath.obj
 0001:0001c4c4       ?init_D3DXVec3Normalize@@YGPAUD3DXVECTOR3@@PAU1@PBU1@@Z 1001d4c4 f   d3dx9dt:d3dxmath.obj
 0001:0001c4d5       _D3DXVec3Normalize@8       1001d4d5 f   d3dx9dt:d3dxmath.obj
 0001:0001c4db       ?init_D3DXVec3Hermite@@YGPAUD3DXVECTOR3@@PAU1@PBU1@111M@Z 1001d4db f   d3dx9dt:d3dxmath.obj
 0001:0001c505       _D3DXVec3Hermite@24        1001d505 f   d3dx9dt:d3dxmath.obj
 0001:0001c50b       ??0D3DXVECTOR2@@QAE@MM@Z   1001d50b f i d3dx9dt:d3dxmath.obj
 0001:0001c51f       ?c_D3DXVec3Hermite@@YGPAUD3DXVECTOR3@@PAU1@PBU1@111M@Z 1001d51f f   d3dx9dt:d3dxmath.obj
 0001:0001c5f7       ?init_D3DXVec3CatmullRom@@YGPAUD3DXVECTOR3@@PAU1@PBU1@111M@Z 1001d5f7 f   d3dx9dt:d3dxmath.obj
 0001:0001c621       ??_0D3DXVECTOR2@@QAEAAU0@M@Z 1001d621 f i d3dx9dt:d3dxmath.obj
 0001:0001c63b       _D3DXVec3CatmullRom@24     1001d63b f   d3dx9dt:d3dxmath.obj
 0001:0001c641       ?c_D3DXVec3CatmullRom@@YGPAUD3DXVECTOR3@@PAU1@PBU1@111M@Z 1001d641 f   d3dx9dt:d3dxmath.obj
 0001:0001c73c       ?init_D3DXVec3BaryCentric@@YGPAUD3DXVECTOR3@@PAU1@PBU1@11MM@Z 1001d73c f   d3dx9dt:d3dxmath.obj
 0001:0001c76b       ??KD3DXVECTOR2@@QBE?AU0@M@Z 1001d76b f i d3dx9dt:d3dxmath.obj
 0001:0001c78a       _D3DXVec3BaryCentric@24    1001d78a f   d3dx9dt:d3dxmath.obj
 0001:0001c790       ?c_D3DXVec3BaryCentric@@YGPAUD3DXVECTOR3@@PAU1@PBU1@11MM@Z 1001d790 f   d3dx9dt:d3dxmath.obj
 0001:0001c801       ?init_D3DXVec3Transform@@YGPAUD3DXVECTOR4@@PAU1@PBUD3DXVECTOR3@@PBUD3DXMATRIX@@@Z 1001d801 f   d3dx9dt:d3dxmath.obj
 0001:0001c812       _D3DXVec3Transform@12      1001d812 f   d3dx9dt:d3dxmath.obj
 0001:0001c818       ?c_D3DXVec3Transform@@YGPAUD3DXVECTOR4@@PAU1@PBUD3DXVECTOR3@@PBUD3DXMATRIX@@@Z 1001d818 f   d3dx9dt:d3dxmath.obj
 0001:0001c8be       ?init_D3DXVec3TransformArray@@YGPAUD3DXVECTOR4@@PAU1@IPBUD3DXVECTOR3@@IPBUD3DXMATRIX@@I@Z 1001d8be f   d3dx9dt:d3dxmath.obj
 0001:0001c8cf       _D3DXVec3TransformArray@24 1001d8cf f   d3dx9dt:d3dxmath.obj
 0001:0001c8d5       ?c_D3DXVec3TransformArray@@YGPAUD3DXVECTOR4@@PAU1@IPBUD3DXVECTOR3@@IPBUD3DXMATRIX@@I@Z 1001d8d5 f   d3dx9dt:d3dxmath.obj
 0001:0001c9b4       ?init_D3DXVec3TransformCoord@@YGPAUD3DXVECTOR3@@PAU1@PBU1@PBUD3DXMATRIX@@@Z 1001d9b4 f   d3dx9dt:d3dxmath.obj
 0001:0001c9c5       _D3DXVec3TransformCoord@12 1001d9c5 f   d3dx9dt:d3dxmath.obj
 0001:0001c9cb       ??_0D3DXVECTOR3@@QAEAAU0@M@Z 1001d9cb f i d3dx9dt:d3dxmath.obj
 0001:0001c9ed       ?init_D3DXVec3TransformCoordArray@@YGPAUD3DXVECTOR3@@PAU1@IPBU1@IPBUD3DXMATRIX@@I@Z 1001d9ed f   d3dx9dt:d3dxmath.obj
 0001:0001c9fe       _D3DXVec3TransformCoordArray@24 1001d9fe f   d3dx9dt:d3dxmath.obj
 0001:0001ca04       ?c_D3DXVec3TransformCoordArray@@YGPAUD3DXVECTOR3@@PAU1@IPBU1@IPBUD3DXMATRIX@@I@Z 1001da04 f   d3dx9dt:d3dxmath.obj
 0001:0001cb1b       ?init_D3DXVec3TransformNormal@@YGPAUD3DXVECTOR3@@PAU1@PBU1@PBUD3DXMATRIX@@@Z 1001db1b f   d3dx9dt:d3dxmath.obj
 0001:0001cb2c       _D3DXVec3TransformNormal@12 1001db2c f   d3dx9dt:d3dxmath.obj
 0001:0001cb32       ?c_D3DXVec3TransformNormal@@YGPAUD3DXVECTOR3@@PAU1@PBU1@PBUD3DXMATRIX@@@Z 1001db32 f   d3dx9dt:d3dxmath.obj
 0001:0001cbab       ?init_D3DXVec3TransformNormalArray@@YGPAUD3DXVECTOR3@@PAU1@IPBU1@IPBUD3DXMATRIX@@I@Z 1001dbab f   d3dx9dt:d3dxmath.obj
 0001:0001cbbc       _D3DXVec3TransformNormalArray@24 1001dbbc f   d3dx9dt:d3dxmath.obj
 0001:0001cbc2       ?c_D3DXVec3TransformNormalArray@@YGPAUD3DXVECTOR3@@PAU1@IPBU1@IPBUD3DXMATRIX@@I@Z 1001dbc2 f   d3dx9dt:d3dxmath.obj
 0001:0001cc68       ?init_D3DXVec3Project@@YGPAUD3DXVECTOR3@@PAU1@PBU1@PBU_D3DVIEWPORT9@@PBUD3DXMATRIX@@33@Z 1001dc68 f   d3dx9dt:d3dxmath.obj
 0001:0001cc79       _D3DXVec3Project@24        1001dc79 f   d3dx9dt:d3dxmath.obj
 0001:0001cc7f       ?init_D3DXVec3ProjectArray@@YGPAUD3DXVECTOR3@@PAU1@IPBU1@IPBU_D3DVIEWPORT9@@PBUD3DXMATRIX@@33I@Z 1001dc7f f   d3dx9dt:d3dxmath.obj
 0001:0001cc90       _D3DXVec3ProjectArray@36   1001dc90 f   d3dx9dt:d3dxmath.obj
 0001:0001cc96       ??KD3DXVECTOR4@@QBE?AU0@M@Z 1001dc96 f i d3dx9dt:d3dxmath.obj
 0001:0001ccc5       ?init_D3DXVec3Unproject@@YGPAUD3DXVECTOR3@@PAU1@PBU1@PBU_D3DVIEWPORT9@@PBUD3DXMATRIX@@33@Z 1001dcc5 f   d3dx9dt:d3dxmath.obj
 0001:0001ccd6       _D3DXVec3Unproject@24      1001dcd6 f   d3dx9dt:d3dxmath.obj
 0001:0001ccdc       ?init_D3DXVec3UnprojectArray@@YGPAUD3DXVECTOR3@@PAU1@IPBU1@IPBU_D3DVIEWPORT9@@PBUD3DXMATRIX@@33I@Z 1001dcdc f   d3dx9dt:d3dxmath.obj
 0001:0001cced       _D3DXVec3UnprojectArray@36 1001dced f   d3dx9dt:d3dxmath.obj
 0001:0001ccf3       ?init_D3DXVec4Cross@@YGPAUD3DXVECTOR4@@PAU1@PBU1@11@Z 1001dcf3 f   d3dx9dt:d3dxmath.obj
 0001:0001cd04       _D3DXVec4Cross@16          1001dd04 f   d3dx9dt:d3dxmath.obj
 0001:0001cd0a       ?c_D3DXVec4Cross@@YGPAUD3DXVECTOR4@@PAU1@PBU1@11@Z 1001dd0a f   d3dx9dt:d3dxmath.obj
 0001:0001ce21       ?init_D3DXVec4Normalize@@YGPAUD3DXVECTOR4@@PAU1@PBU1@@Z 1001de21 f   d3dx9dt:d3dxmath.obj
 0001:0001ce32       _D3DXVec4Normalize@8       1001de32 f   d3dx9dt:d3dxmath.obj
 0001:0001ce38       ?init_D3DXVec4Hermite@@YGPAUD3DXVECTOR4@@PAU1@PBU1@111M@Z 1001de38 f   d3dx9dt:d3dxmath.obj
 0001:0001ce62       _D3DXVec4Hermite@24        1001de62 f   d3dx9dt:d3dxmath.obj
 0001:0001ce68       ?c_D3DXVec4Hermite@@YGPAUD3DXVECTOR4@@PAU1@PBU1@111M@Z 1001de68 f   d3dx9dt:d3dxmath.obj
 0001:0001cf62       ?init_D3DXVec4CatmullRom@@YGPAUD3DXVECTOR4@@PAU1@PBU1@111M@Z 1001df62 f   d3dx9dt:d3dxmath.obj
 0001:0001cf8c       _D3DXVec4CatmullRom@24     1001df8c f   d3dx9dt:d3dxmath.obj
 0001:0001cf92       ?c_D3DXVec4CatmullRom@@YGPAUD3DXVECTOR4@@PAU1@PBU1@111M@Z 1001df92 f   d3dx9dt:d3dxmath.obj
 0001:0001d0af       ?init_D3DXVec4BaryCentric@@YGPAUD3DXVECTOR4@@PAU1@PBU1@11MM@Z 1001e0af f   d3dx9dt:d3dxmath.obj
 0001:0001d0de       _D3DXVec4BaryCentric@24    1001e0de f   d3dx9dt:d3dxmath.obj
 0001:0001d0e4       ?c_D3DXVec4BaryCentric@@YGPAUD3DXVECTOR4@@PAU1@PBU1@11MM@Z 1001e0e4 f   d3dx9dt:d3dxmath.obj
 0001:0001d16f       ?init_D3DXVec4Transform@@YGPAUD3DXVECTOR4@@PAU1@PBU1@PBUD3DXMATRIX@@@Z 1001e16f f   d3dx9dt:d3dxmath.obj
 0001:0001d180       _D3DXVec4Transform@12      1001e180 f   d3dx9dt:d3dxmath.obj
 0001:0001d186       ?c_D3DXVec4Transform@@YGPAUD3DXVECTOR4@@PAU1@PBU1@PBUD3DXMATRIX@@@Z 1001e186 f   d3dx9dt:d3dxmath.obj
 0001:0001d244       ?init_D3DXVec4TransformArray@@YGPAUD3DXVECTOR4@@PAU1@IPBU1@IPBUD3DXMATRIX@@I@Z 1001e244 f   d3dx9dt:d3dxmath.obj
 0001:0001d255       _D3DXVec4TransformArray@24 1001e255 f   d3dx9dt:d3dxmath.obj
 0001:0001d25b       ?c_D3DXVec4TransformArray@@YGPAUD3DXVECTOR4@@PAU1@IPBU1@IPBUD3DXMATRIX@@I@Z 1001e25b f   d3dx9dt:d3dxmath.obj
 0001:0001d352       ??0D3DXQUATERNION@@QAE@MMMM@Z 1001e352 f i d3dx9dt:d3dxmath.obj
 0001:0001d372       ?init_D3DXMatrixDeterminant@@YGMPBUD3DXMATRIX@@@Z 1001e372 f   d3dx9dt:d3dxmath.obj
 0001:0001d383       _D3DXMatrixDeterminant@4   1001e383 f   d3dx9dt:d3dxmath.obj
 0001:0001d389       ?c_D3DXMatrixDeterminant@@YGMPBUD3DXMATRIX@@@Z 1001e389 f   d3dx9dt:d3dxmath.obj
 0001:0001d462       ??_0D3DXQUATERNION@@QAEAAU0@M@Z 1001e462 f i d3dx9dt:d3dxmath.obj
 0001:0001d48c       ??GD3DXQUATERNION@@QBE?AU0@XZ 1001e48c f i d3dx9dt:d3dxmath.obj
 0001:0001d4b4       ??HD3DXQUATERNION@@QBE?AU0@ABU0@@Z 1001e4b4 f i d3dx9dt:d3dxmath.obj
 0001:0001d4e2       ?init_D3DXMatrixMultiply@@YGPAUD3DXMATRIX@@PAU1@PBU1@1@Z 1001e4e2 f   d3dx9dt:d3dxmath.obj
 0001:0001d4f3       ??GD3DXQUATERNION@@QBE?AU0@ABU0@@Z 1001e4f3 f i d3dx9dt:d3dxmath.obj
 0001:0001d521       _D3DXMatrixMultiply@12     1001e521 f   d3dx9dt:d3dxmath.obj
 0001:0001d527       ?c_D3DXMatrixMultiply@@YGPAUD3DXMATRIX@@PAU1@PBU1@1@Z 1001e527 f   d3dx9dt:d3dxmath.obj
 0001:0001d779       ??DD3DXQUATERNION@@QBE?AU0@M@Z 1001e779 f i d3dx9dt:d3dxmath.obj
 0001:0001d7a5       ??KD3DXQUATERNION@@QBE?AU0@M@Z 1001e7a5 f i d3dx9dt:d3dxmath.obj
 0001:0001d7d4       ??0D3DXPLANE@@QAE@MMMM@Z   1001e7d4 f i d3dx9dt:d3dxmath.obj
 0001:0001d7f4       ??GD3DXPLANE@@QBE?AU0@XZ   1001e7f4 f i d3dx9dt:d3dxmath.obj
 0001:0001d81c       ?init_D3DXMatrixTranspose@@YGPAUD3DXMATRIX@@PAU1@PBU1@@Z 1001e81c f   d3dx9dt:d3dxmath.obj
 0001:0001d82d       _D3DXMatrixTranspose@8     1001e82d f   d3dx9dt:d3dxmath.obj
 0001:0001d833       ?c_D3DXMatrixTranspose@@YGPAUD3DXMATRIX@@PAU1@PBU1@@Z 1001e833 f   d3dx9dt:d3dxmath.obj
 0001:0001d8ae       ?init_D3DXMatrixMultiplyTranspose@@YGPAUD3DXMATRIX@@PAU1@PBU1@1@Z 1001e8ae f   d3dx9dt:d3dxmath.obj
 0001:0001d8bf       _D3DXMatrixMultiplyTranspose@12 1001e8bf f   d3dx9dt:d3dxmath.obj
 0001:0001d8c5       ?c_D3DXMatrixMultiplyTranspose@@YGPAUD3DXMATRIX@@PAU1@PBU1@1@Z 1001e8c5 f   d3dx9dt:d3dxmath.obj
 0001:0001db17       ?init_D3DXMatrixInverse@@YGPAUD3DXMATRIX@@PAU1@PAMPBU1@@Z 1001eb17 f   d3dx9dt:d3dxmath.obj
 0001:0001db28       _D3DXMatrixInverse@12      1001eb28 f   d3dx9dt:d3dxmath.obj
 0001:0001db2e       ?c_D3DXMatrixInverse@@YGPAUD3DXMATRIX@@PAU1@PAMPBU1@@Z 1001eb2e f   d3dx9dt:d3dxmath.obj
 0001:0001dedf       ?D3DXVec2LengthSq@@YGMPBUD3DXVECTOR2@@@Z 1001eedf f i d3dx9dt:d3dxmath.obj
 0001:0001defc       ?init_D3DXMatrixScaling@@YGPAUD3DXMATRIX@@PAU1@MMM@Z 1001eefc f   d3dx9dt:d3dxmath.obj
 0001:0001df2a       _D3DXMatrixScaling@16      1001ef2a f   d3dx9dt:d3dxmath.obj
 0001:0001df30       ?c_D3DXMatrixScaling@@YGPAUD3DXMATRIX@@PAU1@MMM@Z 1001ef30 f   d3dx9dt:d3dxmath.obj
 0001:0001df90       ?init_D3DXMatrixTranslation@@YGPAUD3DXMATRIX@@PAU1@MMM@Z 1001ef90 f   d3dx9dt:d3dxmath.obj
 0001:0001dfbe       _D3DXMatrixTranslation@16  1001efbe f   d3dx9dt:d3dxmath.obj
 0001:0001dfc4       ?c_D3DXMatrixTranslation@@YGPAUD3DXMATRIX@@PAU1@MMM@Z 1001efc4 f   d3dx9dt:d3dxmath.obj
 0001:0001e024       ?D3DXVec3LengthSq@@YGMPBUD3DXVECTOR3@@@Z 1001f024 f i d3dx9dt:d3dxmath.obj
 0001:0001e04c       ?init_D3DXMatrixRotationX@@YGPAUD3DXMATRIX@@PAU1@M@Z 1001f04c f   d3dx9dt:d3dxmath.obj
 0001:0001e06a       ?D3DXVec3Dot@@YGMPBUD3DXVECTOR3@@0@Z 1001f06a f i d3dx9dt:d3dxmath.obj
 0001:0001e08b       _D3DXMatrixRotationX@8     1001f08b f   d3dx9dt:d3dxmath.obj
 0001:0001e091       ?c_D3DXMatrixRotationX@@YGPAUD3DXMATRIX@@PAU1@M@Z 1001f091 f   d3dx9dt:d3dxmath.obj
 0001:0001e115       ?D3DXVec3Cross@@YGPAUD3DXVECTOR3@@PAU1@PBU1@1@Z 1001f115 f i d3dx9dt:d3dxmath.obj
 0001:0001e163       ?init_D3DXMatrixRotationY@@YGPAUD3DXMATRIX@@PAU1@M@Z 1001f163 f   d3dx9dt:d3dxmath.obj
 0001:0001e181       ?D3DXVec3Subtract@@YGPAUD3DXVECTOR3@@PAU1@PBU1@1@Z 1001f181 f i d3dx9dt:d3dxmath.obj
 0001:0001e1a9       _D3DXMatrixRotationY@8     1001f1a9 f   d3dx9dt:d3dxmath.obj
 0001:0001e1af       ?c_D3DXMatrixRotationY@@YGPAUD3DXMATRIX@@PAU1@M@Z 1001f1af f   d3dx9dt:d3dxmath.obj
 0001:0001e232       ?init_D3DXMatrixRotationZ@@YGPAUD3DXMATRIX@@PAU1@M@Z 1001f232 f   d3dx9dt:d3dxmath.obj
 0001:0001e250       _D3DXMatrixRotationZ@8     1001f250 f   d3dx9dt:d3dxmath.obj
 0001:0001e256       ?c_D3DXMatrixRotationZ@@YGPAUD3DXMATRIX@@PAU1@M@Z 1001f256 f   d3dx9dt:d3dxmath.obj
 0001:0001e2da       ?D3DXVec3Lerp@@YGPAUD3DXVECTOR3@@PAU1@PBU1@1M@Z 1001f2da f i d3dx9dt:d3dxmath.obj
 0001:0001e313       ?init_D3DXMatrixRotationAxis@@YGPAUD3DXMATRIX@@PAU1@PBUD3DXVECTOR3@@M@Z 1001f313 f   d3dx9dt:d3dxmath.obj
 0001:0001e334       ?D3DXVec4LengthSq@@YGMPBUD3DXVECTOR4@@@Z 1001f334 f i d3dx9dt:d3dxmath.obj
 0001:0001e367       _D3DXMatrixRotationAxis@12 1001f367 f   d3dx9dt:d3dxmath.obj
 0001:0001e36d       ?c_D3DXMatrixRotationAxis@@YGPAUD3DXMATRIX@@PAU1@PBUD3DXVECTOR3@@M@Z 1001f36d f   d3dx9dt:d3dxmath.obj
 0001:0001e487       ?init_D3DXMatrixRotationQuaternion@@YGPAUD3DXMATRIX@@PAU1@PBUD3DXQUATERNION@@@Z 1001f487 f   d3dx9dt:d3dxmath.obj
 0001:0001e498       _D3DXMatrixRotationQuaternion@8 1001f498 f   d3dx9dt:d3dxmath.obj
 0001:0001e49e       ?c_D3DXMatrixRotationQuaternion@@YGPAUD3DXMATRIX@@PAU1@PBUD3DXQUATERNION@@@Z 1001f49e f   d3dx9dt:d3dxmath.obj
 0001:0001e594       ?init_D3DXMatrixRotationYawPitchRoll@@YGPAUD3DXMATRIX@@PAU1@MMM@Z 1001f594 f   d3dx9dt:d3dxmath.obj
 0001:0001e5c2       ?D3DXMatrixIdentity@@YGPAUD3DXMATRIX@@PAU1@@Z 1001f5c2 f i d3dx9dt:d3dxmath.obj
 0001:0001e61b       _D3DXMatrixRotationYawPitchRoll@16 1001f61b f   d3dx9dt:d3dxmath.obj
 0001:0001e621       ?init_D3DXMatrixTransformation@@YGPAUD3DXMATRIX@@PAU1@PBUD3DXVECTOR3@@PBUD3DXQUATERNION@@1121@Z 1001f621 f   d3dx9dt:d3dxmath.obj
 0001:0001e632       _D3DXMatrixTransformation@28 1001f632 f   d3dx9dt:d3dxmath.obj
 0001:0001e638       ?c_D3DXMatrixTransformation@@YGPAUD3DXMATRIX@@PAU1@PBUD3DXVECTOR3@@PBUD3DXQUATERNION@@1121@Z 1001f638 f   d3dx9dt:d3dxmath.obj
 0001:0001e8e6       ?D3DXQuaternionLengthSq@@YGMPBUD3DXQUATERNION@@@Z 1001f8e6 f i d3dx9dt:d3dxmath.obj
 0001:0001e919       ?D3DXQuaternionDot@@YGMPBUD3DXQUATERNION@@0@Z 1001f919 f i d3dx9dt:d3dxmath.obj
 0001:0001e942       ?D3DXQuaternionConjugate@@YGPAUD3DXQUATERNION@@PAU1@PBU1@@Z 1001f942 f i d3dx9dt:d3dxmath.obj
 0001:0001e96b       ?D3DXPlaneDot@@YGMPBUD3DXPLANE@@PBUD3DXVECTOR4@@@Z 1001f96b f i d3dx9dt:d3dxmath.obj
 0001:0001e994       ?D3DXPlaneDotCoord@@YGMPBUD3DXPLANE@@PBUD3DXVECTOR3@@@Z 1001f994 f i d3dx9dt:d3dxmath.obj
 0001:0001e9b8       ?D3DXPlaneDotNormal@@YGMPBUD3DXPLANE@@PBUD3DXVECTOR3@@@Z 1001f9b8 f i d3dx9dt:d3dxmath.obj
 0001:0001e9d9       ?init_D3DXMatrixAffineTransformation@@YGPAUD3DXMATRIX@@PAU1@MPBUD3DXVECTOR3@@PBUD3DXQUATERNION@@1@Z 1001f9d9 f   d3dx9dt:d3dxmath.obj
 0001:0001ea00       _D3DXMatrixAffineTransformation@20 1001fa00 f   d3dx9dt:d3dxmath.obj
 0001:0001ea06       ?c_D3DXMatrixAffineTransformation@@YGPAUD3DXMATRIX@@PAU1@MPBUD3DXVECTOR3@@PBUD3DXQUATERNION@@1@Z 1001fa06 f   d3dx9dt:d3dxmath.obj
 0001:0001eb07       _D3DXMatrixLookAtRH@16     1001fb07 f   d3dx9dt:d3dxmath.obj
 0001:0001ec78       _D3DXMatrixLookAtLH@16     1001fc78 f   d3dx9dt:d3dxmath.obj
 0001:0001ede9       _D3DXMatrixPerspectiveRH@20 1001fde9 f   d3dx9dt:d3dxmath.obj
 0001:0001ee88       _D3DXMatrixPerspectiveLH@20 1001fe88 f   d3dx9dt:d3dxmath.obj
 0001:0001ef27       _D3DXMatrixPerspectiveFovRH@20 1001ff27 f   d3dx9dt:d3dxmath.obj
 0001:0001efff       _D3DXMatrixPerspectiveFovLH@20 1001ffff f   d3dx9dt:d3dxmath.obj
 0001:0001f0d7       _D3DXMatrixPerspectiveOffCenterRH@28 100200d7 f   d3dx9dt:d3dxmath.obj
 0001:0001f1b8       _D3DXMatrixPerspectiveOffCenterLH@28 100201b8 f   d3dx9dt:d3dxmath.obj
 0001:0001f29d       _D3DXMatrixOrthoRH@20      1002029d f   d3dx9dt:d3dxmath.obj
 0001:0001f344       _D3DXMatrixOrthoLH@20      10020344 f   d3dx9dt:d3dxmath.obj
 0001:0001f3ed       _D3DXMatrixOrthoOffCenterRH@28 100203ed f   d3dx9dt:d3dxmath.obj
 0001:0001f4d0       _D3DXMatrixOrthoOffCenterLH@28 100204d0 f   d3dx9dt:d3dxmath.obj
 0001:0001f5b5       ?init_D3DXMatrixShadow@@YGPAUD3DXMATRIX@@PAU1@PBUD3DXVECTOR4@@PBUD3DXPLANE@@@Z 100205b5 f   d3dx9dt:d3dxmath.obj
 0001:0001f5c6       _D3DXMatrixShadow@12       100205c6 f   d3dx9dt:d3dxmath.obj
 0001:0001f5cc       ?init_D3DXMatrixReflect@@YGPAUD3DXMATRIX@@PAU1@PBUD3DXPLANE@@@Z 100205cc f   d3dx9dt:d3dxmath.obj
 0001:0001f5dd       _D3DXMatrixReflect@8       100205dd f   d3dx9dt:d3dxmath.obj
 0001:0001f5e3       ?init_D3DXQuaternionToAxisAngle@@YGXPBUD3DXQUATERNION@@PAUD3DXVECTOR3@@PAM@Z 100205e3 f   d3dx9dt:d3dxmath.obj
 0001:0001f5f4       _D3DXQuaternionToAxisAngle@12 100205f4 f   d3dx9dt:d3dxmath.obj
 0001:0001f5fa       ?c_D3DXQuaternionToAxisAngle@@YGXPBUD3DXQUATERNION@@PAUD3DXVECTOR3@@PAM@Z 100205fa f   d3dx9dt:d3dxmath.obj
 0001:0001f634       ?init_D3DXQuaternionRotationMatrix@@YGPAUD3DXQUATERNION@@PAU1@PBUD3DXMATRIX@@@Z 10020634 f   d3dx9dt:d3dxmath.obj
 0001:0001f645       _D3DXQuaternionRotationMatrix@8 10020645 f   d3dx9dt:d3dxmath.obj
 0001:0001f64b       ?c_D3DXQuaternionRotationMatrix@@YGPAUD3DXQUATERNION@@PAU1@PBUD3DXMATRIX@@@Z 1002064b f   d3dx9dt:d3dxmath.obj
 0001:0001f78e       ?init_D3DXQuaternionRotationAxis@@YGPAUD3DXQUATERNION@@PAU1@PBUD3DXVECTOR3@@M@Z 1002078e f   d3dx9dt:d3dxmath.obj
 0001:0001f7af       _D3DXQuaternionRotationAxis@12 100207af f   d3dx9dt:d3dxmath.obj
 0001:0001f7b5       ?c_D3DXQuaternionRotationAxis@@YGPAUD3DXQUATERNION@@PAU1@PBUD3DXVECTOR3@@M@Z 100207b5 f   d3dx9dt:d3dxmath.obj
 0001:0001f821       ?init_D3DXQuaternionRotationYawPitchRoll@@YGPAUD3DXQUATERNION@@PAU1@MMM@Z 10020821 f   d3dx9dt:d3dxmath.obj
 0001:0001f84f       _D3DXQuaternionRotationYawPitchRoll@16 1002084f f   d3dx9dt:d3dxmath.obj
 0001:0001f855       ?c_D3DXQuaternionRotationYawPitchRoll@@YGPAUD3DXQUATERNION@@PAU1@MMM@Z 10020855 f   d3dx9dt:d3dxmath.obj
 0001:0001f93b       ?init_D3DXQuaternionMultiply@@YGPAUD3DXQUATERNION@@PAU1@PBU1@1@Z 1002093b f   d3dx9dt:d3dxmath.obj
 0001:0001f94c       _D3DXQuaternionMultiply@12 1002094c f   d3dx9dt:d3dxmath.obj
 0001:0001f952       ?c_D3DXQuaternionMultiply@@YGPAUD3DXQUATERNION@@PAU1@PBU1@1@Z 10020952 f   d3dx9dt:d3dxmath.obj
 0001:0001fa09       ?init_D3DXQuaternionNormalize@@YGPAUD3DXQUATERNION@@PAU1@PBU1@@Z 10020a09 f   d3dx9dt:d3dxmath.obj
 0001:0001fa1a       _D3DXQuaternionNormalize@8 10020a1a f   d3dx9dt:d3dxmath.obj
 0001:0001fa20       ?c_D3DXQuaternionNormalize@@YGPAUD3DXQUATERNION@@PAU1@PBU1@@Z 10020a20 f   d3dx9dt:d3dxmath.obj
 0001:0001fae9       ?init_D3DXQuaternionInverse@@YGPAUD3DXQUATERNION@@PAU1@PBU1@@Z 10020ae9 f   d3dx9dt:d3dxmath.obj
 0001:0001fafa       _D3DXQuaternionInverse@8   10020afa f   d3dx9dt:d3dxmath.obj
 0001:0001fb00       ?c_D3DXQuaternionInverse@@YGPAUD3DXQUATERNION@@PAU1@PBU1@@Z 10020b00 f   d3dx9dt:d3dxmath.obj
 0001:0001fbc5       ?init_D3DXQuaternionLn@@YGPAUD3DXQUATERNION@@PAU1@PBU1@@Z 10020bc5 f   d3dx9dt:d3dxmath.obj
 0001:0001fbd6       _D3DXQuaternionLn@8        10020bd6 f   d3dx9dt:d3dxmath.obj
 0001:0001fbdc       ?c_D3DXQuaternionLn@@YGPAUD3DXQUATERNION@@PAU1@PBU1@@Z 10020bdc f   d3dx9dt:d3dxmath.obj
 0001:0001fc63       ?init_D3DXQuaternionExp@@YGPAUD3DXQUATERNION@@PAU1@PBU1@@Z 10020c63 f   d3dx9dt:d3dxmath.obj
 0001:0001fc74       _D3DXQuaternionExp@8       10020c74 f   d3dx9dt:d3dxmath.obj
 0001:0001fc7a       ?c_D3DXQuaternionExp@@YGPAUD3DXQUATERNION@@PAU1@PBU1@@Z 10020c7a f   d3dx9dt:d3dxmath.obj
 0001:0001fd26       ?init_D3DXQuaternionSlerp@@YGPAUD3DXQUATERNION@@PAU1@PBU1@1M@Z 10020d26 f   d3dx9dt:d3dxmath.obj
 0001:0001fd4a       _D3DXQuaternionSlerp@16    10020d4a f   d3dx9dt:d3dxmath.obj
 0001:0001fd50       ?c_D3DXQuaternionSlerp@@YGPAUD3DXQUATERNION@@PAU1@PBU1@1M@Z 10020d50 f   d3dx9dt:d3dxmath.obj
 0001:0001fe52       ?init_D3DXQuaternionSquad@@YGPAUD3DXQUATERNION@@PAU1@PBU1@111M@Z 10020e52 f   d3dx9dt:d3dxmath.obj
 0001:0001fe7c       _D3DXQuaternionSquad@24    10020e7c f   d3dx9dt:d3dxmath.obj
 0001:0001fe82       ?c_D3DXQuaternionSquad@@YGPAUD3DXQUATERNION@@PAU1@PBU1@111M@Z 10020e82 f   d3dx9dt:d3dxmath.obj
 0001:0001fef8       ?init_D3DXQuaternionSquadSetup@@YGXPAUD3DXQUATERNION@@00PBU1@111@Z 10020ef8 f   d3dx9dt:d3dxmath.obj
 0001:0001ff09       _D3DXQuaternionSquadSetup@28 10020f09 f   d3dx9dt:d3dxmath.obj
 0001:0001ff0f       ?init_D3DXQuaternionBaryCentric@@YGPAUD3DXQUATERNION@@PAU1@PBU1@11MM@Z 10020f0f f   d3dx9dt:d3dxmath.obj
 0001:0001ff3e       _D3DXQuaternionBaryCentric@24 10020f3e f   d3dx9dt:d3dxmath.obj
 0001:0001ff44       ?c_D3DXQuaternionBaryCentric@@YGPAUD3DXQUATERNION@@PAU1@PBU1@11MM@Z 10020f44 f   d3dx9dt:d3dxmath.obj
 0001:0001ffe4       ?init_D3DXPlaneNormalize@@YGPAUD3DXPLANE@@PAU1@PBU1@@Z 10020fe4 f   d3dx9dt:d3dxmath.obj
 0001:0001fff5       _D3DXPlaneNormalize@8      10020ff5 f   d3dx9dt:d3dxmath.obj
 0001:0001fffb       ?c_D3DXPlaneNormalize@@YGPAUD3DXPLANE@@PAU1@PBU1@@Z 10020ffb f   d3dx9dt:d3dxmath.obj
 0001:000200af       ?init_D3DXPlaneIntersectLine@@YGPAUD3DXVECTOR3@@PAU1@PBUD3DXPLANE@@PBU1@2@Z 100210af f   d3dx9dt:d3dxmath.obj
 0001:000200c0       _D3DXPlaneIntersectLine@16 100210c0 f   d3dx9dt:d3dxmath.obj
 0001:000200c6       ?c_D3DXPlaneIntersectLine@@YGPAUD3DXVECTOR3@@PAU1@PBUD3DXPLANE@@PBU1@2@Z 100210c6 f   d3dx9dt:d3dxmath.obj
 0001:0002017a       ?init_D3DXPlaneFromPointNormal@@YGPAUD3DXPLANE@@PAU1@PBUD3DXVECTOR3@@1@Z 1002117a f   d3dx9dt:d3dxmath.obj
 0001:0002018b       _D3DXPlaneFromPointNormal@12 1002118b f   d3dx9dt:d3dxmath.obj
 0001:00020191       ?c_D3DXPlaneFromPointNormal@@YGPAUD3DXPLANE@@PAU1@PBUD3DXVECTOR3@@1@Z 10021191 f   d3dx9dt:d3dxmath.obj
 0001:000201dc       ?init_D3DXPlaneFromPoints@@YGPAUD3DXPLANE@@PAU1@PBUD3DXVECTOR3@@11@Z 100211dc f   d3dx9dt:d3dxmath.obj
 0001:000201ed       _D3DXPlaneFromPoints@16    100211ed f   d3dx9dt:d3dxmath.obj
 0001:000201f3       ?c_D3DXPlaneFromPoints@@YGPAUD3DXPLANE@@PAU1@PBUD3DXVECTOR3@@11@Z 100211f3 f   d3dx9dt:d3dxmath.obj
 0001:000202b7       ?init_D3DXPlaneTransform@@YGPAUD3DXPLANE@@PAU1@PBU1@PBUD3DXMATRIX@@@Z 100212b7 f   d3dx9dt:d3dxmath.obj
 0001:000202c8       _D3DXPlaneTransform@12     100212c8 f   d3dx9dt:d3dxmath.obj
 0001:000202ce       ?c_D3DXPlaneTransform@@YGPAUD3DXPLANE@@PAU1@PBU1@PBUD3DXMATRIX@@@Z 100212ce f   d3dx9dt:d3dxmath.obj
 0001:0002038c       ?init_D3DXPlaneTransformArray@@YGPAUD3DXPLANE@@PAU1@IPBU1@IPBUD3DXMATRIX@@I@Z 1002138c f   d3dx9dt:d3dxmath.obj
 0001:0002039d       _D3DXPlaneTransformArray@24 1002139d f   d3dx9dt:d3dxmath.obj
 0001:000203a3       ?c_D3DXPlaneTransformArray@@YGPAUD3DXPLANE@@PAU1@IPBU1@IPBUD3DXMATRIX@@I@Z 100213a3 f   d3dx9dt:d3dxmath.obj
 0001:0002049a       _D3DXColorAdjustSaturation@12 1002149a f   d3dx9dt:d3dxmath.obj
 0001:000204fe       _D3DXColorAdjustContrast@12 100214fe f   d3dx9dt:d3dxmath.obj
 0001:0002054a       _D3DXFresnelTerm@8         1002154a f   d3dx9dt:d3dxmath.obj
 0001:000205e7       ?D3DXPerlinNoise@@YGMPBUD3DXVECTOR3@@@Z 100215e7 f   d3dx9dt:d3dxmath.obj
 0001:00020850       ?init_D3DXPSGPUpdateSkinnedMesh@@YGXPBUD3DXMATRIX@@0PAE1KKPAPAE2KKPAMH@Z 10021850 f   d3dx9dt:d3dxmath.obj
 0001:00020861       ?D3DXPSGPUpdateSkinnedMesh@@YGXPBUD3DXMATRIX@@0PAE1KKPAPAE2KKPAMH@Z 10021861 f   d3dx9dt:d3dxmath.obj
 0001:00020867       ?init_D3DXPSGPTessellateNPatch@@YGXPAUD3DXVECTOR3@@PAUD3DXVECTOR2@@KPAM222K@Z 10021867 f   d3dx9dt:d3dxmath.obj
 0001:00020878       ?D3DXPSGPTessellateNPatch@@YGXPAUD3DXVECTOR3@@PAUD3DXVECTOR2@@KPAM222K@Z 10021878 f   d3dx9dt:d3dxmath.obj
 0001:0002087e       ?c_D3DXVec2Normalize@@YGPAUD3DXVECTOR2@@PAU1@PBU1@@Z 1002187e f   d3dx9dt:d3dxmath.obj
 0001:00020917       ?c_D3DXVec2Transform@@YGPAUD3DXVECTOR4@@PAU1@PBUD3DXVECTOR2@@PBUD3DXMATRIX@@@Z 10021917 f   d3dx9dt:d3dxmath.obj
 0001:00020995       ?c_D3DXVec2TransformArray@@YGPAUD3DXVECTOR4@@PAU1@IPBUD3DXVECTOR2@@IPBUD3DXMATRIX@@I@Z 10021995 f   d3dx9dt:d3dxmath.obj
 0001:00020a44       ?c_D3DXVec2TransformCoord@@YGPAUD3DXVECTOR2@@PAU1@PBU1@PBUD3DXMATRIX@@@Z 10021a44 f   d3dx9dt:d3dxmath.obj
 0001:00020add       ?c_D3DXVec2TransformCoordArray@@YGPAUD3DXVECTOR2@@PAU1@IPBU1@IPBUD3DXMATRIX@@I@Z 10021add f   d3dx9dt:d3dxmath.obj
 0001:00020bad       ?c_D3DXVec2TransformNormal@@YGPAUD3DXVECTOR2@@PAU1@PBU1@PBUD3DXMATRIX@@@Z 10021bad f   d3dx9dt:d3dxmath.obj
 0001:00020bf9       ?c_D3DXVec3Normalize@@YGPAUD3DXVECTOR3@@PAU1@PBU1@@Z 10021bf9 f   d3dx9dt:d3dxmath.obj
 0001:00020ca9       ?c_D3DXVec3TransformCoord@@YGPAUD3DXVECTOR3@@PAU1@PBU1@PBUD3DXMATRIX@@@Z 10021ca9 f   d3dx9dt:d3dxmath.obj
 0001:00020d89       ?c_D3DXVec3Project@@YGPAUD3DXVECTOR3@@PAU1@PBU1@PBU_D3DVIEWPORT9@@PBUD3DXMATRIX@@33@Z 10021d89 f   d3dx9dt:d3dxmath.obj
 0001:00020f32       ?c_D3DXVec3ProjectArray@@YGPAUD3DXVECTOR3@@PAU1@IPBU1@IPBU_D3DVIEWPORT9@@PBUD3DXMATRIX@@33I@Z 10021f32 f   d3dx9dt:d3dxmath.obj
 0001:00021160       ?c_D3DXVec3Unproject@@YGPAUD3DXVECTOR3@@PAU1@PBU1@PBU_D3DVIEWPORT9@@PBUD3DXMATRIX@@33@Z 10022160 f   d3dx9dt:d3dxmath.obj
 0001:00021329       ?c_D3DXVec3UnprojectArray@@YGPAUD3DXVECTOR3@@PAU1@IPBU1@IPBU_D3DVIEWPORT9@@PBUD3DXMATRIX@@33I@Z 10022329 f   d3dx9dt:d3dxmath.obj
 0001:0002157e       ?c_D3DXVec4Normalize@@YGPAUD3DXVECTOR4@@PAU1@PBU1@@Z 1002257e f   d3dx9dt:d3dxmath.obj
 0001:00021647       ??DD3DXQUATERNION@@QBE?AU0@ABU0@@Z 10022647 f i d3dx9dt:d3dxmath.obj
 0001:0002166e       ?c_D3DXMatrixRotationYawPitchRoll@@YGPAUD3DXMATRIX@@PAU1@MMM@Z 1002266e f   d3dx9dt:d3dxmath.obj
 0001:000216b1       ?c_D3DXMatrixShadow@@YGPAUD3DXMATRIX@@PAU1@PBUD3DXVECTOR4@@PBUD3DXPLANE@@@Z 100226b1 f   d3dx9dt:d3dxmath.obj
 0001:000217af       ?c_D3DXMatrixReflect@@YGPAUD3DXMATRIX@@PAU1@PBUD3DXPLANE@@@Z 100227af f   d3dx9dt:d3dxmath.obj
 0001:00021888       ?c_D3DXQuaternionSquadSetup@@YGXPAUD3DXQUATERNION@@00PBU1@111@Z 10022888 f   d3dx9dt:d3dxmath.obj
 0001:00021cc7       ?GetFormatInfo@D3DXTex@@YGPBU_D3DXFORMAT_INFO@@W4_D3DFORMAT@@@Z 10022cc7 f   d3dx9dt:d3dx9tex.obj
 0001:00021d65       ?FindClosestFormat@D3DXTex@@YG?AW4_D3DFORMAT@@PBW42@PBUtagPALETTEENTRY@@PBU_D3DXFORMAT_INFO@@@Z 10022d65 f   d3dx9dt:d3dx9tex.obj
 0001:00021dd4       ?FindClosestDeviceFormat@D3DXTex@@YG?AW4_D3DFORMAT@@PAUIDirect3DDevice9@@KW4_D3DRESOURCETYPE@@PBU_D3DXFORMAT_INFO@@@Z 10022dd4 f   d3dx9dt:d3dx9tex.obj
 0001:00021ed0       ?FindClosestExternalFormat@D3DXTex@@YG?AW4_D3DFORMAT@@W42@@Z 10022ed0 f   d3dx9dt:d3dx9tex.obj
 0001:00021eef       _D3DXGetImageInfoFromFileInMemory@12 10022eef f   d3dx9dt:d3dx9tex.obj
 0001:00021f27       _D3DXLoadSurfaceFromMemory@40 10022f27 f   d3dx9dt:d3dx9tex.obj
 0001:0002202e       ??0D3DXCOLOR@@QAE@XZ       1002302e f i d3dx9dt:d3dx9tex.obj
 0001:0002211e       _D3DXSaveSurfaceToFileA@20 1002311e f   d3dx9dt:d3dx9tex.obj
 0001:0002213b       _D3DXSaveSurfaceToFileW@20 1002313b f   d3dx9dt:d3dx9tex.obj
 0001:00022158       _D3DXLoadVolumeFromMemory@44 10023158 f   d3dx9dt:d3dx9tex.obj
 0001:0002233d       _D3DXSaveVolumeToFileA@20  1002333d f   d3dx9dt:d3dx9tex.obj
 0001:0002235a       _D3DXSaveVolumeToFileW@20  1002335a f   d3dx9dt:d3dx9tex.obj
 0001:00022701       _D3DXCheckTextureRequirements@28 10023701 f   d3dx9dt:d3dx9tex.obj
 0001:00022726       _D3DXCheckCubeTextureRequirements@24 10023726 f   d3dx9dt:d3dx9tex.obj
 0001:0002274b       _D3DXCheckVolumeTextureRequirements@32 1002374b f   d3dx9dt:d3dx9tex.obj
 0001:00022771       _D3DXCreateTexture@32      10023771 f   d3dx9dt:d3dx9tex.obj
 0001:00022808       _D3DXCreateCubeTexture@28  10023808 f   d3dx9dt:d3dx9tex.obj
 0001:00022898       _D3DXCreateVolumeTexture@36 10023898 f   d3dx9dt:d3dx9tex.obj
 0001:00022939       ??_H@YGXPAXIHP6EPAX0@Z@Z   10023939 f i d3dx9dt:d3dx9tex.obj
 0001:0002295b       ??_I@YGXPAXIHP6EX0@Z@Z     1002395b f i d3dx9dt:d3dx9tex.obj
 0001:00022985       _D3DXFillTexture@12        10023985 f   d3dx9dt:d3dx9tex.obj
 0001:00022bb3       _D3DXFillCubeTexture@12    10023bb3 f   d3dx9dt:d3dx9tex.obj
 0001:000232ed       _D3DXFillVolumeTexture@12  100242ed f   d3dx9dt:d3dx9tex.obj
 0001:00023637       _D3DXFillTextureTX@16      10024637 f   d3dx9dt:d3dx9tex.obj
 0001:00023738       _D3DXFillCubeTextureTX@16  10024738 f   d3dx9dt:d3dx9tex.obj
 0001:00023839       _D3DXFillVolumeTextureTX@16 10024839 f   d3dx9dt:d3dx9tex.obj
 0001:00023983       _D3DXComputeNormalMap@24   10024983 f   d3dx9dt:d3dx9tex.obj
 0001:0002423f       _D3DXGetImageInfoFromFileA@8 1002523f f   d3dx9dt:d3dx9tex.obj
 0001:0002427e       _D3DXGetImageInfoFromFileW@8 1002527e f   d3dx9dt:d3dx9tex.obj
 0001:000242bd       _D3DXGetImageInfoFromResourceA@12 100252bd f   d3dx9dt:d3dx9tex.obj
 0001:00024301       _D3DXGetImageInfoFromResourceW@12 10025301 f   d3dx9dt:d3dx9tex.obj
 0001:00024345       _D3DXLoadSurfaceFromFileInMemory@36 10025345 f   d3dx9dt:d3dx9tex.obj
 0001:00024423       _D3DXLoadSurfaceFromSurface@32 10025423 f   d3dx9dt:d3dx9tex.obj
 0001:00024650       _D3DXLoadVolumeFromFileInMemory@36 10025650 f   d3dx9dt:d3dx9tex.obj
 0001:00024736       _D3DXLoadVolumeFromVolume@32 10025736 f   d3dx9dt:d3dx9tex.obj
 0001:000247d0       ??_ECLockSurface@D3DXTex@@QAEPAXI@Z 100257d0 f i d3dx9dt:d3dx9tex.obj
 0001:0002481c       ??_ECLockVolume@D3DXTex@@QAEPAXI@Z 1002581c f i d3dx9dt:d3dx9tex.obj
 0001:00024868       _D3DXFilterTexture@16      10025868 f   d3dx9dt:d3dx9tex.obj
 0001:00024b72       _D3DXLoadSurfaceFromFileA@32 10025b72 f   d3dx9dt:d3dx9tex.obj
 0001:00024bc3       _D3DXLoadSurfaceFromFileW@32 10025bc3 f   d3dx9dt:d3dx9tex.obj
 0001:00024c14       _D3DXLoadSurfaceFromResourceA@36 10025c14 f   d3dx9dt:d3dx9tex.obj
 0001:00024c6a       _D3DXLoadSurfaceFromResourceW@36 10025c6a f   d3dx9dt:d3dx9tex.obj
 0001:00024cc0       _D3DXLoadVolumeFromFileA@32 10025cc0 f   d3dx9dt:d3dx9tex.obj
 0001:00024d11       _D3DXLoadVolumeFromFileW@32 10025d11 f   d3dx9dt:d3dx9tex.obj
 0001:00024d62       _D3DXLoadVolumeFromResourceA@36 10025d62 f   d3dx9dt:d3dx9tex.obj
 0001:00024db8       _D3DXLoadVolumeFromResourceW@36 10025db8 f   d3dx9dt:d3dx9tex.obj
 0001:000255e7       _D3DXCreateTextureFromFileInMemoryEx@60 100265e7 f   d3dx9dt:d3dx9tex.obj
 0001:00025624       _D3DXCreateCubeTextureFromFileInMemoryEx@56 10026624 f   d3dx9dt:d3dx9tex.obj
 0001:00025661       _D3DXCreateVolumeTextureFromFileInMemoryEx@64 10026661 f   d3dx9dt:d3dx9tex.obj
 0001:00025a91       _D3DXSaveTextureToFileA@16 10026a91 f   d3dx9dt:d3dx9tex.obj
 0001:00025aab       _D3DXSaveTextureToFileW@16 10026aab f   d3dx9dt:d3dx9tex.obj
 0001:00025ac5       _D3DXCreateTextureFromFileExA@56 10026ac5 f   d3dx9dt:d3dx9tex.obj
 0001:00025b28       _D3DXCreateTextureFromFileExW@56 10026b28 f   d3dx9dt:d3dx9tex.obj
 0001:00025b8b       _D3DXCreateTextureFromResourceExA@60 10026b8b f   d3dx9dt:d3dx9tex.obj
 0001:00025bf3       _D3DXCreateTextureFromResourceExW@60 10026bf3 f   d3dx9dt:d3dx9tex.obj
 0001:00025c5b       _D3DXCreateTextureFromFileInMemory@16 10026c5b f   d3dx9dt:d3dx9tex.obj
 0001:00025c88       _D3DXCreateCubeTextureFromFileExA@52 10026c88 f   d3dx9dt:d3dx9tex.obj
 0001:00025ce8       _D3DXCreateCubeTextureFromFileExW@52 10026ce8 f   d3dx9dt:d3dx9tex.obj
 0001:00025d48       _D3DXCreateCubeTextureFromResourceExA@56 10026d48 f   d3dx9dt:d3dx9tex.obj
 0001:00025dad       _D3DXCreateCubeTextureFromResourceExW@56 10026dad f   d3dx9dt:d3dx9tex.obj
 0001:00025e12       _D3DXCreateCubeTextureFromFileInMemory@16 10026e12 f   d3dx9dt:d3dx9tex.obj
 0001:00025e3f       _D3DXCreateVolumeTextureFromFileExA@60 10026e3f f   d3dx9dt:d3dx9tex.obj
 0001:00025ea5       _D3DXCreateVolumeTextureFromFileExW@60 10026ea5 f   d3dx9dt:d3dx9tex.obj
 0001:00025f0b       _D3DXCreateVolumeTextureFromResourceExA@64 10026f0b f   d3dx9dt:d3dx9tex.obj
 0001:00025f76       _D3DXCreateVolumeTextureFromResourceExW@64 10026f76 f   d3dx9dt:d3dx9tex.obj
 0001:00025fe1       _D3DXCreateVolumeTextureFromFileInMemory@16 10026fe1 f   d3dx9dt:d3dx9tex.obj
 0001:0002600d       _D3DXCreateTextureFromFileA@12 1002700d f   d3dx9dt:d3dx9tex.obj
 0001:00026033       _D3DXCreateTextureFromFileW@12 10027033 f   d3dx9dt:d3dx9tex.obj
 0001:00026059       _D3DXCreateTextureFromResourceA@16 10027059 f   d3dx9dt:d3dx9tex.obj
 0001:00026082       _D3DXCreateTextureFromResourceW@16 10027082 f   d3dx9dt:d3dx9tex.obj
 0001:000260ab       _D3DXCreateCubeTextureFromFileA@12 100270ab f   d3dx9dt:d3dx9tex.obj
 0001:000260d0       _D3DXCreateCubeTextureFromFileW@12 100270d0 f   d3dx9dt:d3dx9tex.obj
 0001:000260f5       _D3DXCreateCubeTextureFromResourceA@16 100270f5 f   d3dx9dt:d3dx9tex.obj
 0001:0002611d       _D3DXCreateCubeTextureFromResourceW@16 1002711d f   d3dx9dt:d3dx9tex.obj
 0001:00026145       _D3DXCreateVolumeTextureFromFileA@12 10027145 f   d3dx9dt:d3dx9tex.obj
 0001:0002616c       _D3DXCreateVolumeTextureFromFileW@12 1002716c f   d3dx9dt:d3dx9tex.obj
 0001:00026193       _D3DXCreateVolumeTextureFromResourceA@16 10027193 f   d3dx9dt:d3dx9tex.obj
 0001:000261bd       _D3DXCreateVolumeTextureFromResourceW@16 100271bd f   d3dx9dt:d3dx9tex.obj
 0001:000261e7       ??ZD3DXVECTOR3@@QAEAAU0@ABU0@@Z 100271e7 f i d3dx9dt:psgpmesh.obj
 0001:0002620b       ??XD3DXVECTOR3@@QAEAAU0@M@Z 1002720b f i d3dx9dt:psgpmesh.obj
 0001:0002622d       ??D@YG?AUD3DXVECTOR3@@MABU0@@Z 1002722d f i d3dx9dt:psgpmesh.obj
 0001:00026253       ?c_D3DXPSGPUpdateSkinnedMesh@@YGXPBUD3DXMATRIX@@0PAE1KKPAPAE2KKPAMH@Z 10027253 f   d3dx9dt:psgpmesh.obj
 0001:0002665d       ?CalculateEdgeControlPoint@@YGXPAUD3DXVECTOR3@@00M0@Z 1002765d f i d3dx9dt:psgpmesh.obj
 0001:000266fa       ?c_D3DXPSGPTessellateNPatch@@YGXPAUD3DXVECTOR3@@PAUD3DXVECTOR2@@KPAM222K@Z 100276fa f   d3dx9dt:psgpmesh.obj
 0001:00026ab0       ?_asm_isMMX@@YGHXZ         10027ab0 f   d3dx9dt:cpudetect.obj
 0001:00026ad6       ?isMMXprocessor@@YGHXZ     10027ad6 f   d3dx9dt:cpudetect.obj
 0001:00026c47       _D3DXCpuOptimizations@4    10027c47 f   d3dx9dt:cpudetect.obj
 0001:00026de0       ?D3DXDebugPrintf@@YAXIPADZZ 10027de0 f   d3dx9dt:d3dx9dbg.obj
 0001:00026e6d       ?D3DXDebugAssert@@YGHPBDH0@Z 10027e6d f   d3dx9dt:d3dx9dbg.obj
 0001:00026f88       ?D3DXDebugMute@@YGXH@Z     10027f88 f   d3dx9dt:d3dx9dbg.obj
 0001:00027063       ??0CImage@D3DXTex@@QAE@XZ  10028063 f   d3dx9dt:cimage.obj
 0001:0002707c       ??1CImage@D3DXTex@@QAE@XZ  1002807c f   d3dx9dt:cimage.obj
 0001:000270d5       ??_GCImage@D3DXTex@@QAEPAXI@Z 100280d5 f i d3dx9dt:cimage.obj
 0001:000270f4       ?Initialize@CImage@D3DXTex@@QAEJPAUD3DX_BLT@@@Z 100280f4 f   d3dx9dt:cimage.obj
 0001:000271cc       ?LoadDIB@CImage@D3DXTex@@AAEJPBXK@Z 100281cc f   d3dx9dt:cimage.obj
 0001:00027d0e       ?SaveDIB@CImage@D3DXTex@@AAEJPAXH@Z 10028d0e f   d3dx9dt:cimage.obj
 0001:00028356       ?LoadJPG@CImage@D3DXTex@@AAEJPBXK@Z 10029356 f   d3dx9dt:cimage.obj
 0001:000285ce       ?LoadTGA@CImage@D3DXTex@@AAEJPBXK@Z 100295ce f   d3dx9dt:cimage.obj
 0001:00028b46       ?LoadPPM@CImage@D3DXTex@@AAEJPBXK@Z 10029b46 f   d3dx9dt:cimage.obj
 0001:00028e44       ?LoadPNG@CImage@D3DXTex@@AAEJPBXK@Z 10029e44 f   d3dx9dt:cimage.obj
 0001:00029395       ?LoadDDS@CImage@D3DXTex@@AAEJPBXK@Z 1002a395 f   d3dx9dt:cimage.obj
 0001:00029716       ?SaveDDS@CImage@D3DXTex@@AAEJPAX@Z 1002a716 f   d3dx9dt:cimage.obj
 0001:00029a7d       ?SaveJPG@CImage@D3DXTex@@AAEJPAX@Z 1002aa7d f   d3dx9dt:cimage.obj
 0001:00029c45       ?Save@CImage@D3DXTex@@QAEJPBXW4_D3DXIMAGE_FILEFORMAT@@H@Z 1002ac45 f   d3dx9dt:cimage.obj
 0001:00029f03       ?LoadBMP@CImage@D3DXTex@@AAEJPBXK@Z 1002af03 f   d3dx9dt:cimage.obj
 0001:00029f35       ?Load@CImage@D3DXTex@@QAEJPBXKPAU_D3DXIMAGE_INFO@@H@Z 1002af35 f   d3dx9dt:cimage.obj
 0001:0002a136       ??0CBlt@D3DXTex@@QAE@XZ    1002b136 f   d3dx9dt:cblt.obj
 0001:0002a140       ??1CBlt@D3DXTex@@QAE@XZ    1002b140 f   d3dx9dt:cblt.obj
 0001:0002a15e       _floorf@4                  1002b15e f i d3dx9dt:cblt.obj
 0001:0002a174       ??0TF_Row@D3DXTex@@QAE@XZ  1002b174 f i d3dx9dt:cblt.obj
 0001:0002a181       ??1TF_Row@D3DXTex@@QAE@XZ  1002b181 f i d3dx9dt:cblt.obj
 0001:0002a4b8       ?BltSame_DXTn@CBlt@D3DXTex@@IAEJXZ 1002b4b8 f   d3dx9dt:cblt.obj
 0001:0002a646       ?BltBox2D_R8G8B8@CBlt@D3DXTex@@IAEJXZ 1002b646 f   d3dx9dt:cblt.obj
 0001:0002a64c       ?c_BoxFilter2D_A8R8G8B8@D3DXTex@@YGJPAI0IIII@Z 1002b64c f   d3dx9dt:cblt.obj
 0001:0002a774       ?BltBox2D_A8R8G8B8@CBlt@D3DXTex@@IAEJXZ 1002b774 f   d3dx9dt:cblt.obj
 0001:0002a9a4       ??0D3DXCOLOR@@QAE@MMMM@Z   1002b9a4 f i d3dx9dt:cblt.obj
 0001:0002aa2b       ?BltBox2D_X8R8G8B8@CBlt@D3DXTex@@IAEJXZ 1002ba2b f   d3dx9dt:cblt.obj
 0001:0002aa59       ?BltBox2D_R5G6B5@CBlt@D3DXTex@@IAEJXZ 1002ba59 f   d3dx9dt:cblt.obj
 0001:0002ab99       ?BltBox2D_X1R5G5B5@CBlt@D3DXTex@@IAEJXZ 1002bb99 f   d3dx9dt:cblt.obj
 0001:0002acae       ??HD3DXCOLOR@@QBE?AU0@ABU0@@Z 1002bcae f i d3dx9dt:cblt.obj
 0001:0002acdc       ?BltBox2D_A1R5G5B5@CBlt@D3DXTex@@IAEJXZ 1002bcdc f   d3dx9dt:cblt.obj
 0001:0002ae11       ??DD3DXCOLOR@@QBE?AU0@M@Z  1002be11 f i d3dx9dt:cblt.obj
 0001:0002ae3d       ?BltBox2D_A4R4G4B4@CBlt@D3DXTex@@IAEJXZ 1002be3d f   d3dx9dt:cblt.obj
 0001:0002af80       ?BltBox2D_R3G3B2@CBlt@D3DXTex@@IAEJXZ 1002bf80 f   d3dx9dt:cblt.obj
 0001:0002b0aa       ?BltBox2D_A8@CBlt@D3DXTex@@IAEJXZ 1002c0aa f   d3dx9dt:cblt.obj
 0001:0002b145       ?BltBox2D_A8R3G3B2@CBlt@D3DXTex@@IAEJXZ 1002c145 f   d3dx9dt:cblt.obj
 0001:0002b27d       ?BltBox2D_X4R4G4B4@CBlt@D3DXTex@@IAEJXZ 1002c27d f   d3dx9dt:cblt.obj
 0001:0002b396       ?BltBox2D_A8P8@CBlt@D3DXTex@@IAEJXZ 1002c396 f   d3dx9dt:cblt.obj
 0001:0002b39c       ?BltBox2D_P8@CBlt@D3DXTex@@IAEJXZ 1002c39c f   d3dx9dt:cblt.obj
 0001:0002b3a2       ?BltBox2D_A8L8@CBlt@D3DXTex@@IAEJXZ 1002c3a2 f   d3dx9dt:cblt.obj
 0001:0002b4da       ?BltBox2D_A4L4@CBlt@D3DXTex@@IAEJXZ 1002c4da f   d3dx9dt:cblt.obj
 0001:0002b646       ?BltSame@CBlt@D3DXTex@@IAEJXZ 1002c646 f   d3dx9dt:cblt.obj
 0001:0002b783       ?BltCopy@CBlt@D3DXTex@@IAEJXZ 1002c783 f   d3dx9dt:cblt.obj
 0001:0002b872       ?BltNone@CBlt@D3DXTex@@IAEJXZ 1002c872 f   d3dx9dt:cblt.obj
 0001:0002ba67       ?BltPoint@CBlt@D3DXTex@@IAEJXZ 1002ca67 f   d3dx9dt:cblt.obj
 0001:0002bc60       ?BltBox2D@CBlt@D3DXTex@@IAEJXZ 1002cc60 f   d3dx9dt:cblt.obj
 0001:0002c06f       ?BltBox3D@CBlt@D3DXTex@@IAEJXZ 1002d06f f   d3dx9dt:cblt.obj
 0001:0002c5b5       ?BltLinear2D@CBlt@D3DXTex@@IAEJXZ 1002d5b5 f   d3dx9dt:cblt.obj
 0001:0002c984       ?BltLinear3D@CBlt@D3DXTex@@IAEJXZ 1002d984 f   d3dx9dt:cblt.obj
 0001:0002d082       ??_ETF_Row@D3DXTex@@QAEPAXI@Z 1002e082 f i d3dx9dt:cblt.obj
 0001:0002d0cf       ?BltTriangle3D@CBlt@D3DXTex@@IAEJXZ 1002e0cf f   d3dx9dt:cblt.obj
 0001:0002d793       ?BltTriangle2D@CBlt@D3DXTex@@IAEJXZ 1002e793 f   d3dx9dt:cblt.obj
 0001:0002dd81       ?Blt@CBlt@D3DXTex@@QAEJPAUD3DX_BLT@@0K@Z 1002ed81 f   d3dx9dt:cblt.obj
 0001:0002ded6       ??0CLockSurface@D3DXTex@@QAE@XZ 1002eed6 f   d3dx9dt:clock.obj
 0001:0002dee9       ?InternalCopy@D3DXTex@@YGJPAUIDirect3DSurface9@@0@Z 1002eee9 f   d3dx9dt:clock.obj
 0001:0002dfc6       ?Unlock@CLockSurface@D3DXTex@@QAEJXZ 1002efc6 f   d3dx9dt:clock.obj
 0001:0002e08a       ??0CLockVolume@D3DXTex@@QAE@XZ 1002f08a f   d3dx9dt:clock.obj
 0001:0002e090       ?Unlock@CLockVolume@D3DXTex@@QAEJXZ 1002f090 f   d3dx9dt:clock.obj
 0001:0002e0b2       ??1CLockSurface@D3DXTex@@QAE@XZ 1002f0b2 f   d3dx9dt:clock.obj
 0001:0002e0b7       ?Lock@CLockSurface@D3DXTex@@QAEJPAUD3DX_BLT@@PAUIDirect3DSurface9@@PBUtagPALETTEENTRY@@PBUtagRECT@@KK@Z 1002f0b7 f   d3dx9dt:clock.obj
 0001:0002e5cf       ??1CLockVolume@D3DXTex@@QAE@XZ 1002f5cf f   d3dx9dt:clock.obj
 0001:0002e5d4       ?Lock@CLockVolume@D3DXTex@@QAEJPAUD3DX_BLT@@PAUIDirect3DVolume9@@PBUtagPALETTEENTRY@@PBU_D3DBOX@@KK@Z 1002f5d4 f   d3dx9dt:clock.obj
 0001:0002e961       ??1CCodec@D3DXTex@@UAE@XZ  1002f961 f   d3dx9dt:ccodec.obj
 0001:0002e974       ?Decode@CCodec@D3DXTex@@UAEXIIPAUD3DXCOLOR@@@Z 1002f974 f   d3dx9dt:ccodec.obj
 0001:0002e977       ?Encode@CCodec@D3DXTex@@UAEXIIPAUD3DXCOLOR@@@Z 1002f977 f   d3dx9dt:ccodec.obj
 0001:0002e97a       ?Convert@CCodec@D3DXTex@@IAEPAUD3DXCOLOR@@PAU3@@Z 1002f97a f   d3dx9dt:ccodec.obj
 0001:0002ef3e       ??0D3DXCOLOR@@QAE@K@Z      1002ff3e f i d3dx9dt:ccodec.obj
 0001:0002ef93       ??GD3DXCOLOR@@QBE?AU0@ABU0@@Z 1002ff93 f i d3dx9dt:ccodec.obj
 0001:0002efc1       ??8D3DXCOLOR@@QBEHABU0@@Z  1002ffc1 f i d3dx9dt:ccodec.obj
 0001:0002f004       ?QuantizeColorKey@CCodecYUV@D3DXTex@@MAEXXZ 10030004 f   d3dx9dt:ccodec.obj
 0001:0002f025       ??1CCodecDXT@D3DXTex@@UAE@XZ 10030025 f   d3dx9dt:ccodec.obj
 0001:0002f0ca       ?QuantizeColorKey@CCodecDXT@D3DXTex@@MAEXXZ 100300ca f   d3dx9dt:ccodec.obj
 0001:0002f1cb       ?TableEncodeGamma22@D3DXTex@@YGMM@Z 100301cb f i d3dx9dt:ccodec.obj
 0001:0002f21b       ?TableDecodeGamma22@D3DXTex@@YGMM@Z 1003021b f i d3dx9dt:ccodec.obj
 0001:0002f262       ??0CCodec@D3DXTex@@IAE@PAUD3DX_BLT@@IK@Z 10030262 f   d3dx9dt:ccodec.obj
 0001:0002f4d3       ??_GCCodec@D3DXTex@@UAEPAXI@Z 100304d3 f i d3dx9dt:ccodec.obj
 0001:0002f4d3       ??_ECCodec@D3DXTex@@UAEPAXI@Z 100304d3 f i d3dx9dt:ccodec.obj
 0001:0002f4f2       ?ConvertFrom@CCodec@D3DXTex@@QAEJPAV12@@Z 100304f2 f   d3dx9dt:ccodec.obj
 0001:0002f57f       ?ConvertFromFloat@CCodec@D3DXTex@@QAEJXZ 1003057f f   d3dx9dt:ccodec.obj
 0001:0002f5de       ?QuantizeColorKey@CCodec@D3DXTex@@MAEXXZ 100305de f   d3dx9dt:ccodec.obj
 0001:0002f6b1       ?ColorKey@CCodec@D3DXTex@@IAEXPAUD3DXCOLOR@@@Z 100306b1 f   d3dx9dt:ccodec.obj
 0001:0002f724       ?EncodeGamma22@CCodec@D3DXTex@@IAEPAUD3DXCOLOR@@PAU3@@Z 10030724 f   d3dx9dt:ccodec.obj
 0001:0002f9a6       ?DecodeGamma22@CCodec@D3DXTex@@IAEXPAUD3DXCOLOR@@@Z 100309a6 f   d3dx9dt:ccodec.obj
 0001:0002fadc       ?Encode@CCodec_R8G8B8@D3DXTex@@UAEXIIPAUD3DXCOLOR@@@Z 10030adc f   d3dx9dt:ccodec.obj
 0001:0002fbed       ?Encode@CCodec_A8R8G8B8@D3DXTex@@UAEXIIPAUD3DXCOLOR@@@Z 10030bed f   d3dx9dt:ccodec.obj
 0001:0002fd36       ?Encode@CCodec_X8R8G8B8@D3DXTex@@UAEXIIPAUD3DXCOLOR@@@Z 10030d36 f   d3dx9dt:ccodec.obj
 0001:0002fe5b       ?Encode@CCodec_R5G6B5@D3DXTex@@UAEXIIPAUD3DXCOLOR@@@Z 10030e5b f   d3dx9dt:ccodec.obj
 0001:0002ff80       ?Encode@CCodec_X1R5G5B5@D3DXTex@@UAEXIIPAUD3DXCOLOR@@@Z 10030f80 f   d3dx9dt:ccodec.obj
 0001:000300a5       ?Encode@CCodec_A1R5G5B5@D3DXTex@@UAEXIIPAUD3DXCOLOR@@@Z 100310a5 f   d3dx9dt:ccodec.obj
 0001:000301e8       ?Encode@CCodec_A4R4G4B4@D3DXTex@@UAEXIIPAUD3DXCOLOR@@@Z 100311e8 f   d3dx9dt:ccodec.obj
 0001:00030331       ?Encode@CCodec_R3G3B2@D3DXTex@@UAEXIIPAUD3DXCOLOR@@@Z 10031331 f   d3dx9dt:ccodec.obj
 0001:00030456       ?Encode@CCodec_A8@D3DXTex@@UAEXIIPAUD3DXCOLOR@@@Z 10031456 f   d3dx9dt:ccodec.obj
 0001:00030522       ?Encode@CCodec_A8R3G3B2@D3DXTex@@UAEXIIPAUD3DXCOLOR@@@Z 10031522 f   d3dx9dt:ccodec.obj
 0001:0003066b       ?Encode@CCodec_X4R4G4B4@D3DXTex@@UAEXIIPAUD3DXCOLOR@@@Z 1003166b f   d3dx9dt:ccodec.obj
 0001:00030790       ?Encode@CCodec_A2B10G10R10@D3DXTex@@UAEXIIPAUD3DXCOLOR@@@Z 10031790 f   d3dx9dt:ccodec.obj
 0001:000308d9       ?Encode@CCodec_A8B8G8R8@D3DXTex@@UAEXIIPAUD3DXCOLOR@@@Z 100318d9 f   d3dx9dt:ccodec.obj
 0001:00030a22       ?Encode@CCodec_X8B8G8R8@D3DXTex@@UAEXIIPAUD3DXCOLOR@@@Z 10031a22 f   d3dx9dt:ccodec.obj
 0001:00030b47       ?Encode@CCodec_G16R16@D3DXTex@@UAEXIIPAUD3DXCOLOR@@@Z 10031b47 f   d3dx9dt:ccodec.obj
 0001:00030c3e       ?Encode@CCodec_A2R10G10B10@D3DXTex@@UAEXIIPAUD3DXCOLOR@@@Z 10031c3e f   d3dx9dt:ccodec.obj
 0001:00030d87       ?Encode@CCodec_A16B16G16R16@D3DXTex@@UAEXIIPAUD3DXCOLOR@@@Z 10031d87 f   d3dx9dt:ccodec.obj
 0001:00030f08       ?Encode@CCodec_A8P8@D3DXTex@@UAEXIIPAUD3DXCOLOR@@@Z 10031f08 f   d3dx9dt:ccodec.obj
 0001:0003104f       ?Encode@CCodec_P8@D3DXTex@@UAEXIIPAUD3DXCOLOR@@@Z 1003204f f   d3dx9dt:ccodec.obj
 0001:00031129       ?Encode@CCodec_L8@D3DXTex@@UAEXIIPAUD3DXCOLOR@@@Z 10032129 f   d3dx9dt:ccodec.obj
 0001:00031211       ?Encode@CCodec_A8L8@D3DXTex@@UAEXIIPAUD3DXCOLOR@@@Z 10032211 f   d3dx9dt:ccodec.obj
 0001:0003132c       ?Encode@CCodec_A4L4@D3DXTex@@UAEXIIPAUD3DXCOLOR@@@Z 1003232c f   d3dx9dt:ccodec.obj
 0001:0003143c       ?Encode@CCodec_L16@D3DXTex@@UAEXIIPAUD3DXCOLOR@@@Z 1003243c f   d3dx9dt:ccodec.obj
 0001:00031526       ?Encode@CCodec_V8U8@D3DXTex@@UAEXIIPAUD3DXCOLOR@@@Z 10032526 f   d3dx9dt:ccodec.obj
 0001:00031621       ?Encode@CCodec_L6V5U5@D3DXTex@@UAEXIIPAUD3DXCOLOR@@@Z 10032621 f   d3dx9dt:ccodec.obj
 0001:0003174b       ?Encode@CCodec_X8L8V8U8@D3DXTex@@UAEXIIPAUD3DXCOLOR@@@Z 1003274b f   d3dx9dt:ccodec.obj
 0001:0003187d       ?Encode@CCodec_Q8W8V8U8@D3DXTex@@UAEXIIPAUD3DXCOLOR@@@Z 1003287d f   d3dx9dt:ccodec.obj
 0001:000319dc       ?Encode@CCodec_V16U16@D3DXTex@@UAEXIIPAUD3DXCOLOR@@@Z 100329dc f   d3dx9dt:ccodec.obj
 0001:00031ad7       ?Encode@CCodec_A2W10V10U10@D3DXTex@@UAEXIIPAUD3DXCOLOR@@@Z 10032ad7 f   d3dx9dt:ccodec.obj
 0001:00031c36       ?Encode@CCodec_Q16W16V16U16@D3DXTex@@UAEXIIPAUD3DXCOLOR@@@Z 10032c36 f   d3dx9dt:ccodec.obj
 0001:00031dcd       ?Encode@CCodec_CxV8U8@D3DXTex@@UAEXIIPAUD3DXCOLOR@@@Z 10032dcd f   d3dx9dt:ccodec.obj
 0001:00031ed2       ?Encode@CCodec_D16_LOCKABLE@D3DXTex@@UAEXIIPAUD3DXCOLOR@@@Z 10032ed2 f   d3dx9dt:ccodec.obj
 0001:00031fbc       ?Encode@CCodec_D32F_LOCKABLE@D3DXTex@@UAEXIIPAUD3DXCOLOR@@@Z 10032fbc f   d3dx9dt:ccodec.obj
 0001:00032011       ?Encode@CCodec_R16F@D3DXTex@@UAEXIIPAUD3DXCOLOR@@@Z 10033011 f   d3dx9dt:ccodec.obj
 0001:00032073       ?Encode@CCodec_G16R16F@D3DXTex@@UAEXIIPAUD3DXCOLOR@@@Z 10033073 f   d3dx9dt:ccodec.obj
 0001:000320d6       ?Encode@CCodec_A16B16G16R16F@D3DXTex@@UAEXIIPAUD3DXCOLOR@@@Z 100330d6 f   d3dx9dt:ccodec.obj
 0001:0003211e       ?Encode@CCodec_R32F@D3DXTex@@UAEXIIPAUD3DXCOLOR@@@Z 1003311e f   d3dx9dt:ccodec.obj
 0001:00032173       ?Encode@CCodec_G32R32F@D3DXTex@@UAEXIIPAUD3DXCOLOR@@@Z 10033173 f   d3dx9dt:ccodec.obj
 0001:000321d0       ?Encode@CCodec_A32B32G32R32F@D3DXTex@@UAEXIIPAUD3DXCOLOR@@@Z 100331d0 f   d3dx9dt:ccodec.obj
 0001:00032223       ?Encode@CCodec_D3DX_A16L16@D3DXTex@@UAEXIIPAUD3DXCOLOR@@@Z 10033223 f   d3dx9dt:ccodec.obj
 0001:00032339       ?Encode@CCodec_D3DX_R16G16B16@D3DXTex@@UAEXIIPAUD3DXCOLOR@@@Z 10033339 f   d3dx9dt:ccodec.obj
 0001:0003244c       ?Decode@CCodec_R8G8B8@D3DXTex@@UAEXIIPAUD3DXCOLOR@@@Z 1003344c f   d3dx9dt:ccodec.obj
 0001:000324f1       ?Decode@CCodec_A8R8G8B8@D3DXTex@@UAEXIIPAUD3DXCOLOR@@@Z 100334f1 f   d3dx9dt:ccodec.obj
 0001:000325b0       ?Decode@CCodec_X8R8G8B8@D3DXTex@@UAEXIIPAUD3DXCOLOR@@@Z 100335b0 f   d3dx9dt:ccodec.obj
 0001:00032665       ?Decode@CCodec_R5G6B5@D3DXTex@@UAEXIIPAUD3DXCOLOR@@@Z 10033665 f   d3dx9dt:ccodec.obj
 0001:0003271f       ?Decode@CCodec_X1R5G5B5@D3DXTex@@UAEXIIPAUD3DXCOLOR@@@Z 1003371f f   d3dx9dt:ccodec.obj
 0001:000327d6       ?Decode@CCodec_A1R5G5B5@D3DXTex@@UAEXIIPAUD3DXCOLOR@@@Z 100337d6 f   d3dx9dt:ccodec.obj
 0001:0003289b       ?Decode@CCodec_A4R4G4B4@D3DXTex@@UAEXIIPAUD3DXCOLOR@@@Z 1003389b f   d3dx9dt:ccodec.obj
 0001:0003295f       ?Decode@CCodec_A2B10G10R10@D3DXTex@@UAEXIIPAUD3DXCOLOR@@@Z 1003395f f   d3dx9dt:ccodec.obj
 0001:00032a4e       ?Decode@CCodec_A8B8G8R8@D3DXTex@@UAEXIIPAUD3DXCOLOR@@@Z 10033a4e f   d3dx9dt:ccodec.obj
 0001:00032b0d       ?Decode@CCodec_X8B8G8R8@D3DXTex@@UAEXIIPAUD3DXCOLOR@@@Z 10033b0d f   d3dx9dt:ccodec.obj
 0001:00032bc2       ?Decode@CCodec_G16R16@D3DXTex@@UAEXIIPAUD3DXCOLOR@@@Z 10033bc2 f   d3dx9dt:ccodec.obj
 0001:00032c6d       ?Decode@CCodec_A2R10G10B10@D3DXTex@@UAEXIIPAUD3DXCOLOR@@@Z 10033c6d f   d3dx9dt:ccodec.obj
 0001:00032d5c       ?Decode@CCodec_A16B16G16R16@D3DXTex@@UAEXIIPAUD3DXCOLOR@@@Z 10033d5c f   d3dx9dt:ccodec.obj
 0001:00032e63       ?Decode@CCodec_R3G3B2@D3DXTex@@UAEXIIPAUD3DXCOLOR@@@Z 10033e63 f   d3dx9dt:ccodec.obj
 0001:00032f1a       ?Decode@CCodec_A8@D3DXTex@@UAEXIIPAUD3DXCOLOR@@@Z 10033f1a f   d3dx9dt:ccodec.obj
 0001:00032fa5       ?Decode@CCodec_A8R3G3B2@D3DXTex@@UAEXIIPAUD3DXCOLOR@@@Z 10033fa5 f   d3dx9dt:ccodec.obj
 0001:0003306c       ??0CCodec_R8G8B8@D3DXTex@@QAE@PAUD3DX_BLT@@@Z 1003406c f i d3dx9dt:ccodec.obj
 0001:0003308b       ??_ECCodec_R8G8B8@D3DXTex@@UAEPAXI@Z 1003408b f i d3dx9dt:ccodec.obj
 0001:0003308b       ??_GCCodec_R8G8B8@D3DXTex@@UAEPAXI@Z 1003408b f i d3dx9dt:ccodec.obj
 0001:000330aa       ?Decode@CCodec_X4R4G4B4@D3DXTex@@UAEXIIPAUD3DXCOLOR@@@Z 100340aa f   d3dx9dt:ccodec.obj
 0001:0003315e       ??0CCodec_A8R8G8B8@D3DXTex@@QAE@PAUD3DX_BLT@@@Z 1003415e f i d3dx9dt:ccodec.obj
 0001:0003317d       ??_GCCodec_A8R8G8B8@D3DXTex@@UAEPAXI@Z 1003417d f i d3dx9dt:ccodec.obj
 0001:0003317d       ??_ECCodec_A8R8G8B8@D3DXTex@@UAEPAXI@Z 1003417d f i d3dx9dt:ccodec.obj
 0001:0003319c       ?Decode@CCodec_A8P8@D3DXTex@@UAEXIIPAUD3DXCOLOR@@@Z 1003419c f   d3dx9dt:ccodec.obj
 0001:00033239       ??0CCodec_X8R8G8B8@D3DXTex@@QAE@PAUD3DX_BLT@@@Z 10034239 f i d3dx9dt:ccodec.obj
 0001:00033258       ??_ECCodec_X8R8G8B8@D3DXTex@@UAEPAXI@Z 10034258 f i d3dx9dt:ccodec.obj
 0001:00033258       ??_GCCodec_X8R8G8B8@D3DXTex@@UAEPAXI@Z 10034258 f i d3dx9dt:ccodec.obj
 0001:00033277       ??0CCodec_R5G6B5@D3DXTex@@QAE@PAUD3DX_BLT@@@Z 10034277 f i d3dx9dt:ccodec.obj
 0001:00033296       ?Decode@CCodec_P8@D3DXTex@@UAEXIIPAUD3DXCOLOR@@@Z 10034296 f   d3dx9dt:ccodec.obj
 0001:00033313       ??_GCCodec_R5G6B5@D3DXTex@@UAEPAXI@Z 10034313 f i d3dx9dt:ccodec.obj
 0001:00033313       ??_ECCodec_R5G6B5@D3DXTex@@UAEPAXI@Z 10034313 f i d3dx9dt:ccodec.obj
 0001:00033332       ??0CCodec_X1R5G5B5@D3DXTex@@QAE@PAUD3DX_BLT@@@Z 10034332 f i d3dx9dt:ccodec.obj
 0001:00033351       ?Decode@CCodec_L8@D3DXTex@@UAEXIIPAUD3DXCOLOR@@@Z 10034351 f   d3dx9dt:ccodec.obj
 0001:000333d8       ??_ECCodec_X1R5G5B5@D3DXTex@@UAEPAXI@Z 100343d8 f i d3dx9dt:ccodec.obj
 0001:000333d8       ??_GCCodec_X1R5G5B5@D3DXTex@@UAEPAXI@Z 100343d8 f i d3dx9dt:ccodec.obj
 0001:000333f7       ??0CCodec_A1R5G5B5@D3DXTex@@QAE@PAUD3DX_BLT@@@Z 100343f7 f i d3dx9dt:ccodec.obj
 0001:00033416       ?Decode@CCodec_A8L8@D3DXTex@@UAEXIIPAUD3DXCOLOR@@@Z 10034416 f   d3dx9dt:ccodec.obj
 0001:000334b4       ??_ECCodec_A1R5G5B5@D3DXTex@@UAEPAXI@Z 100344b4 f i d3dx9dt:ccodec.obj
 0001:000334b4       ??_GCCodec_A1R5G5B5@D3DXTex@@UAEPAXI@Z 100344b4 f i d3dx9dt:ccodec.obj
 0001:000334d3       ??0CCodec_A4R4G4B4@D3DXTex@@QAE@PAUD3DX_BLT@@@Z 100344d3 f i d3dx9dt:ccodec.obj
 0001:000334f2       ?Decode@CCodec_A4L4@D3DXTex@@UAEXIIPAUD3DXCOLOR@@@Z 100344f2 f   d3dx9dt:ccodec.obj
 0001:00033590       ??_ECCodec_A4R4G4B4@D3DXTex@@UAEPAXI@Z 10034590 f i d3dx9dt:ccodec.obj
 0001:00033590       ??_GCCodec_A4R4G4B4@D3DXTex@@UAEPAXI@Z 10034590 f i d3dx9dt:ccodec.obj
 0001:000335af       ??0CCodec_R3G3B2@D3DXTex@@QAE@PAUD3DX_BLT@@@Z 100345af f i d3dx9dt:ccodec.obj
 0001:000335ce       ??_GCCodec_R3G3B2@D3DXTex@@UAEPAXI@Z 100345ce f i d3dx9dt:ccodec.obj
 0001:000335ce       ??_ECCodec_R3G3B2@D3DXTex@@UAEPAXI@Z 100345ce f i d3dx9dt:ccodec.obj
 0001:000335ed       ?Decode@CCodec_L16@D3DXTex@@UAEXIIPAUD3DXCOLOR@@@Z 100345ed f   d3dx9dt:ccodec.obj
 0001:00033676       ??0CCodec_A8@D3DXTex@@QAE@PAUD3DX_BLT@@@Z 10034676 f i d3dx9dt:ccodec.obj
 0001:00033695       ??_ECCodec_A8@D3DXTex@@UAEPAXI@Z 10034695 f i d3dx9dt:ccodec.obj
 0001:00033695       ??_GCCodec_A8@D3DXTex@@UAEPAXI@Z 10034695 f i d3dx9dt:ccodec.obj
 0001:000336b4       ?Decode@CCodec_V8U8@D3DXTex@@UAEXIIPAUD3DXCOLOR@@@Z 100346b4 f   d3dx9dt:ccodec.obj
 0001:0003376f       ??0CCodec_A8R3G3B2@D3DXTex@@QAE@PAUD3DX_BLT@@@Z 1003476f f i d3dx9dt:ccodec.obj
 0001:0003378e       ??_GCCodec_A8R3G3B2@D3DXTex@@UAEPAXI@Z 1003478e f i d3dx9dt:ccodec.obj
 0001:0003378e       ??_ECCodec_A8R3G3B2@D3DXTex@@UAEPAXI@Z 1003478e f i d3dx9dt:ccodec.obj
 0001:000337ad       ??0CCodec_X4R4G4B4@D3DXTex@@QAE@PAUD3DX_BLT@@@Z 100347ad f i d3dx9dt:ccodec.obj
 0001:000337cc       ?Decode@CCodec_L6V5U5@D3DXTex@@UAEXIIPAUD3DXCOLOR@@@Z 100347cc f   d3dx9dt:ccodec.obj
 0001:000338ac       ??_ECCodec_X4R4G4B4@D3DXTex@@UAEPAXI@Z 100348ac f i d3dx9dt:ccodec.obj
 0001:000338ac       ??_GCCodec_X4R4G4B4@D3DXTex@@UAEPAXI@Z 100348ac f i d3dx9dt:ccodec.obj
 0001:000338cb       ??0CCodec_A2B10G10R10@D3DXTex@@QAE@PAUD3DX_BLT@@@Z 100348cb f i d3dx9dt:ccodec.obj
 0001:000338ea       ??_ECCodec_A2B10G10R10@D3DXTex@@UAEPAXI@Z 100348ea f i d3dx9dt:ccodec.obj
 0001:000338ea       ??_GCCodec_A2B10G10R10@D3DXTex@@UAEPAXI@Z 100348ea f i d3dx9dt:ccodec.obj
 0001:00033909       ?Decode@CCodec_X8L8V8U8@D3DXTex@@UAEXIIPAUD3DXCOLOR@@@Z 10034909 f   d3dx9dt:ccodec.obj
 0001:000339d5       ??0CCodec_A8B8G8R8@D3DXTex@@QAE@PAUD3DX_BLT@@@Z 100349d5 f i d3dx9dt:ccodec.obj
 0001:000339f4       ??_GCCodec_A8B8G8R8@D3DXTex@@UAEPAXI@Z 100349f4 f i d3dx9dt:ccodec.obj
 0001:000339f4       ??_ECCodec_A8B8G8R8@D3DXTex@@UAEPAXI@Z 100349f4 f i d3dx9dt:ccodec.obj
 0001:00033a13       ??0CCodec_X8B8G8R8@D3DXTex@@QAE@PAUD3DX_BLT@@@Z 10034a13 f i d3dx9dt:ccodec.obj
 0001:00033a32       ?Decode@CCodec_Q8W8V8U8@D3DXTex@@UAEXIIPAUD3DXCOLOR@@@Z 10034a32 f   d3dx9dt:ccodec.obj
 0001:00033b2d       ??_GCCodec_X8B8G8R8@D3DXTex@@UAEPAXI@Z 10034b2d f i d3dx9dt:ccodec.obj
 0001:00033b2d       ??_ECCodec_X8B8G8R8@D3DXTex@@UAEPAXI@Z 10034b2d f i d3dx9dt:ccodec.obj
 0001:00033b4c       ??0CCodec_G16R16@D3DXTex@@QAE@PAUD3DX_BLT@@@Z 10034b4c f i d3dx9dt:ccodec.obj
 0001:00033b6b       ??_GCCodec_G16R16@D3DXTex@@UAEPAXI@Z 10034b6b f i d3dx9dt:ccodec.obj
 0001:00033b6b       ??_ECCodec_G16R16@D3DXTex@@UAEPAXI@Z 10034b6b f i d3dx9dt:ccodec.obj
 0001:00033b8a       ?Decode@CCodec_V16U16@D3DXTex@@UAEXIIPAUD3DXCOLOR@@@Z 10034b8a f   d3dx9dt:ccodec.obj
 0001:00033c4c       ??0CCodec_A2R10G10B10@D3DXTex@@QAE@PAUD3DX_BLT@@@Z 10034c4c f i d3dx9dt:ccodec.obj
 0001:00033c6b       ??_ECCodec_A2R10G10B10@D3DXTex@@UAEPAXI@Z 10034c6b f i d3dx9dt:ccodec.obj
 0001:00033c6b       ??_GCCodec_A2R10G10B10@D3DXTex@@UAEPAXI@Z 10034c6b f i d3dx9dt:ccodec.obj
 0001:00033c8a       ??0CCodec_A16B16G16R16@D3DXTex@@QAE@PAUD3DX_BLT@@@Z 10034c8a f i d3dx9dt:ccodec.obj
 0001:00033ca9       ??_ECCodec_A16B16G16R16@D3DXTex@@UAEPAXI@Z 10034ca9 f i d3dx9dt:ccodec.obj
 0001:00033ca9       ??_GCCodec_A16B16G16R16@D3DXTex@@UAEPAXI@Z 10034ca9 f i d3dx9dt:ccodec.obj
 0001:00033cc8       ?Decode@CCodec_A2W10V10U10@D3DXTex@@UAEXIIPAUD3DXCOLOR@@@Z 10034cc8 f   d3dx9dt:ccodec.obj
 0001:00033de1       ??0CCodec_A8P8@D3DXTex@@QAE@PAUD3DX_BLT@@@Z 10034de1 f i d3dx9dt:ccodec.obj
 0001:00033e00       ??_GCCodec_A8P8@D3DXTex@@UAEPAXI@Z 10034e00 f i d3dx9dt:ccodec.obj
 0001:00033e00       ??_ECCodec_A8P8@D3DXTex@@UAEPAXI@Z 10034e00 f i d3dx9dt:ccodec.obj
 0001:00033e1f       ??0CCodec_P8@D3DXTex@@QAE@PAUD3DX_BLT@@@Z 10034e1f f i d3dx9dt:ccodec.obj
 0001:00033e3e       ?Decode@CCodec_Q16W16V16U16@D3DXTex@@UAEXIIPAUD3DXCOLOR@@@Z 10034e3e f   d3dx9dt:ccodec.obj
 0001:00033f55       ??_ECCodec_P8@D3DXTex@@UAEPAXI@Z 10034f55 f i d3dx9dt:ccodec.obj
 0001:00033f55       ??_GCCodec_P8@D3DXTex@@UAEPAXI@Z 10034f55 f i d3dx9dt:ccodec.obj
 0001:00033f74       ??0CCodec_L8@D3DXTex@@QAE@PAUD3DX_BLT@@@Z 10034f74 f i d3dx9dt:ccodec.obj
 0001:00033f93       ??_ECCodec_L8@D3DXTex@@UAEPAXI@Z 10034f93 f i d3dx9dt:ccodec.obj
 0001:00033f93       ??_GCCodec_L8@D3DXTex@@UAEPAXI@Z 10034f93 f i d3dx9dt:ccodec.obj
 0001:00033fb2       ?Decode@CCodec_CxV8U8@D3DXTex@@UAEXIIPAUD3DXCOLOR@@@Z 10034fb2 f   d3dx9dt:ccodec.obj
 0001:00034093       ??0CCodec_A8L8@D3DXTex@@QAE@PAUD3DX_BLT@@@Z 10035093 f i d3dx9dt:ccodec.obj
 0001:000340b2       ??_ECCodec_A8L8@D3DXTex@@UAEPAXI@Z 100350b2 f i d3dx9dt:ccodec.obj
 0001:000340b2       ??_GCCodec_A8L8@D3DXTex@@UAEPAXI@Z 100350b2 f i d3dx9dt:ccodec.obj
 0001:000340d1       ??0CCodec_A4L4@D3DXTex@@QAE@PAUD3DX_BLT@@@Z 100350d1 f i d3dx9dt:ccodec.obj
 0001:000340f0       ??_GCCodec_A4L4@D3DXTex@@UAEPAXI@Z 100350f0 f i d3dx9dt:ccodec.obj
 0001:000340f0       ??_ECCodec_A4L4@D3DXTex@@UAEPAXI@Z 100350f0 f i d3dx9dt:ccodec.obj
 0001:0003410f       ?Decode@CCodec_D16_LOCKABLE@D3DXTex@@UAEXIIPAUD3DXCOLOR@@@Z 1003510f f   d3dx9dt:ccodec.obj
 0001:00034198       ??0CCodec_L16@D3DXTex@@QAE@PAUD3DX_BLT@@@Z 10035198 f i d3dx9dt:ccodec.obj
 0001:000341b7       ??_ECCodec_L16@D3DXTex@@UAEPAXI@Z 100351b7 f i d3dx9dt:ccodec.obj
 0001:000341b7       ??_GCCodec_L16@D3DXTex@@UAEPAXI@Z 100351b7 f i d3dx9dt:ccodec.obj
 0001:000341d6       ?Decode@CCodec_D32F_LOCKABLE@D3DXTex@@UAEXIIPAUD3DXCOLOR@@@Z 100351d6 f   d3dx9dt:ccodec.obj
 0001:00034257       ??0CCodec_V8U8@D3DXTex@@QAE@PAUD3DX_BLT@@@Z 10035257 f i d3dx9dt:ccodec.obj
 0001:00034276       ??_ECCodec_V8U8@D3DXTex@@UAEPAXI@Z 10035276 f i d3dx9dt:ccodec.obj
 0001:00034276       ??_GCCodec_V8U8@D3DXTex@@UAEPAXI@Z 10035276 f i d3dx9dt:ccodec.obj
 0001:00034295       ?Decode@CCodec_R16F@D3DXTex@@UAEXIIPAUD3DXCOLOR@@@Z 10035295 f   d3dx9dt:ccodec.obj
 0001:00034326       ??0CCodec_L6V5U5@D3DXTex@@QAE@PAUD3DX_BLT@@@Z 10035326 f i d3dx9dt:ccodec.obj
 0001:00034345       ??_ECCodec_L6V5U5@D3DXTex@@UAEPAXI@Z 10035345 f i d3dx9dt:ccodec.obj
 0001:00034345       ??_GCCodec_L6V5U5@D3DXTex@@UAEPAXI@Z 10035345 f i d3dx9dt:ccodec.obj
 0001:00034364       ??0CCodec_X8L8V8U8@D3DXTex@@QAE@PAUD3DX_BLT@@@Z 10035364 f i d3dx9dt:ccodec.obj
 0001:00034383       ?Decode@CCodec_G16R16F@D3DXTex@@UAEXIIPAUD3DXCOLOR@@@Z 10035383 f   d3dx9dt:ccodec.obj
 0001:00034410       ??_ECCodec_X8L8V8U8@D3DXTex@@UAEPAXI@Z 10035410 f i d3dx9dt:ccodec.obj
 0001:00034410       ??_GCCodec_X8L8V8U8@D3DXTex@@UAEPAXI@Z 10035410 f i d3dx9dt:ccodec.obj
 0001:0003442f       ??0CCodec_Q8W8V8U8@D3DXTex@@QAE@PAUD3DX_BLT@@@Z 1003542f f i d3dx9dt:ccodec.obj
 0001:0003444e       ?Decode@CCodec_A16B16G16R16F@D3DXTex@@UAEXIIPAUD3DXCOLOR@@@Z 1003544e f   d3dx9dt:ccodec.obj
 0001:000344a5       ??_GCCodec_Q8W8V8U8@D3DXTex@@UAEPAXI@Z 100354a5 f i d3dx9dt:ccodec.obj
 0001:000344a5       ??_ECCodec_Q8W8V8U8@D3DXTex@@UAEPAXI@Z 100354a5 f i d3dx9dt:ccodec.obj
 0001:000344c4       ?Decode@CCodec_R32F@D3DXTex@@UAEXIIPAUD3DXCOLOR@@@Z 100354c4 f   d3dx9dt:ccodec.obj
 0001:00034545       ??0CCodec_V16U16@D3DXTex@@QAE@PAUD3DX_BLT@@@Z 10035545 f i d3dx9dt:ccodec.obj
 0001:00034564       ??_GCCodec_V16U16@D3DXTex@@UAEPAXI@Z 10035564 f i d3dx9dt:ccodec.obj
 0001:00034564       ??_ECCodec_V16U16@D3DXTex@@UAEPAXI@Z 10035564 f i d3dx9dt:ccodec.obj
 0001:00034583       ?Decode@CCodec_G32R32F@D3DXTex@@UAEXIIPAUD3DXCOLOR@@@Z 10035583 f   d3dx9dt:ccodec.obj
 0001:00034605       ?Decode@CCodec_A32B32G32R32F@D3DXTex@@UAEXIIPAUD3DXCOLOR@@@Z 10035605 f   d3dx9dt:ccodec.obj
 0001:00034667       ?Decode@CCodec_D3DX_A16L16@D3DXTex@@UAEXIIPAUD3DXCOLOR@@@Z 10035667 f   d3dx9dt:ccodec.obj
 0001:0003470e       ??0CCodec_A2W10V10U10@D3DXTex@@QAE@PAUD3DX_BLT@@@Z 1003570e f i d3dx9dt:ccodec.obj
 0001:0003472d       ??_GCCodec_A2W10V10U10@D3DXTex@@UAEPAXI@Z 1003572d f i d3dx9dt:ccodec.obj
 0001:0003472d       ??_ECCodec_A2W10V10U10@D3DXTex@@UAEPAXI@Z 1003572d f i d3dx9dt:ccodec.obj
 0001:0003474c       ??0CCodec_Q16W16V16U16@D3DXTex@@QAE@PAUD3DX_BLT@@@Z 1003574c f i d3dx9dt:ccodec.obj
 0001:0003476b       ?Decode@CCodec_D3DX_R16G16B16@D3DXTex@@UAEXIIPAUD3DXCOLOR@@@Z 1003576b f   d3dx9dt:ccodec.obj
 0001:00034810       ??_GCCodec_Q16W16V16U16@D3DXTex@@UAEPAXI@Z 10035810 f i d3dx9dt:ccodec.obj
 0001:00034810       ??_ECCodec_Q16W16V16U16@D3DXTex@@UAEPAXI@Z 10035810 f i d3dx9dt:ccodec.obj
 0001:0003482f       ??0CCodec_CxV8U8@D3DXTex@@QAE@PAUD3DX_BLT@@@Z 1003582f f i d3dx9dt:ccodec.obj
 0001:0003484e       ??_ECCodec_CxV8U8@D3DXTex@@UAEPAXI@Z 1003584e f i d3dx9dt:ccodec.obj
 0001:0003484e       ??_GCCodec_CxV8U8@D3DXTex@@UAEPAXI@Z 1003584e f i d3dx9dt:ccodec.obj
 0001:0003486d       ??0CCodecYUV@D3DXTex@@QAE@PAUD3DX_BLT@@@Z 1003586d f   d3dx9dt:ccodec.obj
 0001:0003495f       ??0CCodec_D16_LOCKABLE@D3DXTex@@QAE@PAUD3DX_BLT@@@Z 1003595f f i d3dx9dt:ccodec.obj
 0001:0003497e       ??_GCCodec_D16_LOCKABLE@D3DXTex@@UAEPAXI@Z 1003597e f i d3dx9dt:ccodec.obj
 0001:0003497e       ??_ECCodec_D16_LOCKABLE@D3DXTex@@UAEPAXI@Z 1003597e f i d3dx9dt:ccodec.obj
 0001:0003499d       ??0CCodec_D32F_LOCKABLE@D3DXTex@@QAE@PAUD3DX_BLT@@@Z 1003599d f i d3dx9dt:ccodec.obj
 0001:000349bc       ??_ECCodec_D32F_LOCKABLE@D3DXTex@@UAEPAXI@Z 100359bc f i d3dx9dt:ccodec.obj
 0001:000349bc       ??_GCCodec_D32F_LOCKABLE@D3DXTex@@UAEPAXI@Z 100359bc f i d3dx9dt:ccodec.obj
 0001:000349db       ??0CCodec_R16F@D3DXTex@@QAE@PAUD3DX_BLT@@@Z 100359db f i d3dx9dt:ccodec.obj
 0001:000349fa       ??_GCCodec_R16F@D3DXTex@@UAEPAXI@Z 100359fa f i d3dx9dt:ccodec.obj
 0001:000349fa       ??_ECCodec_R16F@D3DXTex@@UAEPAXI@Z 100359fa f i d3dx9dt:ccodec.obj
 0001:00034a19       ?Commit@CCodecYUV@D3DXTex@@QAEJXZ 10035a19 f   d3dx9dt:ccodec.obj
 0001:00034d29       ??0CCodec_G16R16F@D3DXTex@@QAE@PAUD3DX_BLT@@@Z 10035d29 f i d3dx9dt:ccodec.obj
 0001:00034d48       ??_GCCodec_G16R16F@D3DXTex@@UAEPAXI@Z 10035d48 f i d3dx9dt:ccodec.obj
 0001:00034d48       ??_ECCodec_G16R16F@D3DXTex@@UAEPAXI@Z 10035d48 f i d3dx9dt:ccodec.obj
 0001:00034d67       ??0CCodec_A16B16G16R16F@D3DXTex@@QAE@PAUD3DX_BLT@@@Z 10035d67 f i d3dx9dt:ccodec.obj
 0001:00034d86       ??_GCCodec_A16B16G16R16F@D3DXTex@@UAEPAXI@Z 10035d86 f i d3dx9dt:ccodec.obj
 0001:00034d86       ??_ECCodec_A16B16G16R16F@D3DXTex@@UAEPAXI@Z 10035d86 f i d3dx9dt:ccodec.obj
 0001:00034da5       ??0CCodec_R32F@D3DXTex@@QAE@PAUD3DX_BLT@@@Z 10035da5 f i d3dx9dt:ccodec.obj
 0001:00034dc4       ??_ECCodec_R32F@D3DXTex@@UAEPAXI@Z 10035dc4 f i d3dx9dt:ccodec.obj
 0001:00034dc4       ??_GCCodec_R32F@D3DXTex@@UAEPAXI@Z 10035dc4 f i d3dx9dt:ccodec.obj
 0001:00034de3       ??0CCodec_G32R32F@D3DXTex@@QAE@PAUD3DX_BLT@@@Z 10035de3 f i d3dx9dt:ccodec.obj
 0001:00034e02       ??_GCCodec_G32R32F@D3DXTex@@UAEPAXI@Z 10035e02 f i d3dx9dt:ccodec.obj
 0001:00034e02       ??_ECCodec_G32R32F@D3DXTex@@UAEPAXI@Z 10035e02 f i d3dx9dt:ccodec.obj
 0001:00034e21       ?Fetch@CCodecYUV@D3DXTex@@QAEJIIH@Z 10035e21 f   d3dx9dt:ccodec.obj
 0001:000351ed       ??0CCodec_A32B32G32R32F@D3DXTex@@QAE@PAUD3DX_BLT@@@Z 100361ed f i d3dx9dt:ccodec.obj
 0001:0003520f       ??_GCCodec_A32B32G32R32F@D3DXTex@@UAEPAXI@Z 1003620f f i d3dx9dt:ccodec.obj
 0001:0003520f       ??_ECCodec_A32B32G32R32F@D3DXTex@@UAEPAXI@Z 1003620f f i d3dx9dt:ccodec.obj
 0001:0003522e       ??0CCodec_D3DX_A16L16@D3DXTex@@QAE@PAUD3DX_BLT@@@Z 1003622e f i d3dx9dt:ccodec.obj
 0001:0003524d       ??_ECCodec_D3DX_A16L16@D3DXTex@@UAEPAXI@Z 1003624d f i d3dx9dt:ccodec.obj
 0001:0003524d       ??_GCCodec_D3DX_A16L16@D3DXTex@@UAEPAXI@Z 1003624d f i d3dx9dt:ccodec.obj
 0001:0003526c       ??0CCodec_D3DX_R16G16B16@D3DXTex@@QAE@PAUD3DX_BLT@@@Z 1003626c f i d3dx9dt:ccodec.obj
 0001:0003528b       ??_ECCodec_D3DX_R16G16B16@D3DXTex@@UAEPAXI@Z 1003628b f i d3dx9dt:ccodec.obj
 0001:0003528b       ??_GCCodec_D3DX_R16G16B16@D3DXTex@@UAEPAXI@Z 1003628b f i d3dx9dt:ccodec.obj
 0001:000352aa       ?Encode@CCodecYUV@D3DXTex@@UAEXIIPAUD3DXCOLOR@@@Z 100362aa f   d3dx9dt:ccodec.obj
 0001:00035348       ?Decode@CCodecYUV@D3DXTex@@UAEXIIPAUD3DXCOLOR@@@Z 10036348 f   d3dx9dt:ccodec.obj
 0001:000353c7       ??0CCodecDXT@D3DXTex@@QAE@PAUD3DX_BLT@@@Z 100363c7 f   d3dx9dt:ccodec.obj
 0001:000355b6       ??0CCodec_DXT3@D3DXTex@@QAE@PAUD3DX_BLT@@@Z 100365b6 f i d3dx9dt:ccodec.obj
 0001:000355d1       ??0CCodec_DXT4@D3DXTex@@QAE@PAUD3DX_BLT@@@Z 100365d1 f i d3dx9dt:ccodec.obj
 0001:000355ec       ??0CCodec_DXT5@D3DXTex@@QAE@PAUD3DX_BLT@@@Z 100365ec f i d3dx9dt:ccodec.obj
 0001:00035607       ??_GCCodecDXT@D3DXTex@@UAEPAXI@Z 10036607 f i d3dx9dt:ccodec.obj
 0001:00035607       ??_ECCodecDXT@D3DXTex@@UAEPAXI@Z 10036607 f i d3dx9dt:ccodec.obj
 0001:00035626       ?Encode@CCodecDXT@D3DXTex@@UAEXIIPAUD3DXCOLOR@@@Z 10036626 f   d3dx9dt:ccodec.obj
 0001:00035a6b       ?Decode@CCodecDXT@D3DXTex@@UAEXIIPAUD3DXCOLOR@@@Z 10036a6b f   d3dx9dt:ccodec.obj
 0001:00035d2a       ??1CCodecYUV@D3DXTex@@UAE@XZ 10036d2a f   d3dx9dt:ccodec.obj
 0001:00035d51       ??0CCodec_UYVY@D3DXTex@@QAE@PAUD3DX_BLT@@@Z 10036d51 f i d3dx9dt:ccodec.obj
 0001:00035d6c       ??0CCodec_G8R8_G8B8@D3DXTex@@QAE@PAUD3DX_BLT@@@Z 10036d6c f i d3dx9dt:ccodec.obj
 0001:00035d87       ??0CCodec_YUY2@D3DXTex@@QAE@PAUD3DX_BLT@@@Z 10036d87 f i d3dx9dt:ccodec.obj
 0001:00035da2       ??0CCodec_R8G8_B8G8@D3DXTex@@QAE@PAUD3DX_BLT@@@Z 10036da2 f i d3dx9dt:ccodec.obj
 0001:00035dbd       ??0CCodec_DXT1@D3DXTex@@QAE@PAUD3DX_BLT@@@Z 10036dbd f i d3dx9dt:ccodec.obj
 0001:00035dd8       ??_ECCodec_DXT1@D3DXTex@@UAEPAXI@Z 10036dd8 f i d3dx9dt:ccodec.obj
 0001:00035dd8       ??_GCCodec_DXT1@D3DXTex@@UAEPAXI@Z 10036dd8 f i d3dx9dt:ccodec.obj
 0001:00035df7       ??0CCodec_DXT2@D3DXTex@@QAE@PAUD3DX_BLT@@@Z 10036df7 f i d3dx9dt:ccodec.obj
 0001:00035e12       ??_GCCodec_DXT2@D3DXTex@@UAEPAXI@Z 10036e12 f i d3dx9dt:ccodec.obj
 0001:00035e12       ??_ECCodec_DXT2@D3DXTex@@UAEPAXI@Z 10036e12 f i d3dx9dt:ccodec.obj
 0001:00035e31       ??_ECCodec_DXT3@D3DXTex@@UAEPAXI@Z 10036e31 f i d3dx9dt:ccodec.obj
 0001:00035e31       ??_GCCodec_DXT3@D3DXTex@@UAEPAXI@Z 10036e31 f i d3dx9dt:ccodec.obj
 0001:00035e50       ??_GCCodec_DXT4@D3DXTex@@UAEPAXI@Z 10036e50 f i d3dx9dt:ccodec.obj
 0001:00035e50       ??_ECCodec_DXT4@D3DXTex@@UAEPAXI@Z 10036e50 f i d3dx9dt:ccodec.obj
 0001:00035e6f       ??_ECCodec_DXT5@D3DXTex@@UAEPAXI@Z 10036e6f f i d3dx9dt:ccodec.obj
 0001:00035e6f       ??_GCCodec_DXT5@D3DXTex@@UAEPAXI@Z 10036e6f f i d3dx9dt:ccodec.obj
 0001:00035e8e       ?Create@CCodec@D3DXTex@@SGPAV12@PAUD3DX_BLT@@@Z 10036e8e f   d3dx9dt:ccodec.obj
 0001:0003663d       ??_ECCodecYUV@D3DXTex@@UAEPAXI@Z 1003763d f i d3dx9dt:ccodec.obj
 0001:0003663d       ??_GCCodecYUV@D3DXTex@@UAEPAXI@Z 1003763d f i d3dx9dt:ccodec.obj
 0001:0003665c       ??_ECCodec_UYVY@D3DXTex@@UAEPAXI@Z 1003765c f i d3dx9dt:ccodec.obj
 0001:0003665c       ??_GCCodec_UYVY@D3DXTex@@UAEPAXI@Z 1003765c f i d3dx9dt:ccodec.obj
 0001:0003667b       ??_ECCodec_G8R8_G8B8@D3DXTex@@UAEPAXI@Z 1003767b f i d3dx9dt:ccodec.obj
 0001:0003667b       ??_GCCodec_G8R8_G8B8@D3DXTex@@UAEPAXI@Z 1003767b f i d3dx9dt:ccodec.obj
 0001:0003669a       ??_ECCodec_YUY2@D3DXTex@@UAEPAXI@Z 1003769a f i d3dx9dt:ccodec.obj
 0001:0003669a       ??_GCCodec_YUY2@D3DXTex@@UAEPAXI@Z 1003769a f i d3dx9dt:ccodec.obj
 0001:000366b9       ??_ECCodec_R8G8_B8G8@D3DXTex@@UAEPAXI@Z 100376b9 f i d3dx9dt:ccodec.obj
 0001:000366b9       ??_GCCodec_R8G8_B8G8@D3DXTex@@UAEPAXI@Z 100376b9 f i d3dx9dt:ccodec.obj
 0001:00036c79       ?FXLGetArguments@D3DXShader@@YGJKPAN0PAPAX000AAPAKPAPANKKKKKKH@Z 10037c79 f i d3dx9dt:fxlvm.obj
 0001:00036dcb       ?FXLPreSort@D3DXShader@@YGJPAXPAPAK1@Z 10037dcb f   d3dx9dt:fxlvm.obj
 0001:00036ec1       ?FXLExecutePreSort@D3DXShader@@YGJPAK0PAN1PAPAX1KKKK@Z 10037ec1 f   d3dx9dt:fxlvm.obj
 0001:0003748f       ?FXLExecute@D3DXShader@@YGJPAXPAN1PAPAX1KKKK@Z 1003848f f   d3dx9dt:fxlvm.obj
 0001:000374ce       ??0CFile@D3DXCore@@QAE@XZ  100384ce f   d3dx9dt:cfile.obj
 0001:000374e0       ?Open@CFile@D3DXCore@@QAEJPBXH@Z 100384e0 f   d3dx9dt:cfile.obj
 0001:00037647       ?Create@CFile@D3DXCore@@QAEJPBXH@Z 10038647 f   d3dx9dt:cfile.obj
 0001:00037765       ?Close@CFile@D3DXCore@@QAEJXZ 10038765 f   d3dx9dt:cfile.obj
 0001:000377a6       ??1CFile@D3DXCore@@QAE@XZ  100387a6 f   d3dx9dt:cfile.obj
 0001:000377b1       ??0CResource@D3DXCore@@QAE@XZ 100387b1 f   d3dx9dt:cresource.obj
 0001:000377be       ??1CResource@D3DXCore@@QAE@XZ 100387be f   d3dx9dt:cresource.obj
 0001:000377cc       ?Close@CResource@D3DXCore@@QAEJXZ 100387cc f   d3dx9dt:cresource.obj
 0001:000377eb       ?Open@CResource@D3DXCore@@QAEJPAUHINSTANCE__@@PBXHH@Z 100387eb f   d3dx9dt:cresource.obj
 0001:00037a56       ?sse_D3DXInitFastTable@@YAXPAUD3DXFASTTABLE@@@Z 10038a56 f   d3dx9dt:ssefasttable.obj
 0001:00037bc7       ?intel_D3DXInitFastTable@@YGXPAUD3DXFASTTABLE@@@Z 10038bc7 f   d3dx9dt:ssefasttable.obj
 0001:00037bfc       ?sse2_D3DXInitFastTable@@YAXPAUD3DXFASTTABLE@@@Z 10038bfc f   d3dx9dt:ssefasttable2.obj
 0001:00037d63       ?get_feature_flags@@YGIXZ  10038d63 f   d3dx9dt:d3dxmathx3d.obj
 0001:00037e47       ?x3d_D3DXInitFastTable@@YAXPAUD3DXFASTTABLE@@@Z 10038e47 f   d3dx9dt:d3dxmathx3d.obj
 0001:000380d8       ?x86_D3DXVec2Transform@@YGPAUD3DXVECTOR4@@PAU1@PBUD3DXVECTOR2@@PBUD3DXMATRIX@@@Z 100390d8 f   d3dx9dt:d3dxmathx86.obj
 0001:00038156       ?x86_D3DXVec2TransformNormal@@YGPAUD3DXVECTOR2@@PAU1@PBU1@PBUD3DXMATRIX@@@Z 10039156 f   d3dx9dt:d3dxmathx86.obj
 0001:000381a0       ?x86_D3DXVec3Transform@@YGPAUD3DXVECTOR4@@PAU1@PBUD3DXVECTOR3@@PBUD3DXMATRIX@@@Z 100391a0 f   d3dx9dt:d3dxmathx86.obj
 0001:0003824c       ?x86_D3DXVec3TransformNormal@@YGPAUD3DXVECTOR3@@PAU1@PBU1@PBUD3DXMATRIX@@@Z 1003924c f   d3dx9dt:d3dxmathx86.obj
 0001:000382c0       ?x86_D3DXVec4Transform@@YGPAUD3DXVECTOR4@@PAU1@PBU1@PBUD3DXMATRIX@@@Z 100392c0 f   d3dx9dt:d3dxmathx86.obj
 0001:0003837a       ?TableInvSqrt@@YIMM@Z      1003937a f   d3dx9dt:d3dxmathx86.obj
 0001:000383bf       ?x86_D3DXVec3Normalize@@YGPAUD3DXVECTOR3@@PAU1@PBU1@@Z 100393bf f   d3dx9dt:d3dxmathx86.obj
 0001:0003849c       ?x86_D3DXMatrixMultiply@@YGPAUD3DXMATRIX@@PAU1@PBU1@1@Z 1003949c f   d3dx9dt:d3dxmathx86.obj
 0001:0003859d       ?x86_D3DXMatrixMultiplyTranspose@@YGPAUD3DXMATRIX@@PAU1@PBU1@1@Z 1003959d f   d3dx9dt:d3dxmathx86.obj
 0001:0003864b       ?x86_D3DXInitFastTable@@YGXPAUD3DXFASTTABLE@@@Z 1003964b f   d3dx9dt:d3dxmathx86.obj
 0001:000386e3       ?jpeg_read_scanlines@D3DX@@YGIPAUjpeg_decompress_struct@1@PAPAEI@Z 100396e3 f   d3dx9dt:jdapistd.obj
 0001:00038768       ?jpeg_read_raw_data@D3DX@@YGIPAUjpeg_decompress_struct@1@PAPAPAEI@Z 10039768 f   d3dx9dt:jdapistd.obj
 0001:00038807       ?jpeg_start_output@D3DX@@YGHPAUjpeg_decompress_struct@1@H@Z 10039807 f   d3dx9dt:jdapistd.obj
 0001:00038867       ?jpeg_finish_output@D3DX@@YGHPAUjpeg_decompress_struct@1@@Z 10039867 f   d3dx9dt:jdapistd.obj
 0001:000388eb       ?jpeg_start_decompress@D3DX@@YGHPAUjpeg_decompress_struct@1@@Z 100398eb f   d3dx9dt:jdapistd.obj
 0001:000389b4       ?jpeg_CreateDecompress@D3DX@@YGXPAUjpeg_decompress_struct@1@HI@Z 100399b4 f   d3dx9dt:jdapimin.obj
 0001:00038a6f       ?jpeg_destroy_decompress@D3DX@@YGXPAUjpeg_decompress_struct@1@@Z 10039a6f f   d3dx9dt:jdapimin.obj
 0001:00038a78       ?jpeg_abort_decompress@D3DX@@YGXPAUjpeg_decompress_struct@1@@Z 10039a78 f   d3dx9dt:jdapimin.obj
 0001:00038be5       ?jpeg_consume_input@D3DX@@YGHPAUjpeg_decompress_struct@1@@Z 10039be5 f   d3dx9dt:jdapimin.obj
 0001:00038c7f       ?jpeg_input_complete@D3DX@@YGHPAUjpeg_decompress_struct@1@@Z 10039c7f f   d3dx9dt:jdapimin.obj
 0001:00038cbb       ?jpeg_has_multiple_scans@D3DX@@YGHPAUjpeg_decompress_struct@1@@Z 10039cbb f   d3dx9dt:jdapimin.obj
 0001:00038cf7       ?jpeg_finish_decompress@D3DX@@YGHPAUjpeg_decompress_struct@1@@Z 10039cf7 f   d3dx9dt:jdapimin.obj
 0001:00038d99       ?jpeg_read_header@D3DX@@YGHPAUjpeg_decompress_struct@1@H@Z 10039d99 f   d3dx9dt:jdapimin.obj
 0001:0003a454       ?jpeg_resync_to_restart@D3DX@@YGHPAUjpeg_decompress_struct@1@H@Z 1003b454 f   d3dx9dt:jdmarker.obj
 0001:0003a572       ?jinit_marker_reader@D3DX@@YGXPAUjpeg_decompress_struct@1@@Z 1003b572 f   d3dx9dt:jdmarker.obj
 0001:0003a5d6       ?jpeg_save_markers@D3DX@@YGXPAUjpeg_decompress_struct@1@HI@Z 1003b5d6 f   d3dx9dt:jdmarker.obj
 0001:0003a682       ?jpeg_save_markers_all@D3DX@@YGXPAUjpeg_decompress_struct@1@HIP6GH0@Z@Z 1003b682 f   d3dx9dt:jdmarker.obj
 0001:0003a72c       ?jpeg_set_marker_processor@D3DX@@YGXPAUjpeg_decompress_struct@1@HP6GH0@Z@Z 1003b72c f   d3dx9dt:jdmarker.obj
 0001:0003a899       ?jpeg_std_error@D3DX@@YGPAUjpeg_error_mgr@1@PAU21@@Z 1003b899 f   d3dx9dt:jerror.obj
 0001:0003a985       ?png_set_error_fn@D3DX@@YGXPAUpng_struct_def@1@PAXP6AX0PBD@Z3@Z 1003b985 f   d3dx9dt:pngerror.obj
 0001:0003a9a1       ?png_get_error_ptr@D3DX@@YGPAXPAUpng_struct_def@1@@Z 1003b9a1 f   d3dx9dt:pngerror.obj
 0001:0003a9ae       ?png_error@D3DX@@YGXPAUpng_struct_def@1@PBD@Z 1003b9ae f   d3dx9dt:pngerror.obj
 0001:0003a9cd       ?png_warning@D3DX@@YGXPAUpng_struct_def@1@PBD@Z 1003b9cd f   d3dx9dt:pngerror.obj
 0001:0003a9e6       ?png_chunk_error@D3DX@@YGXPAUpng_struct_def@1@PBD@Z 1003b9e6 f   d3dx9dt:pngerror.obj
 0001:0003aa0a       ?png_chunk_warning@D3DX@@YGXPAUpng_struct_def@1@PBD@Z 1003ba0a f   d3dx9dt:pngerror.obj
 0001:0003aa2e       ?png_create_read_struct@D3DX@@YGPAUpng_struct_def@1@PBDPAXP6AXPAU21@0@Z3@Z 1003ba2e f   d3dx9dt:pngread.obj
 0001:0003ab22       ?png_read_init@D3DX@@YGXPAUpng_struct_def@1@@Z 1003bb22 f   d3dx9dt:pngread.obj
 0001:0003abdc       ?png_read_info@D3DX@@YGXPAUpng_struct_def@1@PAUpng_info_struct@1@@Z 1003bbdc f   d3dx9dt:pngread.obj
 0001:0003ad4a       ?png_read_update_info@D3DX@@YGXPAUpng_struct_def@1@PAUpng_info_struct@1@@Z 1003bd4a f   d3dx9dt:pngread.obj
 0001:0003ad6b       ?png_start_read_image@D3DX@@YGXPAUpng_struct_def@1@@Z 1003bd6b f   d3dx9dt:pngread.obj
 0001:0003ad81       ?png_read_row@D3DX@@YGXPAUpng_struct_def@1@PAE1@Z 1003bd81 f   d3dx9dt:pngread.obj
 0001:0003b104       ?png_read_rows@D3DX@@YGXPAUpng_struct_def@1@PAPAE1K@Z 1003c104 f   d3dx9dt:pngread.obj
 0001:0003b177       ?png_read_image@D3DX@@YGXPAUpng_struct_def@1@PAPAE@Z 1003c177 f   d3dx9dt:pngread.obj
 0001:0003b1c2       ?png_read_end@D3DX@@YGXPAUpng_struct_def@1@PAUpng_info_struct@1@@Z 1003c1c2 f   d3dx9dt:pngread.obj
 0001:0003b2ba       ?png_read_destroy@D3DX@@YGXPAUpng_struct_def@1@PAUpng_info_struct@1@1@Z 1003c2ba f   d3dx9dt:pngread.obj
 0001:0003b3cf       ?png_set_read_status_fn@D3DX@@YGXPAUpng_struct_def@1@P6AX0KH@Z@Z 1003c3cf f   d3dx9dt:pngread.obj
 0001:0003b3e2       ?png_destroy_read_struct@D3DX@@YGXPAPAUpng_struct_def@1@PAPAUpng_info_struct@1@1@Z 1003c3e2 f   d3dx9dt:pngread.obj
 0001:0003b45f       ?png_get_valid@D3DX@@YGKPAUpng_struct_def@1@PAUpng_info_struct@1@K@Z 1003c45f f   d3dx9dt:pngget.obj
 0001:0003b47d       ?png_get_rowbytes@D3DX@@YGKPAUpng_struct_def@1@PAUpng_info_struct@1@@Z 1003c47d f   d3dx9dt:pngget.obj
 0001:0003b498       ?png_get_channels@D3DX@@YGEPAUpng_struct_def@1@PAUpng_info_struct@1@@Z 1003c498 f   d3dx9dt:pngget.obj
 0001:0003b4b3       ?png_get_signature@D3DX@@YGPAEPAUpng_struct_def@1@PAUpng_info_struct@1@@Z 1003c4b3 f   d3dx9dt:pngget.obj
 0001:0003b4ce       ?png_get_gAMA@D3DX@@YGKPAUpng_struct_def@1@PAUpng_info_struct@1@PAN@Z 1003c4ce f   d3dx9dt:pngget.obj
 0001:0003b4fb       ?png_get_sRGB@D3DX@@YGKPAUpng_struct_def@1@PAUpng_info_struct@1@PAH@Z 1003c4fb f   d3dx9dt:pngget.obj
 0001:0003b52a       ?png_get_IHDR@D3DX@@YGKPAUpng_struct_def@1@PAUpng_info_struct@1@PAK2PAH3333@Z 1003c52a f   d3dx9dt:pngget.obj
 0001:0003b5fb       ?png_get_PLTE@D3DX@@YGKPAUpng_struct_def@1@PAUpng_info_struct@1@PAPAUpng_color_struct@1@PAH@Z 1003c5fb f   d3dx9dt:pngget.obj
 0001:0003b631       ?png_get_tRNS@D3DX@@YGKPAUpng_struct_def@1@PAUpng_info_struct@1@PAPAEPAHPAPAUpng_color_16_struct@1@@Z 1003c631 f   d3dx9dt:pngget.obj
 0001:0003b69a       ?png_set_bgr@D3DX@@YGXPAUpng_struct_def@1@@Z 1003c69a f   d3dx9dt:pngtrans.obj
 0001:0003b6a8       ?png_set_swap@D3DX@@YGXPAUpng_struct_def@1@@Z 1003c6a8 f   d3dx9dt:pngtrans.obj
 0001:0003b6bf       ?png_set_packing@D3DX@@YGXPAUpng_struct_def@1@@Z 1003c6bf f   d3dx9dt:pngtrans.obj
 0001:0003b6dd       ?png_set_shift@D3DX@@YGXPAUpng_struct_def@1@PAUpng_color_8_struct@1@@Z 1003c6dd f   d3dx9dt:pngtrans.obj
 0001:0003b6fa       ?png_set_interlace_handling@D3DX@@YGHPAUpng_struct_def@1@@Z 1003c6fa f   d3dx9dt:pngtrans.obj
 0001:0003b719       ?png_set_filler@D3DX@@YGXPAUpng_struct_def@1@KH@Z 1003c719 f   d3dx9dt:pngtrans.obj
 0001:0003b769       ?png_do_swap@D3DX@@YGXPAUpng_row_info_struct@1@PAE@Z 1003c769 f   d3dx9dt:pngtrans.obj
 0001:0003b79a       ?png_do_bgr@D3DX@@YGXPAUpng_row_info_struct@1@PAE@Z 1003c79a f   d3dx9dt:pngtrans.obj
 0001:0003b85b       ?png_set_crc_action@D3DX@@YGXPAUpng_struct_def@1@HH@Z 1003c85b f   d3dx9dt:pngrtran.obj
 0001:0003b8db       ?png_set_strip_16@D3DX@@YGXPAUpng_struct_def@1@@Z 1003c8db f   d3dx9dt:pngrtran.obj
 0001:0003b8e9       ?png_set_dither@D3DX@@YGXPAUpng_struct_def@1@PAUpng_color_struct@1@HHPAGH@Z 1003c8e9 f   d3dx9dt:pngrtran.obj
 0001:0003bf27       ?png_set_gamma@D3DX@@YGXPAUpng_struct_def@1@NN@Z 1003cf27 f   d3dx9dt:pngrtran.obj
 0001:0003bf60       ?png_set_expand@D3DX@@YGXPAUpng_struct_def@1@@Z 1003cf60 f   d3dx9dt:pngrtran.obj
 0001:0003bf6e       ?png_set_palette_to_rgb@D3DX@@YGXPAUpng_struct_def@1@@Z 1003cf6e f   d3dx9dt:pngrtran.obj
 0001:0003bf7c       ?png_set_gray_1_2_4_to_8@D3DX@@YGXPAUpng_struct_def@1@@Z 1003cf7c f   d3dx9dt:pngrtran.obj
 0001:0003bf8a       ?png_set_tRNS_to_alpha@D3DX@@YGXPAUpng_struct_def@1@@Z 1003cf8a f   d3dx9dt:pngrtran.obj
 0001:0003bf98       ?png_read_transform_info@D3DX@@YGXPAUpng_struct_def@1@PAUpng_info_struct@1@@Z 1003cf98 f   d3dx9dt:pngrtran.obj
 0001:0003c07f       ?png_do_unpack@D3DX@@YGXPAUpng_row_info_struct@1@PAE@Z 1003d07f f   d3dx9dt:pngrtran.obj
 0001:0003c190       ?png_do_unshift@D3DX@@YGXPAUpng_row_info_struct@1@PAEPAUpng_color_8_struct@1@@Z 1003d190 f   d3dx9dt:pngrtran.obj
 0001:0003c309       ?png_do_chop@D3DX@@YGXPAUpng_row_info_struct@1@PAE@Z 1003d309 f   d3dx9dt:pngrtran.obj
 0001:0003c351       ?png_do_read_filler@D3DX@@YGXPAUpng_row_info_struct@1@PAEKK@Z 1003d351 f   d3dx9dt:pngrtran.obj
 0001:0003c58a       ?png_build_grayscale_palette@D3DX@@YGXHPAUpng_color_struct@1@@Z 1003d58a f   d3dx9dt:pngrtran.obj
 0001:0003c5ee       ?png_do_gamma@D3DX@@YGXPAUpng_row_info_struct@1@PAE1PAPAGH@Z 1003d5ee f   d3dx9dt:pngrtran.obj
 0001:0003c93e       ?png_do_expand_palette@D3DX@@YGXPAUpng_row_info_struct@1@PAEPAUpng_color_struct@1@1H@Z 1003d93e f   d3dx9dt:pngrtran.obj
 0001:0003cb47       ?png_do_expand@D3DX@@YGXPAUpng_row_info_struct@1@PAEPAUpng_color_16_struct@1@@Z 1003db47 f   d3dx9dt:pngrtran.obj
 0001:0003ce9a       ?png_do_dither@D3DX@@YGXPAUpng_row_info_struct@1@PAE11@Z 1003de9a f   d3dx9dt:pngrtran.obj
 0001:0003cfa9       ?png_build_gamma_table@D3DX@@YGXPAUpng_struct_def@1@@Z 1003dfa9 f   d3dx9dt:pngrtran.obj
 0001:0003d2ac       ?png_init_read_transformations@D3DX@@YGXPAUpng_struct_def@1@@Z 1003e2ac f   d3dx9dt:pngrtran.obj
 0001:0003d3c0       ?png_do_read_transformations@D3DX@@YGXPAUpng_struct_def@1@@Z 1003e3c0 f   d3dx9dt:pngrtran.obj
 0001:0003d55f       ?png_set_gAMA@D3DX@@YGXPAUpng_struct_def@1@PAUpng_info_struct@1@N@Z 1003e55f f   d3dx9dt:pngset.obj
 0001:0003d57d       ?png_set_IHDR@D3DX@@YGXPAUpng_struct_def@1@PAUpng_info_struct@1@KKHHHHH@Z 1003e57d f   d3dx9dt:pngset.obj
 0001:0003d61e       ?png_set_PLTE@D3DX@@YGXPAUpng_struct_def@1@PAUpng_info_struct@1@PAUpng_color_struct@1@H@Z 1003e61e f   d3dx9dt:pngset.obj
 0001:0003d644       ?png_set_sRGB@D3DX@@YGXPAUpng_struct_def@1@PAUpng_info_struct@1@H@Z 1003e644 f   d3dx9dt:pngset.obj
 0001:0003d662       ?png_set_sRGB_gAMA_and_cHRM@D3DX@@YGXPAUpng_struct_def@1@PAUpng_info_struct@1@H@Z 1003e662 f   d3dx9dt:pngset.obj
 0001:0003d699       ?png_set_tRNS@D3DX@@YGXPAUpng_struct_def@1@PAUpng_info_struct@1@PAEHPAUpng_color_16_struct@1@@Z 1003e699 f   d3dx9dt:pngset.obj
 0001:0003d6e2       ?png_permit_empty_plte@D3DX@@YGXPAUpng_struct_def@1@H@Z 1003e6e2 f   d3dx9dt:pngset.obj
 0001:0003d6f9       ?png_read_data@D3DX@@YGXPAUpng_struct_def@1@PAEI@Z 1003e6f9 f   d3dx9dt:pngrio.obj
 0001:0003d723       ?png_set_read_fn@D3DX@@YGXPAUpng_struct_def@1@PAXP6AX0PAEI@Z@Z 1003e723 f   d3dx9dt:pngrio.obj
 0001:0003d762       ?png_get_header_version@D3DX@@YGPADPAUpng_struct_def@1@@Z 1003e762 f   d3dx9dt:png.obj
 0001:0003d76a       ?png_set_sig_bytes@D3DX@@YGXPAUpng_struct_def@1@H@Z 1003e76a f   d3dx9dt:png.obj
 0001:0003d797       ?png_sig_cmp@D3DX@@YGHPAEII@Z 1003e797 f   d3dx9dt:png.obj
 0001:0003d7e3       ?png_check_sig@D3DX@@YGHPAEH@Z 1003e7e3 f   d3dx9dt:png.obj
 0001:0003d7fc       ?png_zalloc@D3DX@@YGPAXPAXII@Z 1003e7fc f   d3dx9dt:png.obj
 0001:0003d850       ?png_zfree@D3DX@@YGXPAX0@Z 1003e850 f   d3dx9dt:png.obj
 0001:0003d859       ?png_reset_crc@D3DX@@YGXPAUpng_struct_def@1@@Z 1003e859 f   d3dx9dt:png.obj
 0001:0003d873       ?png_calculate_crc@D3DX@@YGXPAUpng_struct_def@1@PAEI@Z 1003e873 f   d3dx9dt:png.obj
 0001:0003d8b3       ?png_info_init@D3DX@@YGXPAUpng_info_struct@1@@Z 1003e8b3 f   d3dx9dt:png.obj
 0001:0003d8c6       ?png_info_destroy@D3DX@@YGXPAUpng_struct_def@1@PAUpng_info_struct@1@@Z 1003e8c6 f   d3dx9dt:png.obj
 0001:0003d8d9       ?png_get_io_ptr@D3DX@@YGPAXPAUpng_struct_def@1@@Z 1003e8d9 f   d3dx9dt:png.obj
 0001:0003d8e6       ?png_get_copyright@D3DX@@YGPADPAUpng_struct_def@1@@Z 1003e8e6 f   d3dx9dt:png.obj
 0001:0003d8ee       ?png_check_version@D3DX@@YGXPAUpng_struct_def@1@@Z 1003e8ee f   d3dx9dt:png.obj
 0001:0003d8f1       ?png_create_info_struct@D3DX@@YGPAUpng_info_struct@1@PAUpng_struct_def@1@@Z 1003e8f1 f   d3dx9dt:png.obj
 0001:0003d91c       ?png_destroy_info_struct@D3DX@@YGXPAUpng_struct_def@1@PAPAUpng_info_struct@1@@Z 1003e91c f   d3dx9dt:png.obj
 0001:0003d946       ?jpeg_CreateCompress@D3DX@@YGXPAUjpeg_compress_struct@1@HI@Z 1003e946 f   d3dx9dt:jcapimin.obj
 0001:0003d9f3       ?jpeg_destroy_compress@D3DX@@YGXPAUjpeg_compress_struct@1@@Z 1003e9f3 f   d3dx9dt:jcapimin.obj
 0001:0003d9fc       ?jpeg_abort_compress@D3DX@@YGXPAUjpeg_compress_struct@1@@Z 1003e9fc f   d3dx9dt:jcapimin.obj
 0001:0003da05       ?jpeg_suppress_tables@D3DX@@YGXPAUjpeg_compress_struct@1@H@Z 1003ea05 f   d3dx9dt:jcapimin.obj
 0001:0003da53       ?jpeg_finish_compress@D3DX@@YGXPAUjpeg_compress_struct@1@@Z 1003ea53 f   d3dx9dt:jcapimin.obj
 0001:0003db37       ?jpeg_write_marker@D3DX@@YGXPAUjpeg_compress_struct@1@HPBEI@Z 1003eb37 f   d3dx9dt:jcapimin.obj
 0001:0003dba9       ?jpeg_write_m_header@D3DX@@YGXPAUjpeg_compress_struct@1@HI@Z 1003eba9 f   d3dx9dt:jcapimin.obj
 0001:0003dbf6       ?jpeg_write_m_byte@D3DX@@YGXPAUjpeg_compress_struct@1@H@Z 1003ebf6 f   d3dx9dt:jcapimin.obj
 0001:0003dc0d       ?jpeg_write_tables@D3DX@@YGXPAUjpeg_compress_struct@1@@Z 1003ec0d f   d3dx9dt:jcapimin.obj
 0001:0003dc59       ?jpeg_start_compress@D3DX@@YGXPAUjpeg_compress_struct@1@H@Z 1003ec59 f   d3dx9dt:jcapistd.obj
 0001:0003dcc3       ?jpeg_write_scanlines@D3DX@@YGIPAUjpeg_compress_struct@1@PAPAEI@Z 1003ecc3 f   d3dx9dt:jcapistd.obj
 0001:0003dd68       ?jpeg_write_raw_data@D3DX@@YGIPAUjpeg_compress_struct@1@PAPAPAEI@Z 1003ed68 f   d3dx9dt:jcapistd.obj
 0001:0003de10       ?jpeg_add_quant_table@D3DX@@YGXPAUjpeg_compress_struct@1@HPBIHH@Z 1003ee10 f   d3dx9dt:jcparam.obj
 0001:0003debf       ?jpeg_set_linear_quality@D3DX@@YGXPAUjpeg_compress_struct@1@HH@Z 1003eebf f   d3dx9dt:jcparam.obj
 0001:0003def0       ?jpeg_quality_scaling@D3DX@@YGHH@Z 1003eef0 f   d3dx9dt:jcparam.obj
 0001:0003df1d       ?jpeg_set_quality@D3DX@@YGXPAUjpeg_compress_struct@1@HH@Z 1003ef1d f   d3dx9dt:jcparam.obj
 0001:0003dffd       ?jpeg_set_colorspace@D3DX@@YGXPAUjpeg_compress_struct@1@W4J_COLOR_SPACE@1@@Z 1003effd f   d3dx9dt:jcparam.obj
 0001:0003e322       ?jpeg_simple_progression@D3DX@@YGXPAUjpeg_compress_struct@1@@Z 1003f322 f   d3dx9dt:jcparam.obj
 0001:0003e4e3       ?jpeg_default_colorspace@D3DX@@YGXPAUjpeg_compress_struct@1@@Z 1003f4e3 f   d3dx9dt:jcparam.obj
 0001:0003e548       ?jpeg_set_defaults@D3DX@@YGXPAUjpeg_compress_struct@1@@Z 1003f548 f   d3dx9dt:jcparam.obj
 0001:0003e76f       ?D3DXColorLerp@@YGPAUD3DXCOLOR@@PAU1@PBU1@1M@Z 1003f76f f i d3dx9dt:dxtn.obj
 0001:0003fa9d       ?D3DXDecodeDXT1@D3DXTex@@YGJPAUD3DXCOLOR@@PBE@Z 10040a9d f   d3dx9dt:dxtn.obj
 0001:0003fbdd       ?D3DXDecodeDXT3@D3DXTex@@YGJPAUD3DXCOLOR@@PBE@Z 10040bdd f   d3dx9dt:dxtn.obj
 0001:0003fc60       ?D3DXDecodeDXT5@D3DXTex@@YGJPAUD3DXCOLOR@@PBE@Z 10040c60 f   d3dx9dt:dxtn.obj
 0001:0003fd9c       ?D3DXEncodeDXT1@D3DXTex@@YGJPAEPBUD3DXCOLOR@@@Z 10040d9c f   d3dx9dt:dxtn.obj
 0001:0003feb4       ?D3DXEncodeDXT3@D3DXTex@@YGJPAEPBUD3DXCOLOR@@@Z 10040eb4 f   d3dx9dt:dxtn.obj
 0001:0003ffda       ?D3DXEncodeDXT5@D3DXTex@@YGJPAEPBUD3DXCOLOR@@@Z 10040fda f   d3dx9dt:dxtn.obj
 0001:00040482       ?D3DXDecodeDXT2@D3DXTex@@YGJPAUD3DXCOLOR@@PBE@Z 10041482 f   d3dx9dt:dxtn.obj
 0001:000404a6       ?D3DXDecodeDXT4@D3DXTex@@YGJPAUD3DXCOLOR@@PBE@Z 100414a6 f   d3dx9dt:dxtn.obj
 0001:000404ca       ?D3DXEncodeDXT2@D3DXTex@@YGJPAEPBUD3DXCOLOR@@@Z 100414ca f   d3dx9dt:dxtn.obj
 0001:000404fe       ?D3DXEncodeDXT4@D3DXTex@@YGJPAEPBUD3DXCOLOR@@@Z 100414fe f   d3dx9dt:dxtn.obj
 0001:00040532       _D3DXAssembleShaderFromFileA@24 10041532 f   d3dx9dt:d3dx9shader.obj
 0001:000405dd       _D3DXAssembleShaderFromFileW@24 100415dd f   d3dx9dt:d3dx9shader.obj
 0001:00040688       _D3DXAssembleShaderFromResourceA@28 10041688 f   d3dx9dt:d3dx9shader.obj
 0001:00040736       _D3DXAssembleShaderFromResourceW@28 10041736 f   d3dx9dt:d3dx9shader.obj
 0001:000407e4       _D3DXAssembleShader@28     100417e4 f   d3dx9dt:d3dx9shader.obj
 0001:00040890       _D3DXCompileShaderFromFileA@36 10041890 f   d3dx9dt:d3dx9shader.obj
 0001:00040945       _D3DXCompileShaderFromFileW@36 10041945 f   d3dx9dt:d3dx9shader.obj
 0001:000409fb       _D3DXCompileShaderFromResourceA@40 100419fb f   d3dx9dt:d3dx9shader.obj
 0001:00040ab3       _D3DXCompileShaderFromResourceW@40 10041ab3 f   d3dx9dt:d3dx9shader.obj
 0001:00040b6c       _D3DXCompileShader@40      10041b6c f   d3dx9dt:d3dx9shader.obj
 0001:00040c23       _D3DXFindShaderComment@16  10041c23 f   d3dx9dt:d3dx9shader.obj
 0001:00040d22       _D3DXGetShaderInputSemantics@12 10041d22 f   d3dx9dt:d3dx9shader.obj
 0001:0004111a       _D3DXGetShaderOutputSemantics@12 1004211a f   d3dx9dt:d3dx9shader.obj
 0001:00041451       _D3DXGetShaderSamplers@12  10042451 f   d3dx9dt:d3dx9shader.obj
 0001:00041533       _D3DXGetShaderConstantTable@8 10042533 f   d3dx9dt:d3dx9shader.obj
 0001:000415e3       _D3DXGetShaderDebugInfo@8  100425e3 f   d3dx9dt:d3dx9shader.obj
 0001:0004168e       _D3DXGetTargetDescByName@12 1004268e f   d3dx9dt:d3dx9shader.obj
 0001:0004172a       _D3DXGetTargetDescByVersion@12 1004272a f   d3dx9dt:d3dx9shader.obj
 0001:00041777       ?sse_D3DXQuaternionMultiply@@YGPAUD3DXQUATERNION@@PAU1@PBU1@1@Z 10042777 f   d3dx9dt:d3dxquatsse.obj
 0001:000417f0       ?sse_D3DXQuaternionNormalize@@YGPAUD3DXQUATERNION@@PAU1@PBU1@@Z 100427f0 f   d3dx9dt:d3dxquatsse.obj
 0001:000418a2       ?sse_D3DXQuaternionInverse@@YGPAUD3DXQUATERNION@@PAU1@PBU1@@Z 100428a2 f   d3dx9dt:d3dxquatsse.obj
 0001:0004193a       ?sse_D3DXQuaternionRotationYawPitchRoll@@YGPAUD3DXQUATERNION@@PAU1@MMM@Z 1004293a f   d3dx9dt:d3dxquatsse.obj
 0001:00041a11       ?sse_D3DXQuaternionRotationMatrix@@YGPAUD3DXQUATERNION@@PAU1@PBUD3DXMATRIX@@@Z 10042a11 f   d3dx9dt:d3dxquatsse.obj
 0001:00041b54       ??0F32vec4@@QAE@XZ         10042b54 f i d3dx9dt:arraymath.obj
 0001:00041b57       ??0F32vec4@@QAE@U__m128@@@Z 10042b57 f i d3dx9dt:arraymath.obj
 0001:00041b5d       ??0F32vec4@@QAE@ABM@Z      10042b5d f i d3dx9dt:arraymath.obj
 0001:00041b94       ??BF32vec4@@QBE?AU__m128@@XZ 10042b94 f i d3dx9dt:arraymath.obj
 0001:00041ba4       ??H@YG?AVF32vec4@@ABV0@0@Z 10042ba4 f i d3dx9dt:arraymath.obj
 0001:00041bd5       ??D@YG?AVF32vec4@@ABV0@0@Z 10042bd5 f i d3dx9dt:arraymath.obj
 0001:00041c06       ??4F32vec4@@QAEAAV0@ABV0@@Z 10042c06 f i d3dx9dt:arraymath.obj
 0001:00041c18       ??4F32vec4@@QAEAAV0@ABU__m128@@@Z 10042c18 f i d3dx9dt:arraymath.obj
 0001:00041c2a       ?rcp_nr@@YG?AVF32vec4@@ABV1@@Z 10042c2a f i d3dx9dt:arraymath.obj
 0001:00041c67       ?unpack_low@@YG?AVF32vec4@@ABV1@0@Z 10042c67 f i d3dx9dt:arraymath.obj
 0001:00041c98       ?unpack_high@@YG?AVF32vec4@@ABV1@0@Z 10042c98 f i d3dx9dt:arraymath.obj
 0001:00041cc9       ??0KMATRIX@@QAE@ABUD3DXMATRIX@@@Z 10042cc9 f i d3dx9dt:arraymath.obj
 0001:00041e35       ?sse_D3DXVec3TransformArray@@YGPAUD3DXVECTOR4@@PAU1@IPBUD3DXVECTOR3@@IPBUD3DXMATRIX@@I@Z 10042e35 f   d3dx9dt:arraymath.obj
 0001:0004209d       ?sse_D3DXVec2TransformArray@@YGPAUD3DXVECTOR4@@PAU1@IPBUD3DXVECTOR2@@IPBUD3DXMATRIX@@I@Z 1004309d f   d3dx9dt:arraymath.obj
 0001:000422a3       ?sse_D3DXVec2TransformCoordArray@@YGPAUD3DXVECTOR2@@PAU1@IPBU1@IPBUD3DXMATRIX@@I@Z 100432a3 f   d3dx9dt:arraymath.obj
 0001:00042478       ?sse_D3DXVec2TransformNormalArray@@YGPAUD3DXVECTOR2@@PAU1@IPBU1@IPBUD3DXMATRIX@@I@Z 10043478 f   d3dx9dt:arraymath.obj
 0001:00042606       ?sse_D3DXVec4TransformArray@@YGPAUD3DXVECTOR4@@PAU1@IPBU1@IPBUD3DXMATRIX@@I@Z 10043606 f   d3dx9dt:arraymath.obj
 0001:000428a0       ?sse_D3DXVec3TransformNormalArray@@YGPAUD3DXVECTOR3@@PAU1@IPBU1@IPBUD3DXMATRIX@@I@Z 100438a0 f   d3dx9dt:arraymath.obj
 0001:00042ae3       ?sse_D3DXVec3TransformCoordArray@@YGPAUD3DXVECTOR3@@PAU1@IPBU1@IPBUD3DXMATRIX@@I@Z 10043ae3 f   d3dx9dt:arraymath.obj
 0001:00042d87       ??0F32vec4@@QAE@ABV0@@Z    10043d87 f i d3dx9dt:skinning.obj
 0001:00042d99       ??YF32vec4@@QAEAAV0@AAV0@@Z 10043d99 f i d3dx9dt:skinning.obj
 0001:00042dc6       ??0F32vec1@@QAE@H@Z        10043dc6 f i d3dx9dt:skinning.obj
 0001:00042df1       ??0F32vec1@@QAE@ABM@Z      10043df1 f i d3dx9dt:skinning.obj
 0001:00042e24       ??0F32vec1@@QAE@U__m128@@@Z 10043e24 f i d3dx9dt:skinning.obj
 0001:00042e2a       ??BF32vec1@@QBE?AU__m128@@XZ 10043e2a f i d3dx9dt:skinning.obj
 0001:00042e3a       ??G@YG?AVF32vec1@@ABV0@0@Z 10043e3a f i d3dx9dt:skinning.obj
 0001:00042e6c       ?F32vec1ToInt@@YGHABVF32vec1@@@Z 10043e6c f i d3dx9dt:skinning.obj
 0001:00042e92       ?sse_D3DXPSGPUpdateSkinnedMesh@@YGXPBUD3DXMATRIX@@0PAE1KKPAPAE2KKPAMH@Z 10043e92 f   d3dx9dt:skinning.obj
 0001:000434d3       ?sse_D3DXFloat16To32Array@@YGPAMPAMPBUD3DXFLOAT16@@I@Z 100444d3 f   d3dx9dt:float16.obj
 0001:000435ba       ?sse_D3DXVec2Transform@@YGPAUD3DXVECTOR4@@PAU1@PBUD3DXVECTOR2@@PBUD3DXMATRIX@@@Z 100445ba f   d3dx9dt:d3dxmathsse.obj
 0001:00043633       ?sse_D3DXVec2TransformCoord@@YGPAUD3DXVECTOR2@@PAU1@PBU1@PBUD3DXMATRIX@@@Z 10044633 f   d3dx9dt:d3dxmathsse.obj
 0001:0004369f       ?sse_D3DXVec2TransformNormal@@YGPAUD3DXVECTOR2@@PAU1@PBU1@PBUD3DXMATRIX@@@Z 1004469f f   d3dx9dt:d3dxmathsse.obj
 0001:00043711       ?sse_D3DXVec4Transform@@YGPAUD3DXVECTOR4@@PAU1@PBU1@PBUD3DXMATRIX@@@Z 10044711 f   d3dx9dt:d3dxmathsse.obj
 0001:0004383c       ?sse_D3DXMatrixMultiply@@YGPAUD3DXMATRIX@@PAU1@PBU1@1@Z 1004483c f   d3dx9dt:d3dxmathsse.obj
 0001:000439bf       ?sse_D3DXMatrixInverse@@YGPAUD3DXMATRIX@@PAU1@PAMPBU1@@Z 100449bf f   d3dx9dt:d3dxmathsse.obj
 0001:00043ca1       ?sse_D3DXVec4Cross@@YGPAUD3DXVECTOR4@@PAU1@PBU1@11@Z 10044ca1 f   d3dx9dt:d3dxmathsse.obj
 0001:00043d96       ?sse_D3DXVec4Normalize@@YGPAUD3DXVECTOR4@@PAU1@PBU1@@Z 10044d96 f   d3dx9dt:d3dxmathsse.obj
 0001:00043e30       ?sse_D3DXMatrixRotationX@@YGPAUD3DXMATRIX@@PAU1@M@Z 10044e30 f   d3dx9dt:d3dxmathsse.obj
 0001:00043ebf       ?sse_D3DXMatrixRotationY@@YGPAUD3DXMATRIX@@PAU1@M@Z 10044ebf f   d3dx9dt:d3dxmathsse.obj
 0001:00043f5c       ?sse_D3DXVec3CatmullRom@@YGPAUD3DXVECTOR3@@PAU1@PBU1@111M@Z 10044f5c f   d3dx9dt:d3dxmathsse.obj
 0001:00044041       ?sse_D3DXVec2CatmullRom@@YGPAUD3DXVECTOR2@@PAU1@PBU1@111M@Z 10045041 f   d3dx9dt:d3dxmathsse.obj
 0001:000440f9       ?sse_D3DXVec4CatmullRom@@YGPAUD3DXVECTOR4@@PAU1@PBU1@111M@Z 100450f9 f   d3dx9dt:d3dxmathsse.obj
 0001:000441d1       ?sse_D3DXVec3Hermite@@YGPAUD3DXVECTOR3@@PAU1@PBU1@111M@Z 100451d1 f   d3dx9dt:d3dxmathsse.obj
 0001:000442b7       ?sse_D3DXVec4Hermite@@YGPAUD3DXVECTOR4@@PAU1@PBU1@111M@Z 100452b7 f   d3dx9dt:d3dxmathsse.obj
 0001:00044384       ?sse_D3DXVec2Hermite@@YGPAUD3DXVECTOR2@@PAU1@PBU1@111M@Z 10045384 f   d3dx9dt:d3dxmathsse.obj
 0001:0004443d       ?sse_D3DXVec3BaryCentric@@YGPAUD3DXVECTOR3@@PAU1@PBU1@11MM@Z 1004543d f   d3dx9dt:d3dxmathsse.obj
 0001:000444b1       ?sse_D3DXVec4BaryCentric@@YGPAUD3DXVECTOR4@@PAU1@PBU1@11MM@Z 100454b1 f   d3dx9dt:d3dxmathsse.obj
 0001:00044511       ?sse_D3DXVec2BaryCentric@@YGPAUD3DXVECTOR2@@PAU1@PBU1@11MM@Z 10045511 f   d3dx9dt:d3dxmathsse.obj
 0001:0004457a       ?sse_D3DXPlaneIntersectLine@@YGPAUD3DXVECTOR3@@PAU1@PBUD3DXPLANE@@PBU1@2@Z 1004557a f   d3dx9dt:d3dxmathsse.obj
 0001:00044628       ?sse_D3DXColorAdjustSaturation@@YGPAUD3DXCOLOR@@PAU1@PBU1@M@Z 10045628 f   d3dx9dt:d3dxmathsse.obj
 0001:000446ae       ?sse_D3DXMatrixDeterminant@@YGMPBUD3DXMATRIX@@@Z 100456ae f   d3dx9dt:d3dxmathsse.obj
 0001:000447c0       ?sse_D3DXPlaneFromPoints@@YGPAUD3DXPLANE@@PAU1@PBUD3DXVECTOR3@@11@Z 100457c0 f   d3dx9dt:d3dxmathsse.obj
 0001:000448f7       ?sse_D3DXMatrixReflect@@YGPAUD3DXMATRIX@@PAU1@PBUD3DXPLANE@@@Z 100458f7 f   d3dx9dt:d3dxmathsse.obj
 0001:00044a25       ??H@YG?AVF32vec1@@ABV0@0@Z 10045a25 f i d3dx9dt:d3dxmathsse.obj
 0001:00044a57       ??D@YG?AVF32vec1@@ABV0@0@Z 10045a57 f i d3dx9dt:d3dxmathsse.obj
 0001:00044a89       ?rsqrt@@YG?AVF32vec1@@ABV1@@Z 10045a89 f i d3dx9dt:d3dxmathsse.obj
 0001:00044ac7       ?rsqrt_nr@@YG?AVF32vec1@@ABV1@@Z 10045ac7 f i d3dx9dt:d3dxmathsse.obj
 0001:00044b71       ?sse_D3DXVec3TransformNormal@@YGPAUD3DXVECTOR3@@PAU1@PBU1@PBUD3DXMATRIX@@@Z 10045b71 f   d3dx9dt:d3dxmathsse.obj
 0001:00044ca0       ?sse_D3DXVec3Transform@@YGPAUD3DXVECTOR4@@PAU1@PBUD3DXVECTOR3@@PBUD3DXMATRIX@@@Z 10045ca0 f   d3dx9dt:d3dxmathsse.obj
 0001:00044dcd       ?sse_D3DXVec3TransformCoord@@YGPAUD3DXVECTOR3@@PAU1@PBU1@PBUD3DXMATRIX@@@Z 10045dcd f   d3dx9dt:d3dxmathsse.obj
 0001:00044ef8       ?sse_D3DXVec3Normalize@@YGPAUD3DXVECTOR3@@PAU1@PBU1@@Z 10045ef8 f   d3dx9dt:d3dxmathsse.obj
 0001:00044fff       ?sse_D3DXPlaneNormalize@@YGPAUD3DXPLANE@@PAU1@PBU1@@Z 10045fff f   d3dx9dt:d3dxmathsse.obj
 0001:0004512b       ?sse_D3DXVec2Normalize@@YGPAUD3DXVECTOR2@@PAU1@PBU1@@Z 1004612b f   d3dx9dt:d3dxmathsse.obj
 0001:00045207       ?sse_D3DXMatrixMultiplyTranspose@@YGPAUD3DXMATRIX@@PAU1@PBU1@1@Z 10046207 f   d3dx9dt:d3dxmathsse.obj
 0001:00045472       ?sse_D3DXMatrixShadow@@YGPAU_D3DMATRIX@@PAU1@PBUD3DXVECTOR4@@PBUD3DXPLANE@@@Z 10046472 f   d3dx9dt:d3dxmathsse.obj
 0001:00045661       ?sse2_D3DXVec3TransformArray@@YGPAUD3DXVECTOR4@@PAU1@IPBUD3DXVECTOR3@@IPBUD3DXMATRIX@@I@Z 10046661 f   d3dx9dt:arraymath2.obj
 0001:000458c9       ?sse2_D3DXVec2TransformArray@@YGPAUD3DXVECTOR4@@PAU1@IPBUD3DXVECTOR2@@IPBUD3DXMATRIX@@I@Z 100468c9 f   d3dx9dt:arraymath2.obj
 0001:00045acf       ?sse2_D3DXVec2TransformCoordArray@@YGPAUD3DXVECTOR2@@PAU1@IPBU1@IPBUD3DXMATRIX@@I@Z 10046acf f   d3dx9dt:arraymath2.obj
 0001:00045ca4       ?sse2_D3DXVec2TransformNormalArray@@YGPAUD3DXVECTOR2@@PAU1@IPBU1@IPBUD3DXMATRIX@@I@Z 10046ca4 f   d3dx9dt:arraymath2.obj
 0001:00045e32       ?sse2_D3DXVec4TransformArray@@YGPAUD3DXVECTOR4@@PAU1@IPBU1@IPBUD3DXMATRIX@@I@Z 10046e32 f   d3dx9dt:arraymath2.obj
 0001:000460cc       ?sse2_D3DXVec3TransformNormalArray@@YGPAUD3DXVECTOR3@@PAU1@IPBU1@IPBUD3DXMATRIX@@I@Z 100470cc f   d3dx9dt:arraymath2.obj
 0001:0004630f       ?sse2_D3DXVec3TransformCoordArray@@YGPAUD3DXVECTOR3@@PAU1@IPBU1@IPBUD3DXMATRIX@@I@Z 1004730f f   d3dx9dt:arraymath2.obj
 0001:00046693       ?sse2_D3DXFloat16To32Array@@YGPAMPAMPBUD3DXFLOAT16@@I@Z 10047693 f   d3dx9dt:float162.obj
 0001:00046778       ?sse2_D3DXVec4Transform@@YGPAUD3DXVECTOR4@@PAU1@PBU1@PBUD3DXMATRIX@@@Z 10047778 f   d3dx9dt:d3dxmathsse2.obj
 0001:000468a3       ?sse2_D3DXMatrixMultiply@@YGPAUD3DXMATRIX@@PAU1@PBU1@1@Z 100478a3 f   d3dx9dt:d3dxmathsse2.obj
 0001:00046a26       ?sse2_D3DXMatrixInverse@@YGPAUD3DXMATRIX@@PAU1@PAMPBU1@@Z 10047a26 f   d3dx9dt:d3dxmathsse2.obj
 0001:00046d08       ?sse2_D3DXVec4Cross@@YGPAUD3DXVECTOR4@@PAU1@PBU1@11@Z 10047d08 f   d3dx9dt:d3dxmathsse2.obj
 0001:00046dfd       ?sse2_D3DXMatrixRotationX@@YGPAUD3DXMATRIX@@PAU1@M@Z 10047dfd f   d3dx9dt:d3dxmathsse2.obj
 0001:00046e8c       ?sse2_D3DXMatrixRotationY@@YGPAUD3DXMATRIX@@PAU1@M@Z 10047e8c f   d3dx9dt:d3dxmathsse2.obj
 0001:00046f29       ?sse2_D3DXMatrixDeterminant@@YGMPBUD3DXMATRIX@@@Z 10047f29 f   d3dx9dt:d3dxmathsse2.obj
 0001:0004703b       ?sse2_D3DXPlaneFromPoints@@YGPAUD3DXPLANE@@PAU1@PBUD3DXVECTOR3@@11@Z 1004803b f   d3dx9dt:d3dxmathsse2.obj
 0001:00047172       ?sse2_D3DXMatrixReflect@@YGPAUD3DXMATRIX@@PAU1@PBUD3DXPLANE@@@Z 10048172 f   d3dx9dt:d3dxmathsse2.obj
 0001:000472a0       ?sse2_D3DXVec3TransformNormal@@YGPAUD3DXVECTOR3@@PAU1@PBU1@PBUD3DXMATRIX@@@Z 100482a0 f   d3dx9dt:d3dxmathsse2.obj
 0001:000473cf       ?sse2_D3DXVec3Transform@@YGPAUD3DXVECTOR4@@PAU1@PBUD3DXVECTOR3@@PBUD3DXMATRIX@@@Z 100483cf f   d3dx9dt:d3dxmathsse2.obj
 0001:000474fc       ?sse2_D3DXVec3TransformCoord@@YGPAUD3DXVECTOR3@@PAU1@PBU1@PBUD3DXMATRIX@@@Z 100484fc f   d3dx9dt:d3dxmathsse2.obj
 0001:00047627       ?sse2_D3DXVec3Normalize@@YGPAUD3DXVECTOR3@@PAU1@PBU1@@Z 10048627 f   d3dx9dt:d3dxmathsse2.obj
 0001:0004772e       ?sse2_D3DXPlaneNormalize@@YGPAUD3DXPLANE@@PAU1@PBU1@@Z 1004872e f   d3dx9dt:d3dxmathsse2.obj
 0001:0004785a       ?sse2_D3DXVec2Normalize@@YGPAUD3DXVECTOR2@@PAU1@PBU1@@Z 1004885a f   d3dx9dt:d3dxmathsse2.obj
 0001:00047936       ?sse2_D3DXMatrixMultiplyTranspose@@YGPAUD3DXMATRIX@@PAU1@PBU1@1@Z 10048936 f   d3dx9dt:d3dxmathsse2.obj
 0001:00047ba1       ?sse2_D3DXMatrixShadow@@YGPAU_D3DMATRIX@@PAU1@PBUD3DXVECTOR4@@PBUD3DXPLANE@@@Z 10048ba1 f   d3dx9dt:d3dxmathsse2.obj
 0001:00047d90       ?sse2_D3DXQuaternionInverse@@YGPAUD3DXQUATERNION@@PAU1@PBU1@@Z 10048d90 f   d3dx9dt:d3dxquatsse2.obj
 0001:00047e28       ?sse2_D3DXQuaternionRotationYawPitchRoll@@YGPAUD3DXQUATERNION@@PAU1@MMM@Z 10048e28 f   d3dx9dt:d3dxquatsse2.obj
 0001:00047eff       ?sse2_QuaternionSlerp@@YGPAUD3DXQUATERNION@@PAU1@PBU1@1M@Z 10048eff f   d3dx9dt:d3dxquatsse2.obj
 0001:00048085       ?sse2_D3DXQuaternionRotationMatrix@@YGPAUD3DXQUATERNION@@PAU1@PBUD3DXMATRIX@@@Z 10049085 f   d3dx9dt:d3dxquatsse2.obj
 0001:00048200       _AMDSSE_D3DXPlaneTransformArray@24 10049200 f   d3dx9dt:d3dxplane.obj
 0001:00048300       _AMDSSE_D3DXVec4TransformArray@24 10049300 f   d3dx9dt:d3dxvec4.obj
 0001:00048400       _AMDSSE_D3DXVec2TransformArray@24 10049400 f   d3dx9dt:d3dxvec2.obj
 0001:000486c0       _AMDSSE_D3DXVec2TransformCoordArray@24 100496c0 f   d3dx9dt:d3dxvec2.obj
 0001:00048980       _AMDSSE_D3DXVec2TransformNormalArray@24 10049980 f   d3dx9dt:d3dxvec2.obj
 0001:00048bc0       _AMDSSE_D3DXVec3TransformArray@24 10049bc0 f   d3dx9dt:d3dxvec3.obj
 0001:00048ca0       _AMDSSE_D3DXVec3TransformCoordArray@24 10049ca0 f   d3dx9dt:d3dxvec3.obj
 0001:00049020       _AMDSSE_D3DXVec3TransformNormalArray@24 1004a020 f   d3dx9dt:d3dxvec3.obj
 0001:000492f9       ?x3d_D3DXQuaternionMultiply@@YGPAUD3DXQUATERNION@@PAU1@PBU1@1@Z 1004a2f9 f   d3dx9dt:x3d_quat.obj
 0001:000493b4       ?x3d_D3DXQuaternionNormalize@@YGPAUD3DXQUATERNION@@PAU1@PBU1@@Z 1004a3b4 f   d3dx9dt:x3d_quat.obj
 0001:0004942b       ?x3d_D3DXQuaternionToAxisAngle@@YGXPBUD3DXQUATERNION@@PAUD3DXVECTOR3@@PAM@Z 1004a42b f   d3dx9dt:x3d_quat.obj
 0001:0004947f       ?x3d_D3DXQuaternionRotationMatrix@@YGPAUD3DXQUATERNION@@PAU1@PBUD3DXMATRIX@@@Z 1004a47f f   d3dx9dt:x3d_quat.obj
 0001:000496b5       ?x3d_D3DXQuaternionRotationMatrix_K7@@YGPAUD3DXQUATERNION@@PAU1@PBUD3DXMATRIX@@@Z 1004a6b5 f   d3dx9dt:x3d_quat.obj
 0001:000498e4       ?x3d_D3DXQuaternionRotationYawPitchRoll@@YGPAUD3DXQUATERNION@@PAU1@MMM@Z 1004a8e4 f   d3dx9dt:x3d_quat.obj
 0001:000499bb       ?x3d_D3DXQuaternionRotationAxis@@YGPAUD3DXQUATERNION@@PAU1@PBUD3DXVECTOR3@@M@Z 1004a9bb f   d3dx9dt:x3d_quat.obj
 0001:00049a4a       ?x3d_D3DXQuaternionSlerp@@YGPAUD3DXQUATERNION@@PAU1@PBU1@1M@Z 1004aa4a f   d3dx9dt:x3d_quat.obj
 0001:00049bac       ?x3d_D3DXQuaternionBaryCentric@@YGPAUD3DXQUATERNION@@PAU1@PBU1@11MM@Z 1004abac f   d3dx9dt:x3d_quat.obj
 0001:00049c6c       ?x3d_D3DXQuaternionSquad@@YGPAUD3DXQUATERNION@@PAU1@PBU1@111M@Z 1004ac6c f   d3dx9dt:x3d_quat.obj
 0001:00049d30       ?x3d_D3DXQuaternionInverse@@YGPAUD3DXQUATERNION@@PAU1@PBU1@@Z 1004ad30 f   d3dx9dt:x3d_quat.obj
 0001:00049dae       ?x3d_D3DXQuaternionLn@@YGPAUD3DXQUATERNION@@PAU1@PBU1@@Z 1004adae f   d3dx9dt:x3d_quat.obj
 0001:00049e78       ?x3d_D3DXQuaternionExp@@YGPAUD3DXQUATERNION@@PAU1@PBU1@@Z 1004ae78 f   d3dx9dt:x3d_quat.obj
 0001:00049f37       ?x3d_D3DXQuaternionExp_K7@@YGPAUD3DXQUATERNION@@PAU1@PBU1@@Z 1004af37 f   d3dx9dt:x3d_quat.obj
 0001:00049ff3       ?x3d_D3DXQuaternionSquadSetup@@YGXPAUD3DXQUATERNION@@00PBU1@111@Z 1004aff3 f   d3dx9dt:x3d_quat.obj
 0001:0004aa69       ?x3d_D3DXMatrixMultiply@@YGPAUD3DXMATRIX@@PAU1@PBU1@1@Z 1004ba69 f   d3dx9dt:x3d_matx.obj
 0001:0004acc1       ?x3d_D3DXMatrixfDeterminant@@YGMPBUD3DXMATRIX@@@Z 1004bcc1 f   d3dx9dt:x3d_matx.obj
 0001:0004ada2       ?x3d_D3DXMatrixTranslation@@YGPAUD3DXMATRIX@@PAU1@MMM@Z 1004bda2 f   d3dx9dt:x3d_matx.obj
 0001:0004ae04       ?x3d_D3DXMatrixShadow@@YGPAUD3DXMATRIX@@PAU1@PBUD3DXVECTOR4@@PBUD3DXPLANE@@@Z 1004be04 f   d3dx9dt:x3d_matx.obj
 0001:0004af1a       ?x3d_D3DXMatrixReflect@@YGPAUD3DXMATRIX@@PAU1@PBUD3DXPLANE@@@Z 1004bf1a f   d3dx9dt:x3d_matx.obj
 0001:0004b019       ?x3d_D3DXMatrixRotationX@@YGPAUD3DXMATRIX@@PAU1@M@Z 1004c019 f   d3dx9dt:x3d_matx.obj
 0001:0004b08e       ?x3d_D3DXMatrixRotationY@@YGPAUD3DXMATRIX@@PAU1@M@Z 1004c08e f   d3dx9dt:x3d_matx.obj
 0001:0004b0fe       ?x3d_D3DXMatrixRotationZ@@YGPAUD3DXMATRIX@@PAU1@M@Z 1004c0fe f   d3dx9dt:x3d_matx.obj
 0001:0004b169       ?x3d_D3DXMatrixScaling@@YGPAUD3DXMATRIX@@PAU1@MMM@Z 1004c169 f   d3dx9dt:x3d_matx.obj
 0001:0004b1c2       ?x3d_D3DXMatrixTranspose@@YGPAUD3DXMATRIX@@PAU1@PBU1@@Z 1004c1c2 f   d3dx9dt:x3d_matx.obj
 0001:0004b24b       ?x3d_D3DXMatrixIdentity@@YGPAUD3DXMATRIX@@PAU1@@Z 1004c24b f   d3dx9dt:x3d_matx.obj
 0001:0004b284       ?x3d_D3DXMatrixRotationQuaternion@@YGPAUD3DXMATRIX@@PAU1@PBUD3DXQUATERNION@@@Z 1004c284 f   d3dx9dt:x3d_matx.obj
 0001:0004b370       ?x3d_D3DXMatrixRotationQuaternion_K7@@YGPAUD3DXMATRIX@@PAU1@PBUD3DXQUATERNION@@@Z 1004c370 f   d3dx9dt:x3d_matx.obj
 0001:0004b43f       ?x3d_D3DXMatrixTransformation@@YGPAUD3DXMATRIX@@PAU1@PBUD3DXVECTOR3@@PBUD3DXQUATERNION@@1121@Z 1004c43f f   d3dx9dt:x3d_matx.obj
 0001:0004c5e9       ?x3d_D3DXMatrixRotationYawPitchRoll@@YGPAUD3DXMATRIX@@PAU1@MMM@Z 1004d5e9 f   d3dx9dt:x3d_matx.obj
 0001:0004c7a0       ?x3d_D3DXMatrixAffineTransformation@@YGPAUD3DXMATRIX@@PAU1@MPBUD3DXVECTOR3@@PBUD3DXQUATERNION@@1@Z 1004d7a0 f   d3dx9dt:x3d_matx.obj
 0001:0004cce6       ?x3d_D3DXMatrixRotationAxis@@YGPAUD3DXMATRIX@@PAU1@PBUD3DXVECTOR3@@M@Z 1004dce6 f   d3dx9dt:x3d_matx.obj
 0001:0004ce19       ?x3d_D3DXMatrixLookAtLH@@YGPAUD3DXMATRIX@@PAU1@PBUD3DXVECTOR3@@11@Z 1004de19 f   d3dx9dt:x3d_matx.obj
 0001:0004d032       ?x3d_D3DXMatrixLookAtRH@@YGPAUD3DXMATRIX@@PAU1@PBUD3DXVECTOR3@@11@Z 1004e032 f   d3dx9dt:x3d_matx.obj
 0001:0004d24b       ?x3d_D3DXMatrixTransformation_K7@@YGPAUD3DXMATRIX@@PAU1@PBUD3DXVECTOR3@@PBUD3DXQUATERNION@@1121@Z 1004e24b f   d3dx9dt:x3d_matx.obj
 0001:0004e3b1       ?x3d_D3DXMatrixInverse_K7@@YGPAUD3DXMATRIX@@PAU1@PAMPBU1@@Z 1004f3b1 f   d3dx9dt:x3d_matx.obj
 0001:0004e6aa       ?x3d_D3DXMatrixMultiplyTranspose@@YGPAUD3DXMATRIX@@PAU1@PBU1@1@Z 1004f6aa f   d3dx9dt:x3d_matx.obj
 0001:0004eac8       ?x3d_D3DXMatrixInverse_inline@@YGPAUD3DXMATRIX@@PAU1@PAMPBU1@@Z 1004fac8 f i d3dx9dt:x3d_matx.obj
 0001:0004ee14       ?x3d_D3DXMatrixInverse@@YGPAUD3DXMATRIX@@PAU1@PAMPBU1@@Z 1004fe14 f   d3dx9dt:x3d_matx.obj
 0001:0004ee40       _x3d_D3DXVec3Transform@12  1004fe40 f   d3dx9dt:x3d_vec3.obj
 0001:0004eec6       _x3d_D3DXVec3TransformNormal@12 1004fec6 f   d3dx9dt:x3d_vec3.obj
 0001:0004ef42       ?x3d_D3DXVec3Normalize@@YGPAUD3DXVECTOR3@@PAU1@PBU1@@Z 1004ff42 f   d3dx9dt:x3d_vec3.obj
 0001:0004efbb       ?x3d_D3DXVec3BaryCentric@@YGPAUD3DXVECTOR3@@PAU1@PBU1@11MM@Z 1004ffbb f   d3dx9dt:x3d_vec3.obj
 0001:0004f056       ?x3d_D3DXVec3Hermite@@YGPAUD3DXVECTOR3@@PAU1@PBU1@111M@Z 10050056 f   d3dx9dt:x3d_vec3.obj
 0001:0004f15c       ?x3d_D3DXVec3CatmullRom@@YGPAUD3DXVECTOR3@@PAU1@PBU1@111M@Z 1005015c f   d3dx9dt:x3d_vec3.obj
 0001:0004f275       ??0SSEMatrix@@QAE@PBUD3DXMATRIX@@@Z 10050275 f i d3dx9dt:x3d_vec3.obj
 0001:0004f3e1       ??D@YG?AU__m128@@AAU0@0@Z  100503e1 f i d3dx9dt:x3d_vec3.obj
 0001:0004f40f       ??H@YG?AU__m128@@AAU0@0@Z  1005040f f i d3dx9dt:x3d_vec3.obj
 0001:0004f43d       ?SSE_D3DXVec3TransformArray@@YGPAUD3DXVECTOR4@@PAU1@IPBUD3DXVECTOR3@@IPBUD3DXMATRIX@@I@Z 1005043d f   d3dx9dt:x3d_vec3.obj
 0001:0004f859       ?x3d_D3DXVec3TransformCoord_inline@@YGPAUD3DXVECTOR3@@PAU1@PBU1@PBUD3DXMATRIX@@@Z 10050859 f i d3dx9dt:x3d_vec3.obj
 0001:0004f905       ?x3d_D3DXMatrixMultiply_inline@@YGPAUD3DXMATRIX@@PAU1@PBU1@1@Z 10050905 f i d3dx9dt:x3d_vec3.obj
 0001:0004faed       _x3d_D3DXVec3TransformCoord@12 10050aed f   d3dx9dt:x3d_vec3.obj
 0001:0004fb0d       ?x3d_D3DXVec3Project@@YGPAUD3DXVECTOR3@@PAU1@PBU1@PBU_D3DVIEWPORT9@@PBUD3DXMATRIX@@33@Z 10050b0d f   d3dx9dt:x3d_vec3.obj
 0001:0004fcb2       ?x3d_D3DXVec3Unproject@@YGPAUD3DXVECTOR3@@PAU1@PBU1@PBU_D3DVIEWPORT9@@PBUD3DXMATRIX@@33@Z 10050cb2 f   d3dx9dt:x3d_vec3.obj
 0001:0004fef7       ?x3d_D3DXVec3Unproject_K7@@YGPAUD3DXVECTOR3@@PAU1@PBU1@PBU_D3DVIEWPORT9@@PBUD3DXMATRIX@@33@Z 10050ef7 f   d3dx9dt:x3d_vec3.obj
 0001:00050080       _AMDX3D_D3DXFloat16To32Array@12 10051080 f   d3dx9dt:d3dxfloat16.obj
 0001:000501e0       _AMDX3D_D3DXFloat32To16Array@12 100511e0 f   d3dx9dt:d3dxfloat16.obj
 0001:0005037b       _x3d_D3DXVec2Transform@12  1005137b f   d3dx9dt:x3d_vec2.obj
 0001:000503e5       _x3d_D3DXVec2TransformNormal@12 100513e5 f   d3dx9dt:x3d_vec2.obj
 0001:00050433       _x3d_D3DXVec2TransformCoord@12 10051433 f   d3dx9dt:x3d_vec2.obj
 0001:000504ac       ?x3d_D3DXVec2Hermite@@YGPAUD3DXVECTOR2@@PAU1@PBU1@111M@Z 100514ac f   d3dx9dt:x3d_vec2.obj
 0001:00050576       ?x3d_D3DXVec2BaryCentric@@YGPAUD3DXVECTOR2@@PAU1@PBU1@11MM@Z 10051576 f   d3dx9dt:x3d_vec2.obj
 0001:000505e9       ?x3d_D3DXVec2Normalize@@YGPAUD3DXVECTOR2@@PAU1@PBU1@@Z 100515e9 f   d3dx9dt:x3d_vec2.obj
 0001:00050646       ?x3d_D3DXVec2CatmullRom@@YGPAUD3DXVECTOR2@@PAU1@PBU1@111M@Z 10051646 f   d3dx9dt:x3d_vec2.obj
 0001:00050720       _x3d_D3DXVec4Transform@12  10051720 f   d3dx9dt:x3d_vec4.obj
 0001:000507bf       ?x3d_D3DXVec4Normalize@@YGPAUD3DXVECTOR4@@PAU1@PBU1@@Z 100517bf f   d3dx9dt:x3d_vec4.obj
 0001:00050838       ?x3d_D3DXVec4Cross@@YGPAUD3DXVECTOR4@@PAU1@PBU1@11@Z 10051838 f   d3dx9dt:x3d_vec4.obj
 0001:00050994       ?x3d_D3DXVec4BaryCentric@@YGPAUD3DXVECTOR4@@PAU1@PBU1@11MM@Z 10051994 f   d3dx9dt:x3d_vec4.obj
 0001:00050a2f       ?x3d_D3DXVec4Hermite@@YGPAUD3DXVECTOR4@@PAU1@PBU1@111M@Z 10051a2f f   d3dx9dt:x3d_vec4.obj
 0001:00050b29       ?x3d_D3DXVec4CatmullRom@@YGPAUD3DXVECTOR4@@PAU1@PBU1@111M@Z 10051b29 f   d3dx9dt:x3d_vec4.obj
 0001:00050c36       ?x3d_D3DXPlaneFromPointNormal@@YGPAUD3DXPLANE@@PAU1@PBUD3DXVECTOR3@@1@Z 10051c36 f   d3dx9dt:x3d_plane.obj
 0001:00050c9b       ?x3d_D3DXPlaneFromPoints@@YGPAUD3DXPLANE@@PAU1@PBUD3DXVECTOR3@@11@Z 10051c9b f   d3dx9dt:x3d_plane.obj
 0001:00050da9       ?x3d_D3DXPlaneIntersectLine@@YGPAUD3DXVECTOR3@@PAU1@PBUD3DXPLANE@@PBU1@2@Z 10051da9 f   d3dx9dt:x3d_plane.obj
 0001:00050e91       ?x3d_D3DXPlaneNormalize@@YGPAUD3DXPLANE@@PAU1@PBU1@@Z 10051e91 f   d3dx9dt:x3d_plane.obj
 0001:00050f0f       _x3d_D3DXPlaneTransform@12 10051f0f f   d3dx9dt:x3d_plane.obj
 0001:00050faf       ?x3d_D3DXColorAdjustContrast@@YGPAUD3DXCOLOR@@PAU1@PBU1@M@Z 10051faf f   d3dx9dt:x3d_plane.obj
 0001:0005101e       ?x3d_D3DXColorAdjustSaturation@@YGPAUD3DXCOLOR@@PAU1@PBU1@M@Z 1005201e f   d3dx9dt:x3d_plane.obj
 0001:00051115       ?jpeg_calc_output_dimensions@D3DX@@YGXPAUjpeg_decompress_struct@1@@Z 10052115 f   d3dx9dt:jdmaster.obj
 0001:00051643       ?jpeg_new_colormap@D3DX@@YGXPAUjpeg_decompress_struct@1@@Z 10052643 f   d3dx9dt:jdmaster.obj
 0001:000516ac       ?jinit_master_decompress@D3DX@@YGXPAUjpeg_decompress_struct@1@@Z 100526ac f   d3dx9dt:jdmaster.obj
 0001:00051bbe       ?jinit_input_controller@D3DX@@YGXPAUjpeg_decompress_struct@1@@Z 10052bbe f   d3dx9dt:jdinput.obj
 0001:00052582       ?jinit_memory_mgr@D3DX@@YGXPAUjpeg_common_struct@1@@Z 10053582 f   d3dx9dt:jmemmgr.obj
 0001:00052641       ?jpeg_abort@D3DX@@YGXPAUjpeg_common_struct@1@@Z 10053641 f   d3dx9dt:jcomapi.obj
 0001:00052677       ?jpeg_destroy@D3DX@@YGXPAUjpeg_common_struct@1@@Z 10053677 f   d3dx9dt:jcomapi.obj
 0001:00052696       ?jpeg_alloc_quant_table@D3DX@@YGPAUJQUANT_TBL@1@PAUjpeg_common_struct@1@@Z 10053696 f   d3dx9dt:jcomapi.obj
 0001:000526b4       ?jpeg_alloc_huff_table@D3DX@@YGPAUJHUFF_TBL@1@PAUjpeg_common_struct@1@@Z 100536b4 f   d3dx9dt:jcomapi.obj
 0001:000526d2       ?jdiv_round_up@D3DX@@YGJJJ@Z 100536d2 f   d3dx9dt:jutils.obj
 0001:000526e6       ?jround_up@D3DX@@YGJJJ@Z   100536e6 f   d3dx9dt:jutils.obj
 0001:00052702       ?jcopy_sample_rows@D3DX@@YGXPAPAEH0HHI@Z 10053702 f   d3dx9dt:jutils.obj
 0001:0005274b       ?jcopy_block_row@D3DX@@YGXPAY0EA@F0I@Z 1005374b f   d3dx9dt:jutils.obj
 0001:00052770       ?jzero_far@D3DX@@YGXPAXI@Z 10053770 f   d3dx9dt:jutils.obj
 0001:0005278f       _d3dx_inflateReset@4       1005378f f   d3dx9dt:inflate.obj
 0001:000527ce       _d3dx_inflateEnd@4         100537ce f   d3dx9dt:inflate.obj
 0001:0005280b       _d3dx_inflateInit2_@16     1005380b f   d3dx9dt:inflate.obj
 0001:000528ea       _d3dx_inflateInit_@12      100538ea f   d3dx9dt:inflate.obj
 0001:00052900       _d3dx_inflate@8            10053900 f   d3dx9dt:inflate.obj
 0001:00052c63       _d3dx_inflateSetDictionary@12 10053c63 f   d3dx9dt:inflate.obj
 0001:00052cd8       _d3dx_inflateSync@4        10053cd8 f   d3dx9dt:inflate.obj
 0001:00052d87       _d3dx_inflateSyncPoint@4   10053d87 f   d3dx9dt:inflate.obj
 0001:00052dac       ?png_create_struct@D3DX@@YGPAXH@Z 10053dac f   d3dx9dt:pngmem.obj
 0001:00052df2       ?png_destroy_struct@D3DX@@YGXPAX@Z 10053df2 f   d3dx9dt:pngmem.obj
 0001:00052e08       ?png_malloc@D3DX@@YGPAXPAUpng_struct_def@1@K@Z 10053e08 f   d3dx9dt:pngmem.obj
 0001:00052e3f       ?png_free@D3DX@@YGXPAUpng_struct_def@1@PAX@Z 10053e3f f   d3dx9dt:pngmem.obj
 0001:00052e5b       ?png_memcpy_check@D3DX@@YGPAXPAUpng_struct_def@1@PAX1K@Z 10053e5b f   d3dx9dt:pngmem.obj
 0001:00052e81       ?png_memset_check@D3DX@@YGPAXPAUpng_struct_def@1@PAXHK@Z 10053e81 f   d3dx9dt:pngmem.obj
 0001:00052eb5       ?png_get_uint_32@D3DX@@YGKPAE@Z 10053eb5 f   d3dx9dt:pngrutil.obj
 0001:00052edd       ?png_get_uint_16@D3DX@@YGGPAE@Z 10053edd f   d3dx9dt:pngrutil.obj
 0001:00052ef5       ?png_crc_read@D3DX@@YGXPAUpng_struct_def@1@PAEI@Z 10053ef5 f   d3dx9dt:pngrutil.obj
 0001:00052f0c       ?png_crc_error@D3DX@@YGHPAUpng_struct_def@1@@Z 10053f0c f   d3dx9dt:pngrutil.obj
 0001:00052f68       ?png_check_chunk_name@D3DX@@YGXPAUpng_struct_def@1@PAE@Z 10053f68 f   d3dx9dt:pngrutil.obj
 0001:00052fcc       ?png_combine_row@D3DX@@YGXPAUpng_struct_def@1@PAEH@Z 10053fcc f   d3dx9dt:pngrutil.obj
 0001:000531e2       ?png_do_read_interlace@D3DX@@YGXPAUpng_row_info_struct@1@PAEHK@Z 100541e2 f   d3dx9dt:pngrutil.obj
 0001:000534ad       ?png_read_filter_row@D3DX@@YGXPAUpng_struct_def@1@PAUpng_row_info_struct@1@PAE2H@Z 100544ad f   d3dx9dt:pngrutil.obj
 0001:00053626       ?png_read_start_row@D3DX@@YGXPAUpng_struct_def@1@@Z 10054626 f   d3dx9dt:pngrutil.obj
 0001:000537c3       ?png_crc_finish@D3DX@@YGHPAUpng_struct_def@1@K@Z 100547c3 f   d3dx9dt:pngrutil.obj
 0001:0005384a       ?png_handle_IHDR@D3DX@@YGXPAUpng_struct_def@1@PAUpng_info_struct@1@K@Z 1005484a f   d3dx9dt:pngrutil.obj
 0001:00053a2a       ?png_handle_PLTE@D3DX@@YGXPAUpng_struct_def@1@PAUpng_info_struct@1@K@Z 10054a2a f   d3dx9dt:pngrutil.obj
 0001:00053b43       ?png_handle_IEND@D3DX@@YGXPAUpng_struct_def@1@PAUpng_info_struct@1@K@Z 10054b43 f   d3dx9dt:pngrutil.obj
 0001:00053b89       ?png_handle_gAMA@D3DX@@YGXPAUpng_struct_def@1@PAUpng_info_struct@1@K@Z 10054b89 f   d3dx9dt:pngrutil.obj
 0001:00053c8a       ?png_handle_sRGB@D3DX@@YGXPAUpng_struct_def@1@PAUpng_info_struct@1@K@Z 10054c8a f   d3dx9dt:pngrutil.obj
 0001:00053d6c       ?png_handle_tRNS@D3DX@@YGXPAUpng_struct_def@1@PAUpng_info_struct@1@K@Z 10054d6c f   d3dx9dt:pngrutil.obj
 0001:00053f0a       ?png_handle_unknown@D3DX@@YGXPAUpng_struct_def@1@PAUpng_info_struct@1@K@Z 10054f0a f   d3dx9dt:pngrutil.obj
 0001:00053f51       ?png_read_finish_row@D3DX@@YGXPAUpng_struct_def@1@@Z 10054f51 f   d3dx9dt:pngrutil.obj
 0001:00054169       _d3dx_get_crc_table@0      10055169 f   d3dx9dt:crc32.obj
 0001:0005416f       _d3dx_crc32@12             1005516f f   d3dx9dt:crc32.obj
 0001:0005497f       ?jinit_marker_writer@D3DX@@YGXPAUjpeg_compress_struct@1@@Z 1005597f f   d3dx9dt:jcmarker.obj
 0001:000549cf       ?jinit_compress_master@D3DX@@YGXPAUjpeg_compress_struct@1@@Z 100559cf f   d3dx9dt:jcinit.obj
 0001:00054a6f       ??0CPPDefine@D3DXShader@@QAE@PBDPAVCNode@1@1@Z 10055a6f f   d3dx9dt:cpreprocessor.obj
 0001:00054a8d       ??1CPPDefine@D3DXShader@@QAE@XZ 10055a8d f   d3dx9dt:cpreprocessor.obj
 0001:00054ac1       ??_GCPPDefine@D3DXShader@@QAEPAXI@Z 10055ac1 f i d3dx9dt:cpreprocessor.obj
 0001:00054ae0       ??0CPPConditional@D3DXShader@@QAE@HH@Z 10055ae0 f   d3dx9dt:cpreprocessor.obj
 0001:00054afc       ??1CPPConditional@D3DXShader@@QAE@XZ 10055afc f   d3dx9dt:cpreprocessor.obj
 0001:00054b14       ??_GCPPConditional@D3DXShader@@QAEPAXI@Z 10055b14 f i d3dx9dt:cpreprocessor.obj
 0001:00054b33       ??0CPPInclude@D3DXShader@@QAE@XZ 10055b33 f   d3dx9dt:cpreprocessor.obj
 0001:00054b66       ??1CPPInclude@D3DXShader@@QAE@XZ 10055b66 f   d3dx9dt:cpreprocessor.obj
 0001:00054bbb       ??_GCPPInclude@D3DXShader@@QAEPAXI@Z 10055bbb f i d3dx9dt:cpreprocessor.obj
 0001:00054bda       ?InitializeFromFile@CPPInclude@D3DXShader@@QAEJPBXHPAVCTAlloc@2@PAVCTErrors@2@PAUID3DXInclude@@W4_D3DXINCLUDE_TYPE@@0@Z 10055bda f   d3dx9dt:cpreprocessor.obj
 0001:00054d81       ?InitializeFromResource@CPPInclude@D3DXShader@@QAEJPAUHINSTANCE__@@PBXHPAVCTAlloc@2@PAVCTErrors@2@@Z 10055d81 f   d3dx9dt:cpreprocessor.obj
 0001:00054de7       ?InitializeFromMemory@CPPInclude@D3DXShader@@QAEJPBXIPAVCTAlloc@2@PAVCTErrors@2@@Z 10055de7 f   d3dx9dt:cpreprocessor.obj
 0001:00054e20       ??0CPPBlock@D3DXShader@@QAE@K@Z 10055e20 f   d3dx9dt:cpreprocessor.obj
 0001:00054e39       ??1CPPBlock@D3DXShader@@QAE@XZ 10055e39 f   d3dx9dt:cpreprocessor.obj
 0001:00054e51       ??_GCPPBlock@D3DXShader@@QAEPAXI@Z 10055e51 f i d3dx9dt:cpreprocessor.obj
 0001:00054e70       ??0CPreProcessor@D3DXShader@@QAE@XZ 10055e70 f   d3dx9dt:cpreprocessor.obj
 0001:00054f19       ??1CPreProcessor@D3DXShader@@QAE@XZ 10055f19 f   d3dx9dt:cpreprocessor.obj
 0001:00054fb9       ?Begin@CPreProcessor@D3DXShader@@QAEJK@Z 10055fb9 f   d3dx9dt:cpreprocessor.obj
 0001:00054ffb       ?GetFileLine@CPreProcessor@D3DXShader@@QAEJPAPBDPAI@Z 10055ffb f   d3dx9dt:cpreprocessor.obj
 0001:00055022       ?GetBufferPointer@CPreProcessor@D3DXShader@@QAEJPAPBDPAI@Z 10056022 f   d3dx9dt:cpreprocessor.obj
 0001:0005505d       ?Token@CPreProcessor@D3DXShader@@IAEHXZ 1005605d f   d3dx9dt:cpreprocessor.obj
 0001:00055392       ?Error@CPreProcessor@D3DXShader@@IAAXPBDZZ 10056392 f   d3dx9dt:cpreprocessor.obj
 0001:0005543e       ?DoLine@CPreProcessor@D3DXShader@@IAEJIPBD@Z 1005643e f   d3dx9dt:cpreprocessor.obj
 0001:00055469       ?DoInclude@CPreProcessor@D3DXShader@@IAEJXZ 10056469 f   d3dx9dt:cpreprocessor.obj
 0001:00055631       ?DoError@CPreProcessor@D3DXShader@@IAEJXZ 10056631 f   d3dx9dt:cpreprocessor.obj
 0001:00055707       ?DoIf@CPreProcessor@D3DXShader@@IAEJH@Z 10056707 f   d3dx9dt:cpreprocessor.obj
 0001:00055761       ?DoElif@CPreProcessor@D3DXShader@@IAEJH@Z 10056761 f   d3dx9dt:cpreprocessor.obj
 0001:000557d6       ?DoElse@CPreProcessor@D3DXShader@@IAEJXZ 100567d6 f   d3dx9dt:cpreprocessor.obj
 0001:00055838       ?DoEndif@CPreProcessor@D3DXShader@@IAEJXZ 10056838 f   d3dx9dt:cpreprocessor.obj
 0001:00055888       ?DoPragmaPackMatrix@CPreProcessor@D3DXShader@@IAEJXZ 10056888 f   d3dx9dt:cpreprocessor.obj
 0001:000559a4       ?DoPragmaWarning@CPreProcessor@D3DXShader@@IAEJXZ 100569a4 f   d3dx9dt:cpreprocessor.obj
 0001:00055d39       ?Hash@CPreProcessor@D3DXShader@@IAEIPBD@Z 10056d39 f   d3dx9dt:cpreprocessor.obj
 0001:00055d51       ?AddDefine@CPreProcessor@D3DXShader@@IAEJPAVCPPDefine@2@@Z 10056d51 f   d3dx9dt:cpreprocessor.obj
 0001:00055dcf       ?FindDefine@CPreProcessor@D3DXShader@@IAEHPBDPAPAVCNode@2@1@Z 10056dcf f   d3dx9dt:cpreprocessor.obj
 0001:00055e40       ?Escape@CPreProcessor@D3DXShader@@IAEIPBDIPAD@Z 10056e40 f   d3dx9dt:cpreprocessor.obj
 0001:00055ea5       ?NonNull@CPreProcessor@D3DXShader@@IAEPAVCNode@2@PAV32@@Z 10056ea5 f   d3dx9dt:cpreprocessor.obj
 0001:00055edb       ?DoDefine@CPreProcessor@D3DXShader@@IAEJPBDH@Z 10056edb f   d3dx9dt:cpreprocessor.obj
 0001:0005614a       ?DoUndef@CPreProcessor@D3DXShader@@IAEJPBD@Z 1005714a f   d3dx9dt:cpreprocessor.obj
 0001:000561ba       ?DoPragma@CPreProcessor@D3DXShader@@IAEJXZ 100571ba f   d3dx9dt:cpreprocessor.obj
 0001:0005623a       ?UintDefine@CPreProcessor@D3DXShader@@IAEIPBD@Z 1005723a f   d3dx9dt:cpreprocessor.obj
 0001:000562a0       ?CallDefine@CPreProcessor@D3DXShader@@IAEHPAUD3DXTOKEN@2@PAVCNode@2@1@Z 100572a0 f   d3dx9dt:cpreprocessor.obj
 0001:00056971       ?InitializeDefines@CPreProcessor@D3DXShader@@IAEJPBU_D3DXMACRO@@@Z 10057971 f   d3dx9dt:cpreprocessor.obj
 0001:00056b98       ?Production@CPreProcessor@D3DXShader@@IAEXII@Z 10057b98 f   d3dx9dt:cpreprocessor.obj
 0001:00056fe3       ?d3dxtok_parse@D3DXShader@@YGHXZ 10057fe3 f   d3dx9dt:cpreprocessor.obj
 0001:00057505       ?InitializeFromFile@CPreProcessor@D3DXShader@@QAEJPBXHPBU_D3DXMACRO@@PAUID3DXInclude@@@Z 10058505 f   d3dx9dt:cpreprocessor.obj
 0001:0005756e       ?InitializeFromResource@CPreProcessor@D3DXShader@@QAEJPAUHINSTANCE__@@PBXHPBU_D3DXMACRO@@PAUID3DXInclude@@@Z 1005856e f   d3dx9dt:cpreprocessor.obj
 0001:000575d3       ?InitializeFromMemory@CPreProcessor@D3DXShader@@QAEJPBXIPBU_D3DXMACRO@@PAUID3DXInclude@@@Z 100585d3 f   d3dx9dt:cpreprocessor.obj
 0001:00057635       ?GetToken@CPreProcessor@D3DXShader@@QAEJPAUD3DXTOKEN@2@@Z 10058635 f   d3dx9dt:cpreprocessor.obj
 0001:00057938       ?End@CPreProcessor@D3DXShader@@QAEJXZ 10058938 f   d3dx9dt:cpreprocessor.obj
 0001:00057992       ??0CTAlloc@D3DXShader@@QAE@XZ 10058992 f   d3dx9dt:ctokenize.obj
 0001:00057998       ??1CTAlloc@D3DXShader@@QAE@XZ 10058998 f   d3dx9dt:ctokenize.obj
 0001:000579b5       ?Alloc@CTAlloc@D3DXShader@@QAEPAXI@Z 100589b5 f   d3dx9dt:ctokenize.obj
 0001:000579da       ?Free@CTAlloc@D3DXShader@@QAEXPAX@Z 100589da f   d3dx9dt:ctokenize.obj
 0001:00057a04       ??0CTErrors@D3DXShader@@QAE@XZ 10058a04 f   d3dx9dt:ctokenize.obj
 0001:00057a24       ??1CTErrors@D3DXShader@@QAE@XZ 10058a24 f   d3dx9dt:ctokenize.obj
 0001:00057a53       ?SetWarningLevel@CTErrors@D3DXShader@@QAEJI@Z 10058a53 f   d3dx9dt:ctokenize.obj
 0001:00057a6e       ?Push@CTErrors@D3DXShader@@IAEJIPAI@Z 10058a6e f   d3dx9dt:ctokenize.obj
 0001:00057baf       ?PreformattedError@CTErrors@D3DXShader@@QAEJPBD@Z 10058baf f   d3dx9dt:ctokenize.obj
 0001:00057c07       ?GetErrorBuffer@CTErrors@D3DXShader@@QAEJPAPAUID3DXBuffer@@@Z 10058c07 f   d3dx9dt:ctokenize.obj
 0001:00057c73       ?GetErrorCount@CTErrors@D3DXShader@@QAEIXZ 10058c73 f   d3dx9dt:ctokenize.obj
 0001:00057c77       ?GetWarningCount@CTErrors@D3DXShader@@QAEIXZ 10058c77 f   d3dx9dt:ctokenize.obj
 0001:00057c7b       ??0CTokenize@D3DXShader@@QAE@XZ 10058c7b f   d3dx9dt:ctokenize.obj
 0001:00057c95       ??1CTokenize@D3DXShader@@QAE@XZ 10058c95 f   d3dx9dt:ctokenize.obj
 0001:00057c96       ?Initialize@CTokenize@D3DXShader@@QAEJPBXIPBDIPAVCTAlloc@2@PAVCTErrors@2@@Z 10058c96 f   d3dx9dt:ctokenize.obj
 0001:00057cfe       ?SkipToEOL@CTokenize@D3DXShader@@QAEHXZ 10058cfe f   d3dx9dt:ctokenize.obj
 0001:00057d57       ?LexFloat@CTokenize@D3DXShader@@IAEIPBDPAN@Z 10058d57 f   d3dx9dt:ctokenize.obj
 0001:00057ed3       ?LexIdentifier@CTokenize@D3DXShader@@IAEIPBDPAPBD@Z 10058ed3 f   d3dx9dt:ctokenize.obj
 0001:00057f53       ?LexOperator@CTokenize@D3DXShader@@IAEIPBDPAD@Z 10058f53 f   d3dx9dt:ctokenize.obj
 0001:0005805f       ?LexFloatSuffix@CTokenize@D3DXShader@@IAEIPBDPAUD3DXTOKEN@2@@Z 1005905f f   d3dx9dt:ctokenize.obj
 0001:000580a7       ?LexIntegerSuffix@CTokenize@D3DXShader@@IAEIPBDPAUD3DXTOKEN@2@@Z 100590a7 f   d3dx9dt:ctokenize.obj
 0001:0005812e       ?SetWarningSpecifier@CTErrors@D3DXShader@@QAEJII@Z 1005912e f   d3dx9dt:ctokenize.obj
 0001:00058196       ?Error@CTErrors@D3DXShader@@QAAJPAUD3DXTOKEN@2@IPBDZZ 10059196 f   d3dx9dt:ctokenize.obj
 0001:00058278       ?Warning@CTErrors@D3DXShader@@QAAJPAUD3DXTOKEN@2@IPBDZZ 10059278 f   d3dx9dt:ctokenize.obj
 0001:000583f2       ?SyntaxError@CTErrors@D3DXShader@@QAEJIPAUD3DXTOKEN@2@@Z 100593f2 f   d3dx9dt:ctokenize.obj
 0001:00058535       ?SkipWhitespace@CTokenize@D3DXShader@@QAEHXZ 10059535 f   d3dx9dt:ctokenize.obj
 0001:00058665       ?LexHex@CTokenize@D3DXShader@@IAEIPBDPAI@Z 10059665 f   d3dx9dt:ctokenize.obj
 0001:00058707       ?LexOctal@CTokenize@D3DXShader@@IAEIPBDPAI@Z 10059707 f   d3dx9dt:ctokenize.obj
 0001:00058783       ?LexDecimal@CTokenize@D3DXShader@@IAEIPBDPAI@Z 10059783 f   d3dx9dt:ctokenize.obj
 0001:00058824       ?LexStringChar@CTokenize@D3DXShader@@IAEIPBDPAI@Z 10059824 f   d3dx9dt:ctokenize.obj
 0001:000589ba       ?LexVersion@CTokenize@D3DXShader@@IAEIPBDPAK@Z 100599ba f   d3dx9dt:ctokenize.obj
 0001:00058abd       ?LexChar@CTokenize@D3DXShader@@IAEIPBDPAI@Z 10059abd f   d3dx9dt:ctokenize.obj
 0001:00058afe       ?LexString@CTokenize@D3DXShader@@IAEIPBDPAPBD@Z 10059afe f   d3dx9dt:ctokenize.obj
 0001:00058be1       ?GetToken@CTokenize@D3DXShader@@QAEJKPAUD3DXTOKEN@2@@Z 10059be1 f   d3dx9dt:ctokenize.obj
 0001:00058d4f       ?GetUsageAndIndex@D3DXShader@@YGJPBDPAE1@Z 10059d4f f   d3dx9dt:cassembler.obj
 0001:00058ffb       ?GetSemanticName@D3DXShader@@YGPBDE@Z 10059ffb f   d3dx9dt:cassembler.obj
 0001:000590b1       ?RegisterHash@D3DXShader@@YGIPBD@Z 1005a0b1 f   d3dx9dt:cassembler.obj
 0001:000590f0       ?GetElement@CFragmentRegisterAllocator@D3DXShader@@QAEPAVCRegisterEntryNode@2@PBD@Z 1005a0f0 f   d3dx9dt:cassembler.obj
 0001:00059124       ?GetElements@CFragmentRegisterAllocator@D3DXShader@@QAEXPAPAVCRegisterEntryNode@2@@Z 1005a124 f   d3dx9dt:cassembler.obj
 0001:0005914c       ??0CAssembler@D3DXShader@@QAE@XZ 1005a14c f   d3dx9dt:cassembler.obj
 0001:00059168       ?Error@CAssembler@D3DXShader@@IAAXPBDZZ 1005a168 f   d3dx9dt:cassembler.obj
 0001:00059226       ?ValidationError@CAssembler@D3DXShader@@KGJPBDIKI0PAX@Z 1005a226 f   d3dx9dt:cassembler.obj
 0001:00059292       ?NonNull@CAssembler@D3DXShader@@IAEPAVCNode@2@PAV32@@Z 1005a292 f   d3dx9dt:cassembler.obj
 0001:000592ca       ?DecodeOpcode@CAssembler@D3DXShader@@IAEHPAUD3DXTOKEN@2@@Z 1005a2ca f   d3dx9dt:cassembler.obj
 0001:00059bac       ?DecodeMask@CAssembler@D3DXShader@@IAEKPAUD3DXTOKEN@2@@Z 1005abac f   d3dx9dt:cassembler.obj
 0001:00059c5f       ?DecodeSwizzle@CAssembler@D3DXShader@@IAEKPAUD3DXTOKEN@2@@Z 1005ac5f f   d3dx9dt:cassembler.obj
 0001:00059d19       ?Validate@CAssembler@D3DXShader@@IAEJPAUD3DXTOKEN@2@@Z 1005ad19 f   d3dx9dt:cassembler.obj
 0001:00059d6c       ?Assure@CAssembler@D3DXShader@@IAEJI@Z 1005ad6c f   d3dx9dt:cassembler.obj
 0001:00059dfb       ?Emit@CAssembler@D3DXShader@@IAEJK@Z 1005adfb f   d3dx9dt:cassembler.obj
 0001:00059e22       ?EmitInstruction@CAssembler@D3DXShader@@IAEJPAVCNode@2@@Z 1005ae22 f   d3dx9dt:cassembler.obj
 0001:0005a59c       ?compare@D3DXShader@@YAHPBX0@Z 1005b59c f   d3dx9dt:cassembler.obj
 0001:0005a64a       ?EmitFragmentInfo@CAssembler@D3DXShader@@IAEJXZ 1005b64a f   d3dx9dt:cassembler.obj
 0001:0005a86a       ?EmitDebugInfo@CAssembler@D3DXShader@@IAEJXZ 1005b86a f   d3dx9dt:cassembler.obj
 0001:0005ab4f       ??0CRegisterEntryNode@D3DXShader@@QAE@PADIIPAV01@@Z 1005bb4f f i d3dx9dt:cassembler.obj
 0001:0005ab73       ??_GCRegisterEntryNode@D3DXShader@@QAEPAXI@Z 1005bb73 f i d3dx9dt:cassembler.obj
 0001:0005ab92       ??0CFragmentRegisterAllocator@D3DXShader@@QAE@XZ 1005bb92 f i d3dx9dt:cassembler.obj
 0001:0005aba2       ??1CFragmentRegisterAllocator@D3DXShader@@QAE@XZ 1005bba2 f i d3dx9dt:cassembler.obj
 0001:0005abbf       ?GetShaderCode@CAssembler@D3DXShader@@IAEJPAPAUID3DXBuffer@@@Z 1005bbbf f   d3dx9dt:cassembler.obj
 0001:0005ac16       ?AddElement@CFragmentRegisterAllocator@D3DXShader@@QAEJPBDII@Z 1005bc16 f   d3dx9dt:cassembler.obj
 0001:0005acab       ??0CFragmentInfo@D3DXShader@@QAE@XZ 1005bcab f   d3dx9dt:cassembler.obj
 0001:0005acd7       ??1CFragmentInfo@D3DXShader@@QAE@XZ 1005bcd7 f   d3dx9dt:cassembler.obj
 0001:0005acf2       ?GetRegisterInfo@CFragmentInfo@D3DXShader@@QAEJPAVCTErrors@2@PAVCFragmentConstants@2@PAUD3DXTOKEN@2@PBDPAVCNode@2@PAK55@Z 1005bcf2 f   d3dx9dt:cassembler.obj
 0001:0005af24       ??_GCFragmentInfo@D3DXShader@@QAEPAXI@Z 1005bf24 f i d3dx9dt:cassembler.obj
 0001:0005af43       ?Token@CAssembler@D3DXShader@@IAEHXZ 1005bf43 f   d3dx9dt:cassembler.obj
 0001:0005b01f       ?DecodeRegister@CAssembler@D3DXShader@@IAEPAVCNode@2@PAUD3DXTOKEN@2@PAV32@@Z 1005c01f f   d3dx9dt:cassembler.obj
 0001:0005b520       ??1CRegisterEntryNode@D3DXShader@@QAE@XZ 1005c520 f i d3dx9dt:cassembler.obj
 0001:0005b53b       ??1CAssembler@D3DXShader@@QAE@XZ 1005c53b f   d3dx9dt:cassembler.obj
 0001:0005b575       ?Production@CAssembler@D3DXShader@@IAEXII@Z 1005c575 f   d3dx9dt:cassembler.obj
 0001:0005bbbb       ?d3dxasm_parse@D3DXShader@@YGHXZ 1005cbbb f   d3dx9dt:cassembler.obj
 0001:0005c1a0       ?Assemble@CAssembler@D3DXShader@@QAEJPAVCPreProcessor@2@KPAVCFragmentConstants@2@PAPAUID3DXBuffer@@@Z 1005d1a0 f   d3dx9dt:cassembler.obj
 0001:0005c62c       ??0CCompiler@D3DXShader@@QAE@XZ 1005d62c f   d3dx9dt:ccompiler.obj
 0001:0005c645       ??1CCompiler@D3DXShader@@QAE@XZ 1005d645 f   d3dx9dt:ccompiler.obj
 0001:0005c66d       ?EmitTemp@CCompiler@D3DXShader@@IAEJPAII@Z 1005d66d f   d3dx9dt:ccompiler.obj
 0001:0005c687       ?VectorizeBase@CCompiler@D3DXShader@@IAEJW4_D3DXTYPE_TEMPLATE@2@IIKPAII1PAVCNode@2@1@Z 1005d687 f   d3dx9dt:ccompiler.obj
 0001:0005c7d2       ?VectorizeDefaults@CCompiler@D3DXShader@@IAEJPAVCNode@2@@Z 1005d7d2 f   d3dx9dt:ccompiler.obj
 0001:0005c8b8       ?EvalArg@CCompiler@D3DXShader@@IAEJIPAN@Z 1005d8b8 f   d3dx9dt:ccompiler.obj
 0001:0005ce4a       ?IsFullySemantic@CCompiler@D3DXShader@@IAEHPAII@Z 1005de4a f   d3dx9dt:ccompiler.obj
 0001:0005ce83       ?IsRowMajor@CCompiler@D3DXShader@@IAEHPAIW4_D3DXTYPE_TEMPLATE@2@II@Z 1005de83 f   d3dx9dt:ccompiler.obj
 0001:0005cf6b       ?IsColumnMajor@CCompiler@D3DXShader@@IAEHPAIW4_D3DXTYPE_TEMPLATE@2@II@Z 1005df6b f   d3dx9dt:ccompiler.obj
 0001:0005d059       ?FindFunction@CCompiler@D3DXShader@@IAEPAVCNode@2@PBD@Z 1005e059 f   d3dx9dt:ccompiler.obj
 0001:0005d16d       ?FindFunction@CCompiler@D3DXShader@@IAEPAVCNode@2@PAV32@PAPBD@Z 1005e16d f   d3dx9dt:ccompiler.obj
 0001:0005d287       ?Error@CCompiler@D3DXShader@@IAAJPAVCNode@2@IPBDZZ 1005e287 f   d3dx9dt:ccompiler.obj
 0001:0005d2fd       ?Warning@CCompiler@D3DXShader@@IAAJPAVCNode@2@IPBDZZ 1005e2fd f   d3dx9dt:ccompiler.obj
 0001:0005d35b       ?CompareSemantic@CCompiler@D3DXShader@@KGHIIPBX@Z 1005e35b f   d3dx9dt:ccompiler.obj
 0001:0005d3ba       ?EmitFor@CCompiler@D3DXShader@@IAEJPAVCNode@2@000@Z 1005e3ba f   d3dx9dt:ccompiler.obj
 0001:0005d447       ?EmitInst@CCompiler@D3DXShader@@IAEJPAVCNode@2@KPAI11K@Z 1005e447 f   d3dx9dt:ccompiler.obj
 0001:0005d8ab       ?GetTypeFlags@CCompiler@D3DXShader@@IAEIPAVCNode@2@PAK@Z 1005e8ab f   d3dx9dt:ccompiler.obj
 0001:0005da06       ?VectorizeType@CCompiler@D3DXShader@@IAEJPAVCNode@2@PAIIHH011@Z 1005ea06 f   d3dx9dt:ccompiler.obj
 0001:0005dc0e       ?IsNumeric@CCompiler@D3DXShader@@IAEHPAVCNode@2@@Z 1005ec0e f   d3dx9dt:ccompiler.obj
 0001:0005dc87       ?EmitSinCos@CCompiler@D3DXShader@@IAEJPAVCNode@2@PAI11I@Z 1005ec87 f   d3dx9dt:ccompiler.obj
 0001:0005e2c1       ?EmitASinACos@CCompiler@D3DXShader@@IAEJPAVCNode@2@PAI11I@Z 1005f2c1 f   d3dx9dt:ccompiler.obj
 0001:0005e814       ?EmitATan2@CCompiler@D3DXShader@@IAEJPAVCNode@2@PAI11I@Z 1005f814 f   d3dx9dt:ccompiler.obj
 0001:0005f047       ?EmitLerp@CCompiler@D3DXShader@@IAEJPAVCNode@2@PAI111I@Z 10060047 f   d3dx9dt:ccompiler.obj
 0001:0005f3dd       ?ApplyType@CCompiler@D3DXShader@@IAEJPAVCNode@2@PAII@Z 100603dd f   d3dx9dt:ccompiler.obj
 0001:0005f447       ?VectorizeVar@CCompiler@D3DXShader@@IAEJPAVCNode@2@PAIIHH01001@Z 10060447 f   d3dx9dt:ccompiler.obj
 0001:0005f58a       ?EmitIf@CCompiler@D3DXShader@@IAEJPAVCNode@2@00PAI@Z 1006058a f   d3dx9dt:ccompiler.obj
 0001:0005fb72       ?Vectorize@CCompiler@D3DXShader@@IAEJPAVCNode@2@PAIIHH00@Z 10060b72 f   d3dx9dt:ccompiler.obj
 0001:0005fbec       ?Unalias@CCompiler@D3DXShader@@IAEJPAVCNode@2@PAII@Z 10060bec f   d3dx9dt:ccompiler.obj
 0001:0005fcbf       ?EmitStatement@CCompiler@D3DXShader@@IAEJPAVCNode@2@@Z 10060cbf f   d3dx9dt:ccompiler.obj
 0001:0005ffc9       ?EmitIntrinsic@CCompiler@D3DXShader@@IAEJPAVCNode@2@PAI@Z 10060fc9 f   d3dx9dt:ccompiler.obj
 0001:00065602       ?EmitFunction@CCompiler@D3DXShader@@IAEJPBDPAVCNode@2@1PAIHH@Z 10066602 f   d3dx9dt:ccompiler.obj
 0001:00065fcb       ?EmitProgram@CCompiler@D3DXShader@@IAEJXZ 10066fcb f   d3dx9dt:ccompiler.obj
 0001:000660c3       ?EmitExpression@CCompiler@D3DXShader@@IAEJPAVCNode@2@PAI@Z 100670c3 f   d3dx9dt:ccompiler.obj
 0001:000680cf       ?EmitArgs@CCompiler@D3DXShader@@IAEJPAVCNode@2@PAII@Z 100690cf f   d3dx9dt:ccompiler.obj
 0001:000682b7       ?EmitEval@CCompiler@D3DXShader@@IAEJPAVCNode@2@@Z 100692b7 f   d3dx9dt:ccompiler.obj
 0001:000683a2       ?CompileInternal@CCompiler@D3DXShader@@IAEJPAVCPreProcessor@2@PAVCNode@2@PBD111H2KPAPAUID3DXBuffer@@PAPAUID3DXConstantTable@@@Z 100693a2 f   d3dx9dt:ccompiler.obj
 0001:00068738       ?Compile@CCompiler@D3DXShader@@QAEJPAVCPreProcessor@2@PAVCNode@2@PBDH2KPAPAUID3DXBuffer@@PAPAUID3DXConstantTable@@@Z 10069738 f   d3dx9dt:ccompiler.obj
 0001:0006878a       ?CompileFunction@CCompiler@D3DXShader@@QAEJPAVCPreProcessor@2@PAVCNode@2@11HPBDKPAPAUID3DXBuffer@@PAPAUID3DXConstantTable@@@Z 1006978a f   d3dx9dt:ccompiler.obj
 0001:000687c5       ?CompileExpression@CCompiler@D3DXShader@@QAEJPAVCPreProcessor@2@PAVCNode@2@1PBDKPAPAUID3DXBuffer@@PAPAUID3DXConstantTable@@@Z 100697c5 f   d3dx9dt:ccompiler.obj
 0001:000689c8       ??0IUnknown@@QAE@XZ        100699c8 f i d3dx9dt:cconstanttable.obj
 0001:000689cb       ??1CConstantTable@D3DXShader@@QAE@XZ 100699cb f   d3dx9dt:cconstanttable.obj
 0001:00068a02       _IsEqualGUID@8             10069a02 f i d3dx9dt:cconstanttable.obj
 0001:00068a1d       ??_GCConstantTable@D3DXShader@@QAEPAXI@Z 10069a1d f i d3dx9dt:cconstanttable.obj
 0001:00068a3c       _==@8                      10069a3c f i d3dx9dt:cconstanttable.obj
 0001:00068a57       ?GetTypeSize@CConstantTable@D3DXShader@@QAEIPAU_D3DXSHADER_CONSTANTINFO@@PAU_D3DXSHADER_TYPEINFO@@@Z 10069a57 f   d3dx9dt:cconstanttable.obj
 0001:00068af6       ?GetConstantTable@CConstantTable@D3DXShader@@QAEJPAPAU_D3DXSHADER_CONSTANTTABLE@@@Z 10069af6 f   d3dx9dt:cconstanttable.obj
 0001:00068b27       ?GetConstantInfo@CConstantTable@D3DXShader@@QAEJPBDPAPAU_D3DXSHADER_CONSTANTINFO@@PAPAU_D3DXSHADER_TYPEINFO@@PAI@Z 10069b27 f   d3dx9dt:cconstanttable.obj
 0001:00068c7e       ?DynamicHandle@CConstantTable@D3DXShader@@QAEPBDPAU_D3DXSHADER_CONSTANTINFO@@PAU_D3DXSHADER_TYPEINFO@@@Z 10069c7e f   d3dx9dt:cconstanttable.obj
 0001:00068d04       ?SetTyped@CConstantTable@D3DXShader@@QAEJPAUIDirect3DDevice9@@PBDAAU_D3DXCT_TYPE@2@PBX@Z 10069d04 f   d3dx9dt:cconstanttable.obj
 0001:000693c1       ?SetTypedFromPtrs@CConstantTable@D3DXShader@@QAEJPAUIDirect3DDevice9@@PBDAAU_D3DXCT_TYPE@2@PAPBX@Z 1006a3c1 f   d3dx9dt:cconstanttable.obj
 0001:000698ad       ?QueryInterface@CConstantTable@D3DXShader@@UAGJABU_GUID@@PAPAX@Z 1006a8ad f   d3dx9dt:cconstanttable.obj
 0001:00069905       ?AddRef@CConstantTable@D3DXShader@@UAGKXZ 1006a905 f   d3dx9dt:cconstanttable.obj
 0001:00069915       ?Release@CConstantTable@D3DXShader@@UAGKXZ 1006a915 f   d3dx9dt:cconstanttable.obj
 0001:00069937       ?GetBufferPointer@CConstantTable@D3DXShader@@UAGPAXXZ 1006a937 f   d3dx9dt:cconstanttable.obj
 0001:00069944       ?GetBufferSize@CConstantTable@D3DXShader@@UAGKXZ 1006a944 f   d3dx9dt:cconstanttable.obj
 0001:00069951       ?GetDesc@CConstantTable@D3DXShader@@UAGJPAU_D3DXCONSTANTTABLE_DESC@@@Z 1006a951 f   d3dx9dt:cconstanttable.obj
 0001:000699cb       ?GetConstantDesc@CConstantTable@D3DXShader@@UAGJPBDPAU_D3DXCONSTANT_DESC@@PAI@Z 1006a9cb f   d3dx9dt:cconstanttable.obj
 0001:00069b36       ?GetConstant@CConstantTable@D3DXShader@@UAGPBDPBDI@Z 1006ab36 f   d3dx9dt:cconstanttable.obj
 0001:00069c65       ?GetConstantByName@CConstantTable@D3DXShader@@UAGPBDPBD0@Z 1006ac65 f   d3dx9dt:cconstanttable.obj
 0001:0006a02b       ?GetConstantElement@CConstantTable@D3DXShader@@UAGPBDPBDI@Z 1006b02b f   d3dx9dt:cconstanttable.obj
 0001:0006a0bc       ?SetDefaults@CConstantTable@D3DXShader@@UAGJPAUIDirect3DDevice9@@@Z 1006b0bc f   d3dx9dt:cconstanttable.obj
 0001:0006a217       ?SetValue@CConstantTable@D3DXShader@@UAGJPAUIDirect3DDevice9@@PBDPBXI@Z 1006b217 f   d3dx9dt:cconstanttable.obj
 0001:0006a253       ?SetBool@CConstantTable@D3DXShader@@UAGJPAUIDirect3DDevice9@@PBDH@Z 1006b253 f   d3dx9dt:cconstanttable.obj
 0001:0006a286       ?SetBoolArray@CConstantTable@D3DXShader@@UAGJPAUIDirect3DDevice9@@PBDPBHI@Z 1006b286 f   d3dx9dt:cconstanttable.obj
 0001:0006a2bb       ?SetInt@CConstantTable@D3DXShader@@UAGJPAUIDirect3DDevice9@@PBDH@Z 1006b2bb f   d3dx9dt:cconstanttable.obj
 0001:0006a2f2       ?SetIntArray@CConstantTable@D3DXShader@@UAGJPAUIDirect3DDevice9@@PBDPBHI@Z 1006b2f2 f   d3dx9dt:cconstanttable.obj
 0001:0006a32b       ?SetFloat@CConstantTable@D3DXShader@@UAGJPAUIDirect3DDevice9@@PBDM@Z 1006b32b f   d3dx9dt:cconstanttable.obj
 0001:0006a362       ?SetFloatArray@CConstantTable@D3DXShader@@UAGJPAUIDirect3DDevice9@@PBDPBMI@Z 1006b362 f   d3dx9dt:cconstanttable.obj
 0001:0006a39b       ?SetVector@CConstantTable@D3DXShader@@UAGJPAUIDirect3DDevice9@@PBDPBUD3DXVECTOR4@@@Z 1006b39b f   d3dx9dt:cconstanttable.obj
 0001:0006a3d4       ?SetVectorArray@CConstantTable@D3DXShader@@UAGJPAUIDirect3DDevice9@@PBDPBUD3DXVECTOR4@@I@Z 1006b3d4 f   d3dx9dt:cconstanttable.obj
 0001:0006a410       ?SetMatrix@CConstantTable@D3DXShader@@UAGJPAUIDirect3DDevice9@@PBDPBUD3DXMATRIX@@@Z 1006b410 f   d3dx9dt:cconstanttable.obj
 0001:0006a44d       ?SetMatrixArray@CConstantTable@D3DXShader@@UAGJPAUIDirect3DDevice9@@PBDPBUD3DXMATRIX@@I@Z 1006b44d f   d3dx9dt:cconstanttable.obj
 0001:0006a489       ?SetMatrixPointerArray@CConstantTable@D3DXShader@@UAGJPAUIDirect3DDevice9@@PBDPAPBUD3DXMATRIX@@I@Z 1006b489 f   d3dx9dt:cconstanttable.obj
 0001:0006a4c5       ?SetMatrixTranspose@CConstantTable@D3DXShader@@UAGJPAUIDirect3DDevice9@@PBDPBUD3DXMATRIX@@@Z 1006b4c5 f   d3dx9dt:cconstanttable.obj
 0001:0006a4fd       ?SetMatrixTransposeArray@CConstantTable@D3DXShader@@UAGJPAUIDirect3DDevice9@@PBDPBUD3DXMATRIX@@I@Z 1006b4fd f   d3dx9dt:cconstanttable.obj
 0001:0006a534       ?SetMatrixTransposePointerArray@CConstantTable@D3DXShader@@UAGJPAUIDirect3DDevice9@@PBDPAPBUD3DXMATRIX@@I@Z 1006b534 f   d3dx9dt:cconstanttable.obj
 0001:0006a56b       ??0ID3DXBuffer@@QAE@XZ     1006b56b f i d3dx9dt:cconstanttable.obj
 0001:0006a56e       ??0ID3DXConstantTable@@QAE@XZ 1006b56e f i d3dx9dt:cconstanttable.obj
 0001:0006a571       ??0CConstantTable@D3DXShader@@QAE@XZ 1006b571 f   d3dx9dt:cconstanttable.obj
 0001:0006a597       ?Create@CConstantTable@D3DXShader@@SGJIPAPAV12@@Z 1006b597 f   d3dx9dt:cconstanttable.obj
 0001:0006a60a       ??1CBuffer@D3DXCore@@UAE@XZ 1006b60a f   d3dx9dt:cbuffer.obj
 0001:0006a61a       ?Init@CBuffer@D3DXCore@@UAEJK@Z 1006b61a f   d3dx9dt:cbuffer.obj
 0001:0006a644       ?AddRef@CBuffer@D3DXCore@@UAGKXZ 1006b644 f   d3dx9dt:cbuffer.obj
 0001:0006a654       ?Release@CBuffer@D3DXCore@@UAGKXZ 1006b654 f   d3dx9dt:cbuffer.obj
 0001:0006a677       ?GetBufferPointer@CBuffer@D3DXCore@@UAGPAXXZ 1006b677 f   d3dx9dt:cbuffer.obj
 0001:0006a684       ?GetBufferSize@CBuffer@D3DXCore@@UAGKXZ 1006b684 f   d3dx9dt:cbuffer.obj
 0001:0006a691       ?Grow@CBuffer@D3DXCore@@IAEJK@Z 1006b691 f   d3dx9dt:cbuffer.obj
 0001:0006a6eb       ??1CBufferA16@D3DXCore@@UAE@XZ 1006b6eb f   d3dx9dt:cbuffer.obj
 0001:0006a706       ??_ECBufferA16@D3DXCore@@UAEPAXI@Z 1006b706 f i d3dx9dt:cbuffer.obj
 0001:0006a706       ??_GCBufferA16@D3DXCore@@UAEPAXI@Z 1006b706 f i d3dx9dt:cbuffer.obj
 0001:0006a725       ?Init@CBufferA16@D3DXCore@@UAEJK@Z 1006b725 f   d3dx9dt:cbuffer.obj
 0001:0006a759       ?Init@CStringBuffer@D3DXCore@@UAEJK@Z 1006b759 f   d3dx9dt:cbuffer.obj
 0001:0006a780       ?AddString@CStringBuffer@D3DXCore@@UAEJPAD@Z 1006b780 f   d3dx9dt:cbuffer.obj
 0001:0006a88d       ??_GCBuffer@D3DXCore@@UAEPAXI@Z 1006b88d f i d3dx9dt:cbuffer.obj
 0001:0006a88d       ??_ECBuffer@D3DXCore@@UAEPAXI@Z 1006b88d f i d3dx9dt:cbuffer.obj
 0001:0006a8ac       ?QueryInterface@CBuffer@D3DXCore@@UAGJABU_GUID@@PAPAX@Z 1006b8ac f   d3dx9dt:cbuffer.obj
 0001:0006a8f3       ??0CBuffer@D3DXCore@@QAE@XZ 1006b8f3 f   d3dx9dt:cbuffer.obj
 0001:0006a90b       ?Create@CBuffer@D3DXCore@@SGJKPAPAV12@@Z 1006b90b f   d3dx9dt:cbuffer.obj
 0001:0006a978       ??0CBufferA16@D3DXCore@@QAE@XZ 1006b978 f i d3dx9dt:cbuffer.obj
 0001:0006a986       ??0CStringBuffer@D3DXCore@@QAE@XZ 1006b986 f   d3dx9dt:cbuffer.obj
 0001:0006a99c       ??_ECStringBuffer@D3DXCore@@UAEPAXI@Z 1006b99c f i d3dx9dt:cbuffer.obj
 0001:0006a99c       ??_GCStringBuffer@D3DXCore@@UAEPAXI@Z 1006b99c f i d3dx9dt:cbuffer.obj
 0001:0006a9bb       ?Create@CStringBuffer@D3DXCore@@SGJKPAPAV12@@Z 1006b9bb f   d3dx9dt:cbuffer.obj
 0001:0006aa28       _D3DXCreateBuffer@8        1006ba28 f   d3dx9dt:cbuffer.obj
 0001:0006aa31       ?Create@CBufferA16@D3DXCore@@SGJKPAPAV12@@Z 1006ba31 f   d3dx9dt:cbuffer.obj
 0001:0006aaa4       ?vmlsAcos4@@YGXQBMQAM@Z    1006baa4 f   d3dx9dt:d3dxtrigsse.obj
 0001:0006acac       ?acos2_ss@@YGXMPAM@Z       1006bcac f   d3dx9dt:d3dxtrigsse.obj
 0001:0006ad9d       ?sse_sin4@@YG?AU__m128@@U1@@Z 1006bd9d f   d3dx9dt:d3dxtrigsse.obj
 0001:0006aef8       ?sse_sincos@@YG?AU__m128@@U1@@Z 1006bef8 f   d3dx9dt:d3dxtrigsse.obj
 0001:0006b086       ?sse_SinCos4@@YGXQBMQAM1@Z 1006c086 f   d3dx9dt:d3dxtrigsse.obj
 0001:0006b272       ?sse2_atan2@@YG?AU__m128@@QBM0@Z 1006c272 f   d3dx9dt:d3dxtrigsse2.obj
 0001:0006b742       ?sse2_sincos@@YG?AU__m128@@U1@@Z 1006c742 f   d3dx9dt:d3dxtrigsse2.obj
 0001:0006b82a       ?sse2_SinCos4@@YGXQBMQAM1@Z 1006c82a f   d3dx9dt:d3dxtrigsse2.obj
 0001:0006b980       _a_atan                    1006c980 f   d3dx9dt:amdmath.obj
 0001:0006ba40       _a_atan2                   1006ca40 f   d3dx9dt:amdmath.obj
 0001:0006bb40       _a_acos                    1006cb40 f   d3dx9dt:amdmath.obj
 0001:0006bc40       _a_asin                    1006cc40 f   d3dx9dt:amdmath.obj
 0001:0006bd40       _a_log                     1006cd40 f   d3dx9dt:amdmath.obj
 0001:0006be40       _a_log10                   1006ce40 f   d3dx9dt:amdmath.obj
 0001:0006be60       _a_exp                     1006ce60 f   d3dx9dt:amdmath.obj
 0001:0006bf40       _a_sqrt                    1006cf40 f   d3dx9dt:amdmath.obj
 0001:0006bf60       _a_fabs                    1006cf60 f   d3dx9dt:amdmath.obj
 0001:0006bf80       _a_ceil                    1006cf80 f   d3dx9dt:amdmath.obj
 0001:0006bfc0       _a_floor                   1006cfc0 f   d3dx9dt:amdmath.obj
 0001:0006c000       _a_frexp                   1006d000 f   d3dx9dt:amdmath.obj
 0001:0006c040       _a_ldexp                   1006d040 f   d3dx9dt:amdmath.obj
 0001:0006c0a0       _a_modf                    1006d0a0 f   d3dx9dt:amdmath.obj
 0001:0006c0c0       _a_fmod                    1006d0c0 f   d3dx9dt:amdmath.obj
 0001:0006c120       _a_sincos                  1006d120 f   d3dx9dt:amdmath.obj
 0001:0006c120       _a_cos                     1006d120 f   d3dx9dt:amdmath.obj
 0001:0006c220       _a_sin                     1006d220 f   d3dx9dt:amdmath.obj
 0001:0006c320       _a_tan                     1006d320 f   d3dx9dt:amdmath.obj
 0001:0006c440       _a_pow                     1006d440 f   d3dx9dt:amdmath.obj
 0001:0006cade       ?jinit_d_main_controller@D3DX@@YGXPAUjpeg_decompress_struct@1@H@Z 1006dade f   d3dx9dt:jdmainct.obj
 0001:0006d71d       ?jinit_d_coef_controller@D3DX@@YGXPAUjpeg_decompress_struct@1@H@Z 1006e71d f   d3dx9dt:jdcoefct.obj
 0001:0006d805       ?jpeg_make_d_derived_tbl@D3DX@@YGXPAUjpeg_decompress_struct@1@HHPAPAUd_derived_tbl@1@@Z 1006e805 f   d3dx9dt:jdhuff.obj
 0001:0006da7b       ?jpeg_fill_bit_buffer@D3DX@@YGHPAUbitread_working_state@1@JHH@Z 1006ea7b f   d3dx9dt:jdhuff.obj
 0001:0006db7f       ?jpeg_huff_decode@D3DX@@YGHPAUbitread_working_state@1@JHPAUd_derived_tbl@1@H@Z 1006eb7f f   d3dx9dt:jdhuff.obj
 0001:0006e153       ?jinit_huff_decoder@D3DX@@YGXPAUjpeg_decompress_struct@1@@Z 1006f153 f   d3dx9dt:jdhuff.obj
 0001:0006ec38       ?jinit_phuff_decoder@D3DX@@YGXPAUjpeg_decompress_struct@1@@Z 1006fc38 f   d3dx9dt:jdphuff.obj
 0001:0006ee7a       ?jinit_inverse_dct@D3DX@@YGXPAUjpeg_decompress_struct@1@@Z 1006fe7a f   d3dx9dt:jddctmgr.obj
 0001:0006efb1       ?jinit_d_post_controller@D3DX@@YGXPAUjpeg_decompress_struct@1@H@Z 1006ffb1 f   d3dx9dt:jdpostct.obj
 0001:0006fd9e       ?jinit_upsampler@D3DX@@YGXPAUjpeg_decompress_struct@1@@Z 10070d9e f   d3dx9dt:jdsample.obj
 0001:00070caa       ?jinit_color_deconverter@D3DX@@YGXPAUjpeg_decompress_struct@1@@Z 10071caa f   d3dx9dt:jdcolor.obj
 0001:0007181c       ?jinit_merged_upsampler@D3DX@@YGXPAUjpeg_decompress_struct@1@@Z 1007281c f   d3dx9dt:jdmerge.obj
 0001:00071891       ?jpeg_get_small@D3DX@@YGPAXPAUjpeg_common_struct@1@I@Z 10072891 f   d3dx9dt:jmemansi.obj
 0001:000718b8       ?jpeg_free_small@D3DX@@YGXPAUjpeg_common_struct@1@PAXI@Z 100728b8 f   d3dx9dt:jmemansi.obj
 0001:000718d3       ?jpeg_get_large@D3DX@@YGPAXPAUjpeg_common_struct@1@I@Z 100728d3 f   d3dx9dt:jmemansi.obj
 0001:000718fa       ?jpeg_free_large@D3DX@@YGXPAUjpeg_common_struct@1@PAXI@Z 100728fa f   d3dx9dt:jmemansi.obj
 0001:00071915       ?jpeg_mem_available@D3DX@@YGJPAUjpeg_common_struct@1@JJJ@Z 10072915 f   d3dx9dt:jmemansi.obj
 0001:000719ed       ?jpeg_open_backing_store@D3DX@@YGXPAUjpeg_common_struct@1@PAUbacking_store_struct@1@J@Z 100729ed f   d3dx9dt:jmemansi.obj
 0001:00071a41       ?jpeg_mem_init@D3DX@@YGJPAUjpeg_common_struct@1@@Z 10072a41 f   d3dx9dt:jmemansi.obj
 0001:00071a49       ?jpeg_mem_term@D3DX@@YGXPAUjpeg_common_struct@1@@Z 10072a49 f   d3dx9dt:jmemansi.obj
 0001:00071a4c       _d3dx_inflate_blocks_reset@12 10072a4c f   d3dx9dt:infblock.obj
 0001:00071ab2       _d3dx_inflate_blocks_new@12 10072ab2 f   d3dx9dt:infblock.obj
 0001:00071b30       _d3dx_inflate_blocks@12    10072b30 f   d3dx9dt:infblock.obj
 0001:0007227c       _d3dx_inflate_blocks_free@8 1007327c f   d3dx9dt:infblock.obj
 0001:000722af       _d3dx_inflate_set_dictionary@12 100732af f   d3dx9dt:infblock.obj
 0001:000722e2       _d3dx_inflate_blocks_sync_point@4 100732e2 f   d3dx9dt:infblock.obj
 0001:000722f1       _d3dx_adler32@12           100732f1 f   d3dx9dt:adler32.obj
 0001:0007240c       _d3dx_zcalloc@12           1007340c f   d3dx9dt:default_allocator.obj
 0001:00072428       _d3dx_zcfree@8             10073428 f   d3dx9dt:default_allocator.obj
 0001:00072511       ?jinit_c_main_controller@D3DX@@YGXPAUjpeg_compress_struct@1@H@Z 10073511 f   d3dx9dt:jcmainct.obj
 0001:00072b82       ?jinit_c_coef_controller@D3DX@@YGXPAUjpeg_compress_struct@1@H@Z 10073b82 f   d3dx9dt:jccoefct.obj
 0001:00072c26       ?jpeg_make_c_derived_tbl@D3DX@@YGXPAUjpeg_compress_struct@1@HHPAPAUc_derived_tbl@1@@Z 10073c26 f   d3dx9dt:jchuff.obj
 0001:000733a4       ?jpeg_gen_optimal_table@D3DX@@YGXPAUjpeg_compress_struct@1@PAUJHUFF_TBL@1@QAJ@Z 100743a4 f   d3dx9dt:jchuff.obj
 0001:00073770       ?jinit_huff_encoder@D3DX@@YGXPAUjpeg_compress_struct@1@@Z 10074770 f   d3dx9dt:jchuff.obj
 0001:00074167       ?jinit_phuff_encoder@D3DX@@YGXPAUjpeg_compress_struct@1@@Z 10075167 f   d3dx9dt:jcphuff.obj
 0001:000745ce       ?jinit_forward_dct@D3DX@@YGXPAUjpeg_compress_struct@1@@Z 100755ce f   d3dx9dt:jcdctmgr.obj
 0001:00074a87       ?jinit_c_prep_controller@D3DX@@YGXPAUjpeg_compress_struct@1@H@Z 10075a87 f   d3dx9dt:jcprepct.obj
 0001:0007541e       ?jinit_downsampler@D3DX@@YGXPAUjpeg_compress_struct@1@@Z 1007641e f   d3dx9dt:jcsample.obj
 0001:00075b67       ?jinit_color_converter@D3DX@@YGXPAUjpeg_compress_struct@1@@Z 10076b67 f   d3dx9dt:jccolor.obj
 0001:0007662b       ?jinit_c_master_control@D3DX@@YGXPAUjpeg_compress_struct@1@H@Z 1007762b f   d3dx9dt:jcmaster.obj
 0001:000766ce       ??0CNode@D3DXShader@@QAE@XZ 100776ce f   d3dx9dt:cnode.obj
 0001:00076709       ??0CNode@D3DXShader@@QAE@W4_D3DXNODE_TYPE@1@@Z 10077709 f   d3dx9dt:cnode.obj
 0001:0007674c       ??1CNode@D3DXShader@@UAE@XZ 1007774c f   d3dx9dt:cnode.obj
 0001:00076794       ?IsEqual@CNode@D3DXShader@@UAEHPAV12@@Z 10077794 f   d3dx9dt:cnode.obj
 0001:000767ad       ?Copy@CNode@D3DXShader@@UAEPAV12@XZ 100777ad f   d3dx9dt:cnode.obj
 0001:000767cc       ?Print@CNode@D3DXShader@@UAEXXZ 100777cc f   d3dx9dt:cnode.obj
 0001:000767d8       ?Print@CNode@D3DXShader@@SGXPAV12@@Z 100777d8 f   d3dx9dt:cnode.obj
 0001:00076806       ?IsEqual@CNode@D3DXShader@@SGHPAV12@0@Z 10077806 f   d3dx9dt:cnode.obj
 0001:00076826       ?Copy@CNode@D3DXShader@@SGPAV12@PAV12@@Z 10077826 f   d3dx9dt:cnode.obj
 0001:0007683d       ?Append@CNode@D3DXShader@@SGPAV12@PAV12@0@Z 1007783d f   d3dx9dt:cnode.obj
 0001:00076864       ?NewLine@CNode@D3DXShader@@IAEXXZ 10077864 f   d3dx9dt:cnode.obj
 0001:00076890       ??0CNodeList@D3DXShader@@QAE@XZ 10077890 f   d3dx9dt:cnode.obj
 0001:000768a8       ??0CNodeList@D3DXShader@@QAE@PAVCNode@1@0PBD@Z 100778a8 f   d3dx9dt:cnode.obj
 0001:000768d4       ??1CNodeList@D3DXShader@@UAE@XZ 100778d4 f   d3dx9dt:cnode.obj
 0001:000768df       ?IsEqual@CNodeList@D3DXShader@@UAEHPAVCNode@2@@Z 100778df f   d3dx9dt:cnode.obj
 0001:0007693a       ?Copy@CNodeList@D3DXShader@@UAEPAV12@XZ 1007793a f   d3dx9dt:cnode.obj
 0001:000769bc       ?Print@CNodeList@D3DXShader@@UAEXXZ 100779bc f   d3dx9dt:cnode.obj
 0001:00076ae5       ??0CNodeToken@D3DXShader@@QAE@XZ 10077ae5 f   d3dx9dt:cnode.obj
 0001:00076af9       ??0CNodeToken@D3DXShader@@QAE@PBUD3DXTOKEN@1@@Z 10077af9 f   d3dx9dt:cnode.obj
 0001:00076b22       ??1CNodeToken@D3DXShader@@UAE@XZ 10077b22 f   d3dx9dt:cnode.obj
 0001:00076b2d       ?IsEqual@CNodeToken@D3DXShader@@UAEHPAVCNode@2@@Z 10077b2d f   d3dx9dt:cnode.obj
 0001:00076b52       ?Copy@CNodeToken@D3DXShader@@UAEPAV12@XZ 10077b52 f   d3dx9dt:cnode.obj
 0001:00076b81       ?Print@CNodeToken@D3DXShader@@UAEXXZ 10077b81 f   d3dx9dt:cnode.obj
 0001:00076c58       ??0CNodeProgram@D3DXShader@@QAE@XZ 10077c58 f   d3dx9dt:cnode.obj
 0001:00076c7a       ??0CNodeProgram@D3DXShader@@QAE@IIIPAVCNode@1@@Z 10077c7a f   d3dx9dt:cnode.obj
 0001:00076cac       ??1CNodeProgram@D3DXShader@@UAE@XZ 10077cac f   d3dx9dt:cnode.obj
 0001:00076cca       ?IsEqual@CNodeProgram@D3DXShader@@UAEHPAVCNode@2@@Z 10077cca f   d3dx9dt:cnode.obj
 0001:00076d0b       ?Copy@CNodeProgram@D3DXShader@@UAEPAV12@XZ 10077d0b f   d3dx9dt:cnode.obj
 0001:00076d62       ?Print@CNodeProgram@D3DXShader@@UAEXXZ 10077d62 f   d3dx9dt:cnode.obj
 0001:00076d8a       ??0CNodeScope@D3DXShader@@QAE@XZ 10077d8a f   d3dx9dt:cnode.obj
 0001:00076dac       ??0CNodeScope@D3DXShader@@QAE@W4_D3DXSCOPE_TYPE@1@PBDPAVCNode@1@PAV01@@Z 10077dac f   d3dx9dt:cnode.obj
 0001:00076dde       ??1CNodeScope@D3DXShader@@UAE@XZ 10077dde f   d3dx9dt:cnode.obj
 0001:00076e09       ?IsEqual@CNodeScope@D3DXShader@@UAEHPAVCNode@2@@Z 10077e09 f   d3dx9dt:cnode.obj
 0001:00076e58       ?Copy@CNodeScope@D3DXShader@@UAEPAV12@XZ 10077e58 f   d3dx9dt:cnode.obj
 0001:00076ebc       ?Print@CNodeScope@D3DXShader@@UAEXXZ 10077ebc f   d3dx9dt:cnode.obj
 0001:00076f68       ??0CNodeDecl@D3DXShader@@QAE@XZ 10077f68 f   d3dx9dt:cnode.obj
 0001:00076f97       ??0CNodeDecl@D3DXShader@@QAE@W4_D3DXDECL_TYPE@1@PAVCNode@1@11@Z 10077f97 f   d3dx9dt:cnode.obj
 0001:00076fd8       ??1CNodeDecl@D3DXShader@@UAE@XZ 10077fd8 f   d3dx9dt:cnode.obj
 0001:00077010       ?IsEqual@CNodeDecl@D3DXShader@@UAEHPAVCNode@2@@Z 10078010 f   d3dx9dt:cnode.obj
 0001:00077086       ?Copy@CNodeDecl@D3DXShader@@UAEPAV12@XZ 10078086 f   d3dx9dt:cnode.obj
 0001:0007710f       ?Print@CNodeDecl@D3DXShader@@UAEXXZ 1007810f f   d3dx9dt:cnode.obj
 0001:0007716e       ??0CNodeUsage@D3DXShader@@QAE@XZ 1007816e f   d3dx9dt:cnode.obj
 0001:0007718d       ??0CNodeUsage@D3DXShader@@QAE@KPAVCNode@1@0@Z 1007818d f   d3dx9dt:cnode.obj
 0001:000771b9       ??1CNodeUsage@D3DXShader@@UAE@XZ 100781b9 f   d3dx9dt:cnode.obj
 0001:000771e4       ?IsEqual@CNodeUsage@D3DXShader@@UAEHPAVCNode@2@@Z 100781e4 f   d3dx9dt:cnode.obj
 0001:0007722b       ?Copy@CNodeUsage@D3DXShader@@UAEPAV12@XZ 1007822b f   d3dx9dt:cnode.obj
 0001:00077289       ?PrintUsage@CNodeUsage@D3DXShader@@SGXK@Z 10078289 f   d3dx9dt:cnode.obj
 0001:00077344       ??0CNodeArray@D3DXShader@@QAE@XZ 10078344 f   d3dx9dt:cnode.obj
 0001:00077360       ??0CNodeArray@D3DXShader@@QAE@PAVCNode@1@I@Z 10078360 f   d3dx9dt:cnode.obj
 0001:00077386       ??1CNodeArray@D3DXShader@@UAE@XZ 10078386 f   d3dx9dt:cnode.obj
 0001:000773a4       ?IsEqual@CNodeArray@D3DXShader@@UAEHPAVCNode@2@@Z 100783a4 f   d3dx9dt:cnode.obj
 0001:000773d5       ?Copy@CNodeArray@D3DXShader@@UAEPAV12@XZ 100783d5 f   d3dx9dt:cnode.obj
 0001:00077420       ?Print@CNodeArray@D3DXShader@@UAEXXZ 10078420 f   d3dx9dt:cnode.obj
 0001:00077447       ??0CNodeType@D3DXShader@@QAE@XZ 10078447 f   d3dx9dt:cnode.obj
 0001:00077470       ??0CNodeType@D3DXShader@@QAE@W4_D3DXTYPE_TEMPLATE@1@W4_D3DXCOMPONENT_TYPE@1@IIK@Z 10078470 f   d3dx9dt:cnode.obj
 0001:000774a8       ??1CNodeType@D3DXShader@@UAE@XZ 100784a8 f   d3dx9dt:cnode.obj
 0001:000774b3       ?IsEqual@CNodeType@D3DXShader@@UAEHPAVCNode@2@@Z 100784b3 f   d3dx9dt:cnode.obj
 0001:000774f6       ?Copy@CNodeType@D3DXShader@@UAEPAV12@XZ 100784f6 f   d3dx9dt:cnode.obj
 0001:00077536       ?Print@CNodeType@D3DXShader@@UAEXXZ 10078536 f   d3dx9dt:cnode.obj
 0001:0007775f       ??0CNodeFunction@D3DXShader@@QAE@XZ 1007875f f   d3dx9dt:cnode.obj
 0001:00077799       ??0CNodeFunction@D3DXShader@@QAE@IIKPAVCNode@1@000000@Z 10078799 f   d3dx9dt:cnode.obj
 0001:000777f7       ??1CNodeFunction@D3DXShader@@UAE@XZ 100787f7 f   d3dx9dt:cnode.obj
 0001:00077861       ?IsEqual@CNodeFunction@D3DXShader@@UAEHPAVCNode@2@@Z 10078861 f   d3dx9dt:cnode.obj
 0001:0007791f       ?Copy@CNodeFunction@D3DXShader@@UAEPAV12@XZ 1007891f f   d3dx9dt:cnode.obj
 0001:000779f8       ?Print@CNodeFunction@D3DXShader@@UAEXXZ 100789f8 f   d3dx9dt:cnode.obj
 0001:00077ab6       ??0CNodeVariable@D3DXShader@@QAE@XZ 10078ab6 f   d3dx9dt:cnode.obj
 0001:00077aed       ??0CNodeVariable@D3DXShader@@QAE@IIW4_D3DXSCOPE_TYPE@1@KPAVCNode@1@1111@Z 10078aed f   d3dx9dt:cnode.obj
 0001:00077b45       ??1CNodeVariable@D3DXShader@@UAE@XZ 10078b45 f   d3dx9dt:cnode.obj
 0001:00077ba0       ?IsEqual@CNodeVariable@D3DXShader@@UAEHPAVCNode@2@@Z 10078ba0 f   d3dx9dt:cnode.obj
 0001:00077c4c       ?Copy@CNodeVariable@D3DXShader@@UAEPAV12@XZ 10078c4c f   d3dx9dt:cnode.obj
 0001:00077d32       ?Print@CNodeVariable@D3DXShader@@UAEXXZ 10078d32 f   d3dx9dt:cnode.obj
 0001:00077dd2       ??0CNodeStatement@D3DXShader@@QAE@XZ 10078dd2 f   d3dx9dt:cnode.obj
 0001:00077dfa       ??0CNodeStatement@D3DXShader@@QAE@W4_D3DXSTMT_TYPE@1@PAVCNode@1@1111@Z 10078dfa f   d3dx9dt:cnode.obj
 0001:00077e38       ??1CNodeStatement@D3DXShader@@UAE@XZ 10078e38 f   d3dx9dt:cnode.obj
 0001:00077e8a       ?IsEqual@CNodeStatement@D3DXShader@@UAEHPAVCNode@2@@Z 10078e8a f   d3dx9dt:cnode.obj
 0001:00077efe       ?Copy@CNodeStatement@D3DXShader@@UAEPAV12@XZ 10078efe f   d3dx9dt:cnode.obj
 0001:00077f95       ?Print@CNodeStatement@D3DXShader@@UAEXXZ 10078f95 f   d3dx9dt:cnode.obj
 0001:00078021       ??0CNodeExpression@D3DXShader@@QAE@XZ 10079021 f   d3dx9dt:cnode.obj
 0001:0007805a       ??0CNodeExpression@D3DXShader@@QAE@PAVCNode@1@W4_D3DXEXPR_OP@1@00HPBUD3DXTOKEN@1@@Z 1007905a f   d3dx9dt:cnode.obj
 0001:000780a9       ??1CNodeExpression@D3DXShader@@UAE@XZ 100790a9 f   d3dx9dt:cnode.obj
 0001:000780e1       ?IsEqual@CNodeExpression@D3DXShader@@UAEHPAVCNode@2@@Z 100790e1 f   d3dx9dt:cnode.obj
 0001:0007815e       ?Copy@CNodeExpression@D3DXShader@@UAEPAV12@XZ 1007915e f   d3dx9dt:cnode.obj
 0001:000781f9       ?Print@CNodeExpression@D3DXShader@@UAEXXZ 100791f9 f   d3dx9dt:cnode.obj
 0001:00078465       ??0CNodeValue@D3DXShader@@QAE@XZ 10079465 f   d3dx9dt:cnode.obj
 0001:00078496       ??0CNodeValue@D3DXShader@@QAE@PBU_D3DXVALUE@1@PBUD3DXTOKEN@1@@Z 10079496 f   d3dx9dt:cnode.obj
 0001:000784f3       ??0CNodeValue@D3DXShader@@QAE@W4_D3DXVALUE_TYPE@1@IPBUD3DXTOKEN@1@@Z 100794f3 f   d3dx9dt:cnode.obj
 0001:00078528       ??0CNodeValue@D3DXShader@@QAE@W4_D3DXVALUE_TYPE@1@NPBUD3DXTOKEN@1@@Z 10079528 f   d3dx9dt:cnode.obj
 0001:0007855d       ??0CNodeValue@D3DXShader@@QAE@W4_D3DXVALUE_TYPE@1@PAVCNode@1@PBUD3DXTOKEN@1@@Z 1007955d f   d3dx9dt:cnode.obj
 0001:00078592       ??0CNodeValue@D3DXShader@@QAE@W4_D3DXVALUE_TYPE@1@PAUID3DXBuffer@@PBUD3DXTOKEN@1@@Z 10079592 f   d3dx9dt:cnode.obj
 0001:000785d1       ??0CNodeValue@D3DXShader@@QAE@W4_D3DXVALUE_TYPE@1@IIPBUD3DXTOKEN@1@@Z 100795d1 f   d3dx9dt:cnode.obj
 0001:0007860c       ??1CNodeValue@D3DXShader@@UAE@XZ 1007960c f   d3dx9dt:cnode.obj
 0001:00078647       ?IsEqual@CNodeValue@D3DXShader@@UAEHPAVCNode@2@@Z 10079647 f   d3dx9dt:cnode.obj
 0001:00078696       ?Copy@CNodeValue@D3DXShader@@UAEPAV12@XZ 10079696 f   d3dx9dt:cnode.obj
 0001:0007871a       ?Print@CNodeValue@D3DXShader@@UAEXXZ 1007971a f   d3dx9dt:cnode.obj
 0001:000787cf       ??0CNodeState@D3DXShader@@QAE@XZ 100797cf f   d3dx9dt:cnode.obj
 0001:000787ee       ??0CNodeState@D3DXShader@@QAE@PAVCNode@1@00@Z 100797ee f   d3dx9dt:cnode.obj
 0001:0007881a       ??1CNodeState@D3DXShader@@UAE@XZ 1007981a f   d3dx9dt:cnode.obj
 0001:00078852       ?IsEqual@CNodeState@D3DXShader@@UAEHPAVCNode@2@@Z 10079852 f   d3dx9dt:cnode.obj
 0001:000788a0       ?Copy@CNodeState@D3DXShader@@UAEPAV12@XZ 100798a0 f   d3dx9dt:cnode.obj
 0001:0007890b       ?Print@CNodeState@D3DXShader@@UAEXXZ 1007990b f   d3dx9dt:cnode.obj
 0001:0007895f       ??0CNodeBuffer@D3DXShader@@QAE@XZ 1007995f f   d3dx9dt:cnode.obj
 0001:00078977       ??0CNodeBuffer@D3DXShader@@QAE@PBUD3DXTOKEN@1@PAUID3DXBuffer@@@Z 10079977 f   d3dx9dt:cnode.obj
 0001:000789b0       ??1CNodeBuffer@D3DXShader@@UAE@XZ 100799b0 f   d3dx9dt:cnode.obj
 0001:000789d2       ?IsEqual@CNodeBuffer@D3DXShader@@UAEHPAVCNode@2@@Z 100799d2 f   d3dx9dt:cnode.obj
 0001:00078a0a       ?Copy@CNodeBuffer@D3DXShader@@UAEPAV12@XZ 10079a0a f   d3dx9dt:cnode.obj
 0001:00078a5c       ?Print@CNodeBuffer@D3DXShader@@UAEXXZ 10079a5c f   d3dx9dt:cnode.obj
 0001:00078a91       ??0CNodeRegister@D3DXShader@@QAE@XZ 10079a91 f   d3dx9dt:cnode.obj
 0001:00078aad       ??0CNodeRegister@D3DXShader@@QAE@PAVCNode@1@0@Z 10079aad f   d3dx9dt:cnode.obj
 0001:00078ad3       ??1CNodeRegister@D3DXShader@@UAE@XZ 10079ad3 f   d3dx9dt:cnode.obj
 0001:00078afe       ?IsEqual@CNodeRegister@D3DXShader@@UAEHPAVCNode@2@@Z 10079afe f   d3dx9dt:cnode.obj
 0001:00078b3d       ?Copy@CNodeRegister@D3DXShader@@UAEPAV12@XZ 10079b3d f   d3dx9dt:cnode.obj
 0001:00078b95       ?Print@CNodeRegister@D3DXShader@@UAEXXZ 10079b95 f   d3dx9dt:cnode.obj
 0001:00078bd0       ??_GCNode@D3DXShader@@UAEPAXI@Z 10079bd0 f i d3dx9dt:cnode.obj
 0001:00078bd0       ??_ECNode@D3DXShader@@UAEPAXI@Z 10079bd0 f i d3dx9dt:cnode.obj
 0001:00078bef       ??_ECNodeList@D3DXShader@@UAEPAXI@Z 10079bef f i d3dx9dt:cnode.obj
 0001:00078bef       ??_GCNodeList@D3DXShader@@UAEPAXI@Z 10079bef f i d3dx9dt:cnode.obj
 0001:00078c14       ??_ECNodeToken@D3DXShader@@UAEPAXI@Z 10079c14 f i d3dx9dt:cnode.obj
 0001:00078c14       ??_GCNodeToken@D3DXShader@@UAEPAXI@Z 10079c14 f i d3dx9dt:cnode.obj
 0001:00078c39       ??_GCNodeProgram@D3DXShader@@UAEPAXI@Z 10079c39 f i d3dx9dt:cnode.obj
 0001:00078c39       ??_ECNodeProgram@D3DXShader@@UAEPAXI@Z 10079c39 f i d3dx9dt:cnode.obj
 0001:00078c58       ??_GCNodeScope@D3DXShader@@UAEPAXI@Z 10079c58 f i d3dx9dt:cnode.obj
 0001:00078c58       ??_ECNodeScope@D3DXShader@@UAEPAXI@Z 10079c58 f i d3dx9dt:cnode.obj
 0001:00078c77       ??_GCNodeDecl@D3DXShader@@UAEPAXI@Z 10079c77 f i d3dx9dt:cnode.obj
 0001:00078c77       ??_ECNodeDecl@D3DXShader@@UAEPAXI@Z 10079c77 f i d3dx9dt:cnode.obj
 0001:00078c96       ??_GCNodeUsage@D3DXShader@@UAEPAXI@Z 10079c96 f i d3dx9dt:cnode.obj
 0001:00078c96       ??_ECNodeUsage@D3DXShader@@UAEPAXI@Z 10079c96 f i d3dx9dt:cnode.obj
 0001:00078cb5       ?Print@CNodeUsage@D3DXShader@@UAEXXZ 10079cb5 f   d3dx9dt:cnode.obj
 0001:00078d1e       ??_GCNodeArray@D3DXShader@@UAEPAXI@Z 10079d1e f i d3dx9dt:cnode.obj
 0001:00078d1e       ??_ECNodeArray@D3DXShader@@UAEPAXI@Z 10079d1e f i d3dx9dt:cnode.obj
 0001:00078d3d       ??_ECNodeType@D3DXShader@@UAEPAXI@Z 10079d3d f i d3dx9dt:cnode.obj
 0001:00078d3d       ??_GCNodeType@D3DXShader@@UAEPAXI@Z 10079d3d f i d3dx9dt:cnode.obj
 0001:00078d62       ??_ECNodeFunction@D3DXShader@@UAEPAXI@Z 10079d62 f i d3dx9dt:cnode.obj
 0001:00078d62       ??_GCNodeFunction@D3DXShader@@UAEPAXI@Z 10079d62 f i d3dx9dt:cnode.obj
 0001:00078d81       ??_ECNodeVariable@D3DXShader@@UAEPAXI@Z 10079d81 f i d3dx9dt:cnode.obj
 0001:00078d81       ??_GCNodeVariable@D3DXShader@@UAEPAXI@Z 10079d81 f i d3dx9dt:cnode.obj
 0001:00078da0       ??_ECNodeStatement@D3DXShader@@UAEPAXI@Z 10079da0 f i d3dx9dt:cnode.obj
 0001:00078da0       ??_GCNodeStatement@D3DXShader@@UAEPAXI@Z 10079da0 f i d3dx9dt:cnode.obj
 0001:00078dbf       ??_GCNodeExpression@D3DXShader@@UAEPAXI@Z 10079dbf f i d3dx9dt:cnode.obj
 0001:00078dbf       ??_ECNodeExpression@D3DXShader@@UAEPAXI@Z 10079dbf f i d3dx9dt:cnode.obj
 0001:00078dde       ??_GCNodeValue@D3DXShader@@UAEPAXI@Z 10079dde f i d3dx9dt:cnode.obj
 0001:00078dde       ??_ECNodeValue@D3DXShader@@UAEPAXI@Z 10079dde f i d3dx9dt:cnode.obj
 0001:00078dfd       ??_ECNodeState@D3DXShader@@UAEPAXI@Z 10079dfd f i d3dx9dt:cnode.obj
 0001:00078dfd       ??_GCNodeState@D3DXShader@@UAEPAXI@Z 10079dfd f i d3dx9dt:cnode.obj
 0001:00078e1c       ??_ECNodeBuffer@D3DXShader@@UAEPAXI@Z 10079e1c f i d3dx9dt:cnode.obj
 0001:00078e1c       ??_GCNodeBuffer@D3DXShader@@UAEPAXI@Z 10079e1c f i d3dx9dt:cnode.obj
 0001:00078e3b       ??_GCNodeRegister@D3DXShader@@UAEPAXI@Z 10079e3b f i d3dx9dt:cnode.obj
 0001:00078e3b       ??_ECNodeRegister@D3DXShader@@UAEPAXI@Z 10079e3b f i d3dx9dt:cnode.obj
 0001:00078e5a       ??0CCommentBlock@D3DXShader@@QAE@K@Z 10079e5a f   d3dx9dt:ccommentblock.obj
 0001:00078e75       ??1CCommentBlock@D3DXShader@@QAE@XZ 10079e75 f   d3dx9dt:ccommentblock.obj
 0001:00078eab       ?Add@CCommentBlock@D3DXShader@@QAEJPBXIKPAK@Z 10079eab f   d3dx9dt:ccommentblock.obj
 0001:00078fe2       ?SizeInDwords@CCommentBlock@D3DXShader@@QAEIXZ 10079fe2 f   d3dx9dt:ccommentblock.obj
 0001:00078fee       ?WriteComment@CCommentBlock@D3DXShader@@QAEJPAKI@Z 10079fee f   d3dx9dt:ccommentblock.obj
 0001:000790d9       ??0CFragmentConstants@D3DXShader@@QAE@PAVCParse@1@PAVCNodeScope@1@@Z 1007a0d9 f   d3dx9dt:d3dx9fragment.obj
 0001:000790ed       ?CalcNumRegisters@D3DXShader@@YGJPAVCNode@1@PAI1@Z 1007a0ed f   d3dx9dt:d3dx9fragment.obj
 0001:000791d1       ?GetConstantSize@CFragmentConstants@D3DXShader@@QAEJPAUD3DXTOKEN@2@PBDPAI@Z 1007a1d1 f   d3dx9dt:d3dx9fragment.obj
 0001:000792cd       ?EmitDefaultValue@D3DXShader@@YGJPAVCCommentBlock@1@IIPAVCNode@1@PAK@Z 1007a2cd f   d3dx9dt:d3dx9fragment.obj
 0001:00079440       ?AddRegister@CFragmentConstants@D3DXShader@@QAEJPAVCCommentBlock@2@PAU_D3DXSHADER_CONSTANTINFO@@PBDIK@Z 1007a440 f   d3dx9dt:d3dx9fragment.obj
 0001:00079753       ?GatherFragments@D3DXShader@@YGJPAVCPreProcessor@1@KPAPAUID3DXBuffer@@1@Z 1007a753 f   d3dx9dt:d3dx9fragment.obj
 0001:00079cac       _D3DXGatherFragmentsFromFileA@24 1007acac f   d3dx9dt:d3dx9fragment.obj
 0001:00079d3c       _D3DXGatherFragmentsFromFileW@24 1007ad3c f   d3dx9dt:d3dx9fragment.obj
 0001:00079dcc       _D3DXGatherFragmentsFromResourceA@28 1007adcc f   d3dx9dt:d3dx9fragment.obj
 0001:00079e5f       _D3DXGatherFragmentsFromResourceW@28 1007ae5f f   d3dx9dt:d3dx9fragment.obj
 0001:00079ef2       _D3DXGatherFragments@28    1007aef2 f   d3dx9dt:d3dx9fragment.obj
 0001:00079f83       ??0CNodeAsmInstruction@D3DXShader@@QAE@XZ 1007af83 f   d3dx9dt:cnodeasm.obj
 0001:00079fbf       ??0CNodeAsmInstruction@D3DXShader@@QAE@PBUD3DXTOKEN@1@KKK@Z 1007afbf f   d3dx9dt:cnodeasm.obj
 0001:0007a00f       ??1CNodeAsmInstruction@D3DXShader@@UAE@XZ 1007b00f f   d3dx9dt:cnodeasm.obj
 0001:0007a056       ?Copy@CNodeAsmInstruction@D3DXShader@@UAEPAV12@XZ 1007b056 f   d3dx9dt:cnodeasm.obj
 0001:0007a11a       ?Print@CNodeAsmInstruction@D3DXShader@@UAEXXZ 1007b11a f   d3dx9dt:cnodeasm.obj
 0001:0007a11b       ??0CNodeAsmRegister@D3DXShader@@QAE@XZ 1007b11b f   d3dx9dt:cnodeasm.obj
 0001:0007a14e       ??0CNodeAsmRegister@D3DXShader@@QAE@KKKHPAVCNode@1@@Z 1007b14e f   d3dx9dt:cnodeasm.obj
 0001:0007a194       ??1CNodeAsmRegister@D3DXShader@@UAE@XZ 1007b194 f   d3dx9dt:cnodeasm.obj
 0001:0007a1b2       ?Copy@CNodeAsmRegister@D3DXShader@@UAEPAV12@XZ 1007b1b2 f   d3dx9dt:cnodeasm.obj
 0001:0007a21b       ?Print@CNodeAsmRegister@D3DXShader@@UAEXXZ 1007b21b f   d3dx9dt:cnodeasm.obj
 0001:0007a21c       ??_GCNodeAsmInstruction@D3DXShader@@UAEPAXI@Z 1007b21c f i d3dx9dt:cnodeasm.obj
 0001:0007a21c       ??_ECNodeAsmInstruction@D3DXShader@@UAEPAXI@Z 1007b21c f i d3dx9dt:cnodeasm.obj
 0001:0007a23b       ??_GCNodeAsmRegister@D3DXShader@@UAEPAXI@Z 1007b23b f i d3dx9dt:cnodeasm.obj
 0001:0007a23b       ??_ECNodeAsmRegister@D3DXShader@@UAEPAXI@Z 1007b23b f i d3dx9dt:cnodeasm.obj
 0001:0007a25a       ??0CBaseProgram@D3DXShader@@QAE@XZ 1007b25a f   d3dx9dt:cbaseprogram.obj
 0001:0007a280       ??_GCPool@D3DXShader@@QAEPAXI@Z 1007b280 f i d3dx9dt:cbaseprogram.obj
 0001:0007a29f       ??_GCArgument@D3DXShader@@QAEPAXI@Z 1007b29f f i d3dx9dt:cbaseprogram.obj
 0001:0007a2be       ??_GCInstruction@D3DXShader@@QAEPAXI@Z 1007b2be f i d3dx9dt:cbaseprogram.obj
 0001:0007a2dd       ?GetNumPools@CBaseProgram@D3DXShader@@QAEIXZ 1007b2dd f   d3dx9dt:cbaseprogram.obj
 0001:0007a2e1       ?GetNumArguments@CBaseProgram@D3DXShader@@QAEIXZ 1007b2e1 f   d3dx9dt:cbaseprogram.obj
 0001:0007a2e5       ?GetNumInstructions@CBaseProgram@D3DXShader@@QAEIXZ 1007b2e5 f   d3dx9dt:cbaseprogram.obj
 0001:0007a2e9       ?AddPool@CBaseProgram@D3DXShader@@QAEIPAVCPool@2@@Z 1007b2e9 f   d3dx9dt:cbaseprogram.obj
 0001:0007a3a1       ?AddArgument@CBaseProgram@D3DXShader@@QAEIPAVCArgument@2@@Z 1007b3a1 f   d3dx9dt:cbaseprogram.obj
 0001:0007a507       ?AddInstruction@CBaseProgram@D3DXShader@@QAEIPAVCInstruction@2@@Z 1007b507 f   d3dx9dt:cbaseprogram.obj
 0001:0007a5bf       ?AddPool@CBaseProgram@D3DXShader@@QAEIPBDKII@Z 1007b5bf f   d3dx9dt:cbaseprogram.obj
 0001:0007a616       ?AddArgument@CBaseProgram@D3DXShader@@QAEIIIIN@Z 1007b616 f   d3dx9dt:cbaseprogram.obj
 0001:0007a672       ?AddInstruction@CBaseProgram@D3DXShader@@QAEIKII@Z 1007b672 f   d3dx9dt:cbaseprogram.obj
 0001:0007a6c8       ?CopyPool@CBaseProgram@D3DXShader@@QAEIPAVCPool@2@@Z 1007b6c8 f   d3dx9dt:cbaseprogram.obj
 0001:0007a716       ?CopyArgument@CBaseProgram@D3DXShader@@QAEIPAVCArgument@2@@Z 1007b716 f   d3dx9dt:cbaseprogram.obj
 0001:0007a764       ?CopyInstruction@CBaseProgram@D3DXShader@@QAEIPAVCInstruction@2@@Z 1007b764 f   d3dx9dt:cbaseprogram.obj
 0001:0007a7b2       ?GetPool@CBaseProgram@D3DXShader@@QAEPAVCPool@2@I@Z 1007b7b2 f   d3dx9dt:cbaseprogram.obj
 0001:0007a7cb       ?GetArgument@CBaseProgram@D3DXShader@@QAEPAVCArgument@2@I@Z 1007b7cb f   d3dx9dt:cbaseprogram.obj
 0001:0007a7e4       ?GetInstruction@CBaseProgram@D3DXShader@@QAEPAVCInstruction@2@I@Z 1007b7e4 f   d3dx9dt:cbaseprogram.obj
 0001:0007a7fd       ??1CBaseProgram@D3DXShader@@UAE@XZ 1007b7fd f   d3dx9dt:cbaseprogram.obj
 0001:0007a892       ??_GCBaseProgram@D3DXShader@@UAEPAXI@Z 1007b892 f i d3dx9dt:cbaseprogram.obj
 0001:0007a892       ??_ECBaseProgram@D3DXShader@@UAEPAXI@Z 1007b892 f i d3dx9dt:cbaseprogram.obj
 0001:0007a8b1       ??0CInstruction@D3DXShader@@QAE@XZ 1007b8b1 f   d3dx9dt:cinstruction.obj
 0001:0007a8e6       ??1CInstruction@D3DXShader@@QAE@XZ 1007b8e6 f   d3dx9dt:cinstruction.obj
 0001:0007a914       ?Initialize@CInstruction@D3DXShader@@QAEJKIIH@Z 1007b914 f   d3dx9dt:cinstruction.obj
 0001:0007ab64       ?Initialize@CInstruction@D3DXShader@@QAEJPAV12@@Z 1007bb64 f   d3dx9dt:cinstruction.obj
 0001:0007ac0e       ?Instance@CInstruction@D3DXShader@@QAEJPAV12@@Z 1007bc0e f   d3dx9dt:cinstruction.obj
 0001:0007ac2b       ?GetInputs@CInstruction@D3DXShader@@QAEIIPAPAI@Z 1007bc2b f   d3dx9dt:cinstruction.obj
 0001:0007ac66       ?IsNOP@CInstruction@D3DXShader@@QAEHXZ 1007bc66 f   d3dx9dt:cinstruction.obj
 0001:0007ac73       ?IsMOV@CInstruction@D3DXShader@@QAEHXZ 1007bc73 f   d3dx9dt:cinstruction.obj
 0001:0007ac85       ?IsNEG@CInstruction@D3DXShader@@QAEHXZ 1007bc85 f   d3dx9dt:cinstruction.obj
 0001:0007ac97       ?IsDOT@CInstruction@D3DXShader@@QAEHXZ 1007bc97 f   d3dx9dt:cinstruction.obj
 0001:0007aca9       ?IsIN@CInstruction@D3DXShader@@QAEHXZ 1007bca9 f   d3dx9dt:cinstruction.obj
 0001:0007acbb       ?IsOUT@CInstruction@D3DXShader@@QAEHXZ 1007bcbb f   d3dx9dt:cinstruction.obj
 0001:0007accd       ?IsCLIP@CInstruction@D3DXShader@@QAEHXZ 1007bccd f   d3dx9dt:cinstruction.obj
 0001:0007acdf       ?IsUnary@CInstruction@D3DXShader@@QAEHXZ 1007bcdf f   d3dx9dt:cinstruction.obj
 0001:0007acf1       ?IsBinary@CInstruction@D3DXShader@@QAEHXZ 1007bcf1 f   d3dx9dt:cinstruction.obj
 0001:0007ad03       ?IsTrinary@CInstruction@D3DXShader@@QAEHXZ 1007bd03 f   d3dx9dt:cinstruction.obj
 0001:0007ad15       ?IsTexture@CInstruction@D3DXShader@@QAEHXZ 1007bd15 f   d3dx9dt:cinstruction.obj
 0001:0007ad27       ?IsSpecial@CInstruction@D3DXShader@@QAEHXZ 1007bd27 f   d3dx9dt:cinstruction.obj
 0001:0007ad37       ?IsSymetric@CInstruction@D3DXShader@@QAEHXZ 1007bd37 f   d3dx9dt:cinstruction.obj
 0001:0007ad68       ?IsPerComponent@CInstruction@D3DXShader@@QAEHXZ 1007bd68 f   d3dx9dt:cinstruction.obj
 0001:0007ad8b       ?GetOutputs@CInstruction@D3DXShader@@QAEIIPAPAI@Z 1007bd8b f   d3dx9dt:cinstruction.obj
 0001:0007adfc       ??0CArgument@D3DXShader@@QAE@XZ 1007bdfc f   d3dx9dt:cargument.obj
 0001:0007ae05       ??1CArgument@D3DXShader@@QAE@XZ 1007be05 f   d3dx9dt:cargument.obj
 0001:0007ae0c       ?Initialize@CArgument@D3DXShader@@QAEJIIIN@Z 1007be0c f   d3dx9dt:cargument.obj
 0001:0007ae67       ?Initialize@CArgument@D3DXShader@@QAEJPAV12@@Z 1007be67 f   d3dx9dt:cargument.obj
 0001:0007af03       ?Instance@CArgument@D3DXShader@@QAEJPAV12@@Z 1007bf03 f   d3dx9dt:cargument.obj
 0001:0007b02f       ?HeapSort@D3DXShader@@YGXP6GHIIPBX@ZPAII0@Z 1007c02f f   d3dx9dt:cprogram.obj
 0001:0007b144       ??0CProgram@D3DXShader@@QAE@XZ 1007c144 f   d3dx9dt:cprogram.obj
 0001:0007b185       ??1CProgram@D3DXShader@@UAE@XZ 1007c185 f   d3dx9dt:cprogram.obj
 0001:0007b19f       ?IndexSemantic@CProgram@D3DXShader@@UAEJPAVCArgument@2@H@Z 1007c19f f   d3dx9dt:cprogram.obj
 0001:0007b1bb       ?SetName@CProgram@D3DXShader@@QAEJPBD@Z 1007c1bb f   d3dx9dt:cprogram.obj
 0001:0007b221       ?InitCaps@CProgram@D3DXShader@@MAEJXZ 1007c221 f   d3dx9dt:cprogram.obj
 0001:0007b23f       ?IsScalar@CProgram@D3DXShader@@MAEHK@Z 1007c23f f   d3dx9dt:cprogram.obj
 0001:0007b278       ?RemoveDeadCode@CProgram@D3DXShader@@IAEJXZ 1007c278 f   d3dx9dt:cprogram.obj
 0001:0007b678       ?CompactInstructions@CProgram@D3DXShader@@IAEJXZ 1007c678 f   d3dx9dt:cprogram.obj
 0001:0007b6ef       ?SimplifyBinary@CProgram@D3DXShader@@IAEJPAVCInstruction@2@III@Z 1007c6ef f   d3dx9dt:cprogram.obj
 0001:0007c3e8       ?SimplifyTrinary@CProgram@D3DXShader@@IAEJPAVCInstruction@2@IIII@Z 1007d3e8 f   d3dx9dt:cprogram.obj
 0001:0007c990       ?SimplifyDotProduct@CProgram@D3DXShader@@IAEJPAVCInstruction@2@H@Z 1007d990 f   d3dx9dt:cprogram.obj
 0001:0007ceb8       ?AddSequence@CProgram@D3DXShader@@IAEJIPAIPAN@Z 1007deb8 f   d3dx9dt:cprogram.obj
 0001:0007d108       ?VectorizeLeft@CProgram@D3DXShader@@IAEJXZ 1007e108 f   d3dx9dt:cprogram.obj
 0001:0007df16       ?MarkParents@CProgram@D3DXShader@@IAEJPAVCInstruction@2@PAII@Z 1007ef16 f   d3dx9dt:cprogram.obj
 0001:0007df70       ?ComputeDependency@CProgram@D3DXShader@@IAEJPAVCInstruction@2@PAIPAHI@Z 1007ef70 f   d3dx9dt:cprogram.obj
 0001:0007dfeb       ?ReorderInstructions@CProgram@D3DXShader@@IAEJIPAI0@Z 1007efeb f   d3dx9dt:cprogram.obj
 0001:0007e17d       ?AllocateLiteral@CProgram@D3DXShader@@IAEIPAIIII@Z 1007f17d f   d3dx9dt:cprogram.obj
 0001:0007e1d7       ?CanVectorize@CProgram@D3DXShader@@IAEHPAII00PAVCInstruction@2@I@Z 1007f1d7 f   d3dx9dt:cprogram.obj
 0001:0007e8f3       ?CombinePools@CProgram@D3DXShader@@IAEJIKK@Z 1007f8f3 f   d3dx9dt:cprogram.obj
 0001:0007ea13       ?SwizzleParameter@CProgram@D3DXShader@@IAEJPAI0IH@Z 1007fa13 f   d3dx9dt:cprogram.obj
 0001:0007eaf2       ?ReadWriteInfo@CProgram@D3DXShader@@IAEJXZ 1007faf2 f   d3dx9dt:cprogram.obj
 0001:0007ee39       ?ParentChildInfo@CProgram@D3DXShader@@IAEJXZ 1007fe39 f   d3dx9dt:cprogram.obj
 0001:0007f05b       ?IdentityRemap@CProgram@D3DXShader@@IAEJXZ 1008005b f   d3dx9dt:cprogram.obj
 0001:0007f074       ?RemapArguments@CProgram@D3DXShader@@IAEJXZ 10080074 f   d3dx9dt:cprogram.obj
 0001:0007f10c       ?PrintReg@CProgram@D3DXShader@@IAEJPAII@Z 1008010c f   d3dx9dt:cprogram.obj
 0001:0007f3c8       ?Error@CProgram@D3DXShader@@IAAJPAVCNode@2@IPBDZZ 100803c8 f   d3dx9dt:cprogram.obj
 0001:0007f437       ?Warning@CProgram@D3DXShader@@IAAJPAVCNode@2@IPBDZZ 10080437 f   d3dx9dt:cprogram.obj
 0001:0007f49d       ??_GCProgram@D3DXShader@@UAEPAXI@Z 1008049d f i d3dx9dt:cprogram.obj
 0001:0007f49d       ??_ECProgram@D3DXShader@@UAEPAXI@Z 1008049d f i d3dx9dt:cprogram.obj
 0001:0007f4bc       ?Initialize@CProgram@D3DXShader@@QAEJPAVCNode@2@PAVCTErrors@2@KK@Z 100804bc f   d3dx9dt:cprogram.obj
 0001:0007f5d3       ?Initialize@CProgram@D3DXShader@@QAEJPAV12@@Z 100805d3 f   d3dx9dt:cprogram.obj
 0001:0007f88d       ?Validate@CProgram@D3DXShader@@MAEJXZ 1008088d f   d3dx9dt:cprogram.obj
 0001:0008010f       ?DelayOutputs@CProgram@D3DXShader@@IAEJXZ 1008110f f   d3dx9dt:cprogram.obj
 0001:0008037f       ?RemoveDuplicateArguments@CProgram@D3DXShader@@IAEJXZ 1008137f f   d3dx9dt:cprogram.obj
 0001:00080599       ?SquishInstructions@CProgram@D3DXShader@@IAEJXZ 10081599 f   d3dx9dt:cprogram.obj
 0001:00080817       ?RemoveDuplicateInstructions@CProgram@D3DXShader@@IAEJXZ 10081817 f   d3dx9dt:cprogram.obj
 0001:00081390       ?ReorderBinary@CProgram@D3DXShader@@IAEJXZ 10082390 f   d3dx9dt:cprogram.obj
 0001:00082661       ?SimplifyAddresses@CProgram@D3DXShader@@IAEJXZ 10083661 f   d3dx9dt:cprogram.obj
 0001:0008295d       ?CompactOutputs@CProgram@D3DXShader@@IAEJXZ 1008395d f   d3dx9dt:cprogram.obj
 0001:00082bbd       ?CompactArguments@CProgram@D3DXShader@@IAEJXZ 10083bbd f   d3dx9dt:cprogram.obj
 0001:00082d85       ?SimplifyUnary@CProgram@D3DXShader@@IAEJPAVCInstruction@2@II@Z 10083d85 f   d3dx9dt:cprogram.obj
 0001:00083445       ?VectorizeRight@CProgram@D3DXShader@@IAEJXZ 10084445 f   d3dx9dt:cprogram.obj
 0001:000839ae       ?PropagateSwizzles@CProgram@D3DXShader@@IAEJXZ 100849ae f   d3dx9dt:cprogram.obj
 0001:00084dc0       ?CombineInstructions@CProgram@D3DXShader@@IAEJXZ 10085dc0 f   d3dx9dt:cprogram.obj
 0001:00085b54       ?ReorderInstructions@CProgram@D3DXShader@@IAEJXZ 10086b54 f   d3dx9dt:cprogram.obj
 0001:00085d22       ?SwizzleRegisters@CProgram@D3DXShader@@IAEJXZ 10086d22 f   d3dx9dt:cprogram.obj
 0001:00085f91       ?CompactLiterals@CProgram@D3DXShader@@IAEJPAI00@Z 10086f91 f   d3dx9dt:cprogram.obj
 0001:000863a2       ?CompactPool@CProgram@D3DXShader@@IAEJIIH@Z 100873a2 f   d3dx9dt:cprogram.obj
 0001:0008697b       ?TypeSize@CProgram@D3DXShader@@IAEIPAVCNode@2@@Z 1008797b f   d3dx9dt:cprogram.obj
 0001:000869fa       ?Print@CProgram@D3DXShader@@UAEJXZ 100879fa f   d3dx9dt:cprogram.obj
 0001:00086e56       ?GenerateCode@CProgram@D3DXShader@@UAEJPAPAUID3DXBuffer@@PAV12@@Z 10087e56 f   d3dx9dt:cprogram.obj
 0001:00086ec8       ?SimplifyInstructions@CProgram@D3DXShader@@IAEJXZ 10087ec8 f   d3dx9dt:cprogram.obj
 0001:00087956       ?VectorizeLiterals@CProgram@D3DXShader@@IAEJXZ 10088956 f   d3dx9dt:cprogram.obj
 0001:00087e62       ?SeparatePhases@CProgram@D3DXShader@@IAEJXZ 10088e62 f   d3dx9dt:cprogram.obj
 0001:00088127       ?CompactRegisters@CProgram@D3DXShader@@IAEJXZ 10089127 f   d3dx9dt:cprogram.obj
 0001:00088358       ?Optimize@CProgram@D3DXShader@@MAEJXZ 10089358 f   d3dx9dt:cprogram.obj
 0001:000884ba       ?Vectorize@CProgram@D3DXShader@@MAEJXZ 100894ba f   d3dx9dt:cprogram.obj
 0001:000885b8       ??0CParse@D3DXShader@@QAE@XZ 100895b8 f   d3dx9dt:cparse.obj
 0001:000885c9       ??1CParse@D3DXShader@@QAE@XZ 100895c9 f   d3dx9dt:cparse.obj
 0001:000885f5       ?Error@CParse@D3DXShader@@IAAXPBDZZ 100895f5 f   d3dx9dt:cparse.obj
 0001:00088723       ?Error@CParse@D3DXShader@@IAAXPAUD3DXTOKEN@2@IPBDZZ 10089723 f   d3dx9dt:cparse.obj
 0001:00088777       ?Warning@CParse@D3DXShader@@IAAXPAUD3DXTOKEN@2@IPBDZZ 10089777 f   d3dx9dt:cparse.obj
 0001:000887c2       ?FatalError@CParse@D3DXShader@@IAAXPAUD3DXTOKEN@2@IPBDZZ 100897c2 f   d3dx9dt:cparse.obj
 0001:00088818       ?NonNull@CParse@D3DXShader@@IAEPAVCNode@2@PAV32@@Z 10089818 f   d3dx9dt:cparse.obj
 0001:0008884b       ?PushScope@CParse@D3DXShader@@IAEJW4_D3DXSCOPE_TYPE@2@PBD@Z 1008984b f   d3dx9dt:cparse.obj
 0001:000888ab       ?PopScope@CParse@D3DXShader@@IAEJXZ 100898ab f   d3dx9dt:cparse.obj
 0001:0008892b       ?AddDecl@CParse@D3DXShader@@IAEJPAVCNode@2@H@Z 1008992b f   d3dx9dt:cparse.obj
 0001:00088b12       ?PopUsageType@CParse@D3DXShader@@IAEJXZ 10089b12 f   d3dx9dt:cparse.obj
 0001:00088b2e       ?GetUsageType@CParse@D3DXShader@@IAEPAVCNode@2@XZ 10089b2e f   d3dx9dt:cparse.obj
 0001:00088b3a       ?MakeTypeConst@CParse@D3DXShader@@IAEJPAVCNode@2@H@Z 10089b3a f   d3dx9dt:cparse.obj
 0001:00088bcd       ?CombineUsages@CParse@D3DXShader@@IAEJPAVCNode@2@0@Z 10089bcd f   d3dx9dt:cparse.obj
 0001:00088c8c       ?IsConst@CParse@D3DXShader@@IAEHPAVCNode@2@@Z 10089c8c f   d3dx9dt:cparse.obj
 0001:00088cfd       ?IsScalar@CParse@D3DXShader@@IAEHPAVCNode@2@@Z 10089cfd f   d3dx9dt:cparse.obj
 0001:00088d1f       ?IsNumeric@CParse@D3DXShader@@IAEHPAVCNode@2@@Z 10089d1f f   d3dx9dt:cparse.obj
 0001:00088d94       ?TypeSize@CParse@D3DXShader@@IAEIPAVCNode@2@@Z 10089d94 f   d3dx9dt:cparse.obj
 0001:00088e20       ?IsTypeEqual@CParse@D3DXShader@@IAEHPAVCNode@2@0@Z 10089e20 f   d3dx9dt:cparse.obj
 0001:00088ed0       ?PrintType@CParse@D3DXShader@@IAEIPADIPAVCNode@2@@Z 10089ed0 f   d3dx9dt:cparse.obj
 0001:00089193       ?GetSubType@CParse@D3DXShader@@IAEJPAVCNode@2@IPAVCNodeType@2@@Z 1008a193 f   d3dx9dt:cparse.obj
 0001:0008925c       ?GetComponentType@CParse@D3DXShader@@IAEJPAVCNode@2@0PAW4_D3DXCOMPONENT_TYPE@2@@Z 1008a25c f   d3dx9dt:cparse.obj
 0001:00089411       ?ObjectExpr@CParse@D3DXShader@@IAEPAVCNode@2@PAV32@@Z 1008a411 f   d3dx9dt:cparse.obj
 0001:00089454       ?EvalType@CParse@D3DXShader@@IAEIPAVCNode@2@PAU_D3DXVALUE@2@@Z 1008a454 f   d3dx9dt:cparse.obj
 0001:00089594       ?CastToFloat@CParse@D3DXShader@@IAEJPANPAU_D3DXVALUE@2@PAUD3DXTOKEN@2@@Z 1008a594 f   d3dx9dt:cparse.obj
 0001:000895f0       ?WarnCastInt@CParse@D3DXShader@@IAEXNPAUD3DXTOKEN@2@@Z 1008a5f0 f   d3dx9dt:cparse.obj
 0001:000895f3       ?WarnCastUint@CParse@D3DXShader@@IAEXNPAUD3DXTOKEN@2@@Z 1008a5f3 f   d3dx9dt:cparse.obj
 0001:000895f6       ?IsPartiallyLiteral@CParse@D3DXShader@@IAEHPAVCNode@2@@Z 1008a5f6 f   d3dx9dt:cparse.obj
 0001:00089670       ?IsFullyLiteral@CParse@D3DXShader@@IAEHPAVCNode@2@@Z 1008a670 f   d3dx9dt:cparse.obj
 0001:00089789       ?ComputeExprSize@CParse@D3DXShader@@IAEXPAVCNode@2@@Z 1008a789 f   d3dx9dt:cparse.obj
 0001:000897cf       ?Stmt@CParse@D3DXShader@@IAEPAVCNode@2@PAV32@@Z 1008a7cf f   d3dx9dt:cparse.obj
 0001:00089839       ?ForStmt@CParse@D3DXShader@@IAEPAVCNode@2@PAV32@000@Z 1008a839 f   d3dx9dt:cparse.obj
 0001:00089929       ?AsmDecl@CParse@D3DXShader@@IAEPAVCNode@2@XZ 1008a929 f   d3dx9dt:cparse.obj
 0001:00089942       ?AsmBlock@CParse@D3DXShader@@IAEPAVCNode@2@H@Z 1008a942 f   d3dx9dt:cparse.obj
 0001:000899e3       ?CombineUintId@CParse@D3DXShader@@IAEPAVCNode@2@PAV32@0@Z 1008a9e3 f   d3dx9dt:cparse.obj
 0001:00089ad8       ?FindIntrinsic@CParse@D3DXShader@@IAEJPAUD3DXTOKEN@2@PAVCNode@2@PAPAV42@2@Z 1008aad8 f   d3dx9dt:cparse.obj
 0001:0008a162       ?ScoreFunctionDecl@CParse@D3DXShader@@IAEIPAVCNodeFunction@2@PAVCNode@2@1K@Z 1008b162 f   d3dx9dt:cparse.obj
 0001:0008a26f       ?ScoreCast@CParse@D3DXShader@@IAEIPAVCNode@2@0@Z 1008b26f f   d3dx9dt:cparse.obj
 0001:0008a384       ?ApplyUsage@CParse@D3DXShader@@IAEJPAVCNode@2@0@Z 1008b384 f   d3dx9dt:cparse.obj
 0001:0008a435       ?IsSupportedCast@CParse@D3DXShader@@IAEHPAVCNode@2@0H@Z 1008b435 f   d3dx9dt:cparse.obj
 0001:0008a763       ?ErrorUnsupportedCast@CParse@D3DXShader@@IAEXPAUD3DXTOKEN@2@PBDPAVCNode@2@2H@Z 1008b763 f   d3dx9dt:cparse.obj
 0001:0008a80a       ?BinaryType@CParse@D3DXShader@@IAEJPAVCNode@2@0PAPAV32@11@Z 1008b80a f   d3dx9dt:cparse.obj
 0001:0008a90c       ?ScalarExpr@CParse@D3DXShader@@IAEPAVCNode@2@W4_D3DXCOMPONENT_TYPE@2@INPAUD3DXTOKEN@2@@Z 1008b90c f   d3dx9dt:cparse.obj
 0001:0008aa30       ?ScalarExpr@CParse@D3DXShader@@IAEPAVCNode@2@PAV32@@Z 1008ba30 f   d3dx9dt:cparse.obj
 0001:0008aab2       ?StringExpr@CParse@D3DXShader@@IAEPAVCNode@2@PAV32@@Z 1008bab2 f   d3dx9dt:cparse.obj
 0001:0008abfe       ?InitExpr@CParse@D3DXShader@@IAEPAVCNode@2@PAV32@0@Z 1008bbfe f   d3dx9dt:cparse.obj
 0001:0008acf5       ?OffsetExpr@CParse@D3DXShader@@IAEPAVCNode@2@PAV32@0@Z 1008bcf5 f   d3dx9dt:cparse.obj
 0001:0008b196       ?AsmExpr@CParse@D3DXShader@@IAEPAVCNode@2@PAV32@@Z 1008c196 f   d3dx9dt:cparse.obj
 0001:0008b2e1       ?SamplerExpr@CParse@D3DXShader@@IAEPAVCNode@2@PAV32@@Z 1008c2e1 f   d3dx9dt:cparse.obj
 0001:0008b3c5       ?Cast@CParse@D3DXShader@@IAEJPAU_D3DXVALUE@2@0PAUD3DXTOKEN@2@@Z 1008c3c5 f   d3dx9dt:cparse.obj
 0001:0008b4ea       ?CastToUint@CParse@D3DXShader@@IAEJPAIPAU_D3DXVALUE@2@PAUD3DXTOKEN@2@@Z 1008c4ea f   d3dx9dt:cparse.obj
 0001:0008b547       ?CastToValue@CParse@D3DXShader@@IAEJPAU_D3DXVALUE@2@NPAUD3DXTOKEN@2@@Z 1008c547 f   d3dx9dt:cparse.obj
 0001:0008b5b2       ?ScoreFunctionCall@CParse@D3DXShader@@IAEIPAVCNodeFunction@2@PAVCNode@2@1K@Z 1008c5b2 f   d3dx9dt:cparse.obj
 0001:0008b77f       ?PushUsageType@CParse@D3DXShader@@IAEJPAVCNode@2@@Z 1008c77f f   d3dx9dt:cparse.obj
 0001:0008b7f6       ?EvalIntrinsic@CParse@D3DXShader@@IAEJPAVCNode@2@PAU_D3DXVALUE@2@@Z 1008c7f6 f   d3dx9dt:cparse.obj
 0001:0008cbea       ?FindDecl@CParse@D3DXShader@@IAEJW4_D3DXDECL_TYPE@2@PAUD3DXTOKEN@2@PAVCNode@2@2PAVCNodeScope@2@KPAPAV52@4@Z 1008dbea f   d3dx9dt:cparse.obj
 0001:0008d389       ?VariableExpr@CParse@D3DXShader@@IAEPAVCNode@2@PAV32@0@Z 1008e389 f   d3dx9dt:cparse.obj
 0001:0008d4a9       ?CastExpr@CParse@D3DXShader@@IAEPAVCNode@2@PAV32@0HH@Z 1008e4a9 f   d3dx9dt:cparse.obj
 0001:0008d6f7       ?ConditionalExpr@CParse@D3DXShader@@IAEPAVCNode@2@PAV32@00@Z 1008e6f7 f   d3dx9dt:cparse.obj
 0001:0008dacb       ?Eval@CParse@D3DXShader@@IAEJPAVCNode@2@PAU_D3DXVALUE@2@@Z 1008eacb f   d3dx9dt:cparse.obj
 0001:0008e2f5       ?IfStmt@CParse@D3DXShader@@IAEPAVCNode@2@PAV32@00@Z 1008f2f5 f   d3dx9dt:cparse.obj
 0001:0008e41e       ?Token@CParse@D3DXShader@@IAEHXZ 1008f41e f   d3dx9dt:cparse.obj
 0001:0008ef29       ?FunctionDecl@CParse@D3DXShader@@IAEPAVCNode@2@PAV32@00@Z 1008ff29 f   d3dx9dt:cparse.obj
 0001:0008f2d9       ?Eval@CParse@D3DXShader@@IAEPAVCNode@2@PAV32@@Z 100902d9 f   d3dx9dt:cparse.obj
 0001:0008f40a       ?EvalUint@CParse@D3DXShader@@IAEJPAVCNode@2@PAI@Z 1009040a f   d3dx9dt:cparse.obj
 0001:0008f473       ?TypeDecl@CParse@D3DXShader@@IAEPAVCNode@2@PAV32@0@Z 10090473 f   d3dx9dt:cparse.obj
 0001:0008f631       ?StructDecl@CParse@D3DXShader@@IAEPAVCNode@2@PAV32@0@Z 10090631 f   d3dx9dt:cparse.obj
 0001:0008f684       ?VectorType@CParse@D3DXShader@@IAEPAVCNode@2@PAV32@0@Z 10090684 f   d3dx9dt:cparse.obj
 0001:0008f709       ?MatrixType@CParse@D3DXShader@@IAEPAVCNode@2@PAV32@00@Z 10090709 f   d3dx9dt:cparse.obj
 0001:0008f7b1       ?TypeDim@CParse@D3DXShader@@IAEPAVCNode@2@PAV32@0@Z 100907b1 f   d3dx9dt:cparse.obj
 0001:0008f829       ?ArrayExpr@CParse@D3DXShader@@IAEPAVCNode@2@PAV32@0@Z 10090829 f   d3dx9dt:cparse.obj
 0001:0008fa54       ?Expr@CParse@D3DXShader@@IAEPAVCNode@2@W4_D3DXEXPR_OP@2@PAV32@1H@Z 10090a54 f   d3dx9dt:cparse.obj
 0001:0008feda       ?ReturnStmt@CParse@D3DXShader@@IAEPAVCNode@2@PAV32@@Z 10090eda f   d3dx9dt:cparse.obj
 0001:0008ffa2       ?VariableDecl@CParse@D3DXShader@@IAEPAVCNode@2@PAV32@000@Z 10090fa2 f   d3dx9dt:cparse.obj
 0001:00090970       ?FunctionExpr@CParse@D3DXShader@@IAEPAVCNode@2@PAV32@0H@Z 10091970 f   d3dx9dt:cparse.obj
 0001:00090e3b       ?CompileExpr@CParse@D3DXShader@@IAEPAVCNode@2@PAV32@00H@Z 10091e3b f   d3dx9dt:cparse.obj
 0001:0009101f       ?Production@CParse@D3DXShader@@IAEXII@Z 1009201f f   d3dx9dt:cparse.obj
 0001:00092460       ?d3dxshader_parse@D3DXShader@@YGHXZ 10093460 f   d3dx9dt:cparse.obj
 0001:00093711       ?Parse@CParse@D3DXShader@@QAEJPAVCPreProcessor@2@KPAPAVCNode@2@@Z 10094711 f   d3dx9dt:cparse.obj
 0001:000937d5       ??0CPSLegacyProgram@D3DXShader@@QAE@XZ 100947d5 f   d3dx9dt:cpslegacyprogram.obj
 0001:00093802       ?GenerateCode@CPSLegacyProgram@D3DXShader@@UAEJPAPAUID3DXBuffer@@PAVCProgram@2@@Z 10094802 f   d3dx9dt:cpslegacyprogram.obj
 0001:00093863       ?InitCaps@CPSLegacyProgram@D3DXShader@@MAEJXZ 10094863 f   d3dx9dt:cpslegacyprogram.obj
 0001:0009391b       ?ValidateTexSat@CPSLegacyProgram@D3DXShader@@IAEJXZ 1009491b f   d3dx9dt:cpslegacyprogram.obj
 0001:000939f4       ?CleanUpClip@CPSLegacyProgram@D3DXShader@@IAEJXZ 100949f4 f   d3dx9dt:cpslegacyprogram.obj
 0001:00093c1b       ?FixSatTex@CPSLegacyProgram@D3DXShader@@IAEJXZ 10094c1b f   d3dx9dt:cpslegacyprogram.obj
 0001:00093d3c       ?FixNeg@CPSLegacyProgram@D3DXShader@@IAEJXZ 10094d3c f   d3dx9dt:cpslegacyprogram.obj
 0001:00093f33       ?PackOutput@CPSLegacyProgram@D3DXShader@@IAEJXZ 10094f33 f   d3dx9dt:cpslegacyprogram.obj
 0001:00094154       ?MovConsts@CPSLegacyProgram@D3DXShader@@IAEJXZ 10095154 f   d3dx9dt:cpslegacyprogram.obj
 0001:000942fc       ?CheckDegenShader@CPSLegacyProgram@D3DXShader@@IAEJXZ 100952fc f   d3dx9dt:cpslegacyprogram.obj
 0001:00094450       ?ValidSwizzle@CPSLegacyProgram@D3DXShader@@IAEHPAI0@Z 10095450 f   d3dx9dt:cpslegacyprogram.obj
 0001:0009447f       ?IsValidWriteMask@D3DXShader@@YGHPAIK@Z 1009547f f   d3dx9dt:cpslegacyprogram.obj
 0001:000944e8       ?IsValidDotWriteMask@D3DXShader@@YGHPAIK@Z 100954e8 f   d3dx9dt:cpslegacyprogram.obj
 0001:0009454e       ?IsValidSwizzle@D3DXShader@@YGHPAI0I@Z 1009554e f i d3dx9dt:cpslegacyprogram.obj
 0001:000945a7       ?HasWriteMask@CPSLegacyProgram@D3DXShader@@IAEHPAVCInstruction@2@@Z 100955a7 f   d3dx9dt:cpslegacyprogram.obj
 0001:0009461d       ?EmmulateReplicate@CPSLegacyProgram@D3DXShader@@IAEJXZ 1009561d f   d3dx9dt:cpslegacyprogram.obj
 0001:000949c6       ?DeSwizzle@CPSLegacyProgram@D3DXShader@@IAEJXZ 100959c6 f   d3dx9dt:cpslegacyprogram.obj
 0001:00094f9d       ?MatchTexReflect@CPSLegacyProgram@D3DXShader@@IAEJH@Z 10095f9d f   d3dx9dt:cpslegacyprogram.obj
 0001:00095419       ?ValidateInstructions@CPSLegacyProgram@D3DXShader@@IAEJXZ 10096419 f   d3dx9dt:cpslegacyprogram.obj
 0001:000955a3       ?MatchComplexAdd@CPSLegacyProgram@D3DXShader@@IAEJXZ 100965a3 f   d3dx9dt:cpslegacyprogram.obj
 0001:000957e8       ?MatchOutputModifier@CPSLegacyProgram@D3DXShader@@IAEJXZ 100967e8 f   d3dx9dt:cpslegacyprogram.obj
 0001:00095dd0       ?RemapInput@CPSLegacyProgram@D3DXShader@@IAEJPAPAVCInstruction@2@IIIIPAI@Z 10096dd0 f   d3dx9dt:cpslegacyprogram.obj
 0001:00095ef5       ?RemapInputTex@CPSLegacyProgram@D3DXShader@@IAEJPAPAVCInstruction@2@IIIIPAI@Z 10096ef5 f   d3dx9dt:cpslegacyprogram.obj
 0001:0009601b       ?PullOut@CPSLegacyProgram@D3DXShader@@IAEJPAIIPAPAVCInstruction@2@0@Z 1009701b f   d3dx9dt:cpslegacyprogram.obj
 0001:000961e0       ?TexturePullOut@CPSLegacyProgram@D3DXShader@@IAEJPAPAVCInstruction@2@PAI0I0I@Z 100971e0 f   d3dx9dt:cpslegacyprogram.obj
 0001:000969bc       ?GroupTexLoads@CPSLegacyProgram@D3DXShader@@IAEJXZ 100979bc f   d3dx9dt:cpslegacyprogram.obj
 0001:00096ef2       ?RegReassign@CPSLegacyProgram@D3DXShader@@IAEIPAPAVCInstruction@2@IIIPAVCArgument@2@AAH@Z 10097ef2 f   d3dx9dt:cpslegacyprogram.obj
 0001:00096f6d       ?FindConsumers@CPSLegacyProgram@D3DXShader@@IAEJPAPAVCInstruction@2@IIPAII1AAI@Z 10097f6d f   d3dx9dt:cpslegacyprogram.obj
 0001:00097163       ?FixUpOrigins@CPSLegacyProgram@D3DXShader@@IAEJXZ 10098163 f   d3dx9dt:cpslegacyprogram.obj
 0001:0009719d       ?AnalizeArgUse@CPSLegacyProgram@D3DXShader@@IAEJPAPAVCInstruction@2@IIPAIIAAIAAH3@Z 1009819d f   d3dx9dt:cpslegacyprogram.obj
 0001:00097306       ?RemapConstants@CPSLegacyProgram@D3DXShader@@IAEJXZ 10098306 f   d3dx9dt:cpslegacyprogram.obj
 0001:0009780d       ?NoTexClobber@CPSLegacyProgram@D3DXShader@@IAEJIPAPAVCInstruction@2@IPAII@Z 1009880d f   d3dx9dt:cpslegacyprogram.obj
 0001:00097984       ?FindPackPlaces@CPSLegacyProgram@D3DXShader@@IAEJPAIPAHI@Z 10098984 f   d3dx9dt:cpslegacyprogram.obj
 0001:00097aae       ?UpPropZ@CPSLegacyProgram@D3DXShader@@IAEJPAPAVCInstruction@2@II@Z 10098aae f   d3dx9dt:cpslegacyprogram.obj
 0001:00097e8e       ?InitZs@CPSLegacyProgram@D3DXShader@@IAEJXZ 10098e8e f   d3dx9dt:cpslegacyprogram.obj
 0001:00097eff       ?AllocateRegisters@CPSLegacyProgram@D3DXShader@@IAEJXZ 10098eff f   d3dx9dt:cpslegacyprogram.obj
 0001:000991e9       ?PSMatchMUL@CPSLegacyProgram@D3DXShader@@IAEJXZ 1009a1e9 f   d3dx9dt:cpslegacyprogram.obj
 0001:000991ee       ?InstSearch@CPSLegacyProgram@D3DXShader@@IAEPAVCInstruction@2@PAPAV32@IPAIIH@Z 1009a1ee f   d3dx9dt:cpslegacyprogram.obj
 0001:000992e4       ?FindTex@CPSLegacyProgram@D3DXShader@@IAEJPAPAVCInstruction@2@IPAV32@PAI20HH@Z 1009a2e4 f   d3dx9dt:cpslegacyprogram.obj
 0001:0009948e       ?MatchDep@CPSLegacyProgram@D3DXShader@@IAEJPAPAVCInstruction@2@I0@Z 1009a48e f   d3dx9dt:cpslegacyprogram.obj
 0001:0009994c       ?Match3xM@CPSLegacyProgram@D3DXShader@@IAEJPAPAVCInstruction@2@I0I@Z 1009a94c f   d3dx9dt:cpslegacyprogram.obj
 0001:00099f66       ?ValidateOutput@CPSLegacyProgram@D3DXShader@@MAEJXZ 1009af66 f   d3dx9dt:cpslegacyprogram.obj
 0001:0009a156       ?EmitDP4@CPSLegacyProgram@D3DXShader@@IAEJXZ 1009b156 f   d3dx9dt:cpslegacyprogram.obj
 0001:0009a22a       ?EmitSpecialTex@CPSLegacyProgram@D3DXShader@@IAEJK@Z 1009b22a f   d3dx9dt:cpslegacyprogram.obj
 0001:0009a38b       ?EmitTEXLDD@CPSLegacyProgram@D3DXShader@@IAEJXZ 1009b38b f   d3dx9dt:cpslegacyprogram.obj
 0001:0009a4a7       ?EmitTEXCRD@CPSLegacyProgram@D3DXShader@@IAEJXZ 1009b4a7 f   d3dx9dt:cpslegacyprogram.obj
 0001:0009a5eb       ?CoIssue@CPSLegacyProgram@D3DXShader@@MAEKK@Z 1009b5eb f   d3dx9dt:cpslegacyprogram.obj
 0001:0009a606       ?EmitSize@CPSLegacyProgram@D3DXShader@@MAEJXZ 1009b606 f   d3dx9dt:cpslegacyprogram.obj
 0001:0009a609       ?EmitVersion@CPSLegacyProgram@D3DXShader@@MAEJXZ 1009b609 f   d3dx9dt:cpslegacyprogram.obj
 0001:0009a627       ?EmitDCL@CPSLegacyProgram@D3DXShader@@MAEJPAVCArgument@2@PAK@Z 1009b627 f   d3dx9dt:cpslegacyprogram.obj
 0001:0009a674       ?FindInput@CPSLegacyProgram@D3DXShader@@MAEJPAVCArgument@2@AAK1@Z 1009b674 f   d3dx9dt:cpslegacyprogram.obj
 0001:0009a6b7       ?IndexSemantic@CPSLegacyProgram@D3DXShader@@UAEJPAVCArgument@2@H@Z 1009b6b7 f   d3dx9dt:cpslegacyprogram.obj
 0001:0009ab33       ?FindOutput@CPSLegacyProgram@D3DXShader@@MAEJPAVCArgument@2@AAK1PAH@Z 1009bb33 f   d3dx9dt:cpslegacyprogram.obj
 0001:0009ab8f       ?ViolatesWriteLim@CPSLegacyProgram@D3DXShader@@MAEHPAVCInstruction@2@I@Z 1009bb8f f   d3dx9dt:cpslegacyprogram.obj
 0001:0009abdf       ?ViolatesPortConstraints@CPSLegacyProgram@D3DXShader@@MAEHPAVCInstruction@2@PAI@Z 1009bbdf f   d3dx9dt:cpslegacyprogram.obj
 0001:0009ae17       ?MarkCoIssues@CPSLegacyProgram@D3DXShader@@IAEJPAPAVCInstruction@2@II@Z 1009be17 f   d3dx9dt:cpslegacyprogram.obj
 0001:0009b02c       ?ViolatesPortConstraintsCoIssue@CPSLegacyProgram@D3DXShader@@MAEHPAVCInstruction@2@0@Z 1009c02c f   d3dx9dt:cpslegacyprogram.obj
 0001:0009b249       ?SrcSwizzle@CPSLegacyProgram@D3DXShader@@MAEJPAIIKPAK@Z 1009c249 f   d3dx9dt:cpslegacyprogram.obj
 0001:0009b3b2       ??1CPSLegacyProgram@D3DXShader@@UAE@XZ 1009c3b2 f   d3dx9dt:cpslegacyprogram.obj
 0001:0009b42e       ?EmmulateWriteMasksX@CPSLegacyProgram@D3DXShader@@IAEJXZ 1009c42e f   d3dx9dt:cpslegacyprogram.obj
 0001:0009bb92       ?MatchPhase1@CPSLegacyProgram@D3DXShader@@IAEJXZ 1009cb92 f   d3dx9dt:cpslegacyprogram.obj
 0001:0009be4c       ?EmitPhase@CPSLegacyProgram@D3DXShader@@IAEJPAPAVCInstruction@2@I@Z 1009ce4c f   d3dx9dt:cpslegacyprogram.obj
 0001:0009c183       ?EmitInstructions@CPSLegacyProgram@D3DXShader@@MAEJXZ 1009d183 f   d3dx9dt:cpslegacyprogram.obj
 0001:0009c1e6       ??_GCPSLegacyProgram@D3DXShader@@UAEPAXI@Z 1009d1e6 f i d3dx9dt:cpslegacyprogram.obj
 0001:0009c1e6       ??_ECPSLegacyProgram@D3DXShader@@UAEPAXI@Z 1009d1e6 f i d3dx9dt:cpslegacyprogram.obj
 0001:0009c205       ?PatternMatch@CPSLegacyProgram@D3DXShader@@MAEJXZ 1009d205 f   d3dx9dt:cpslegacyprogram.obj
 0001:0009c6bb       ??0CPSProgram@D3DXShader@@QAE@XZ 1009d6bb f   d3dx9dt:cpsprogram.obj
 0001:0009c6d4       ??1CPSProgram@D3DXShader@@UAE@XZ 1009d6d4 f   d3dx9dt:cpsprogram.obj
 0001:0009c6df       ?GenerateCode@CPSProgram@D3DXShader@@UAEJPAPAUID3DXBuffer@@PAVCProgram@2@@Z 1009d6df f   d3dx9dt:cpsprogram.obj
 0001:0009c703       ?InitCaps@CPSProgram@D3DXShader@@MAEJXZ 1009d703 f   d3dx9dt:cpsprogram.obj
 0001:0009c75a       ?DestMask@CPSProgram@D3DXShader@@MAEJPAIIPAKH@Z 1009d75a f   d3dx9dt:cpsprogram.obj
 0001:0009c888       ?ValidateOutput@CPSProgram@D3DXShader@@MAEJXZ 1009d888 f   d3dx9dt:cpsprogram.obj
 0001:0009ca76       ?PSEmitGE@CPSProgram@D3DXShader@@IAEJXZ 1009da76 f   d3dx9dt:cpsprogram.obj
 0001:0009cb48       ?PSEmitLT@CPSProgram@D3DXShader@@IAEJXZ 1009db48 f   d3dx9dt:cpsprogram.obj
 0001:0009cc1a       ?PSEmitMax@CPSProgram@D3DXShader@@IAEJXZ 1009dc1a f   d3dx9dt:cpsprogram.obj
 0001:0009cd44       ?PSEmitMin@CPSProgram@D3DXShader@@IAEJXZ 1009dd44 f   d3dx9dt:cpsprogram.obj
 0001:0009ce6e       ?EmitSize@CPSProgram@D3DXShader@@MAEJXZ 1009de6e f   d3dx9dt:cpsprogram.obj
 0001:0009ce8e       ?EmitVersion@CPSProgram@D3DXShader@@MAEJXZ 1009de8e f   d3dx9dt:cpsprogram.obj
 0001:0009ceac       ?EmitObjectDCL@CPSProgram@D3DXShader@@MAEJPAVCArgument@2@@Z 1009deac f   d3dx9dt:cpsprogram.obj
 0001:0009cf4d       ?FindObjectDims@CPSProgram@D3DXShader@@MAEJXZ 1009df4d f   d3dx9dt:cpsprogram.obj
 0001:0009d039       ?EmitDCL@CPSProgram@D3DXShader@@MAEJPAVCArgument@2@PAK@Z 1009e039 f   d3dx9dt:cpsprogram.obj
 0001:0009d1da       ?FindInput@CPSProgram@D3DXShader@@MAEJPAVCArgument@2@AAK1@Z 1009e1da f   d3dx9dt:cpsprogram.obj
 0001:0009d224       ?IndexSemantic@CPSProgram@D3DXShader@@UAEJPAVCArgument@2@H@Z 1009e224 f   d3dx9dt:cpsprogram.obj
 0001:0009d574       ?FindOutput@CPSProgram@D3DXShader@@MAEJPAVCArgument@2@AAK1PAH@Z 1009e574 f   d3dx9dt:cpsprogram.obj
 0001:0009d5ca       ?ViolatesWriteLim@CPSProgram@D3DXShader@@MAEHPAVCInstruction@2@I@Z 1009e5ca f   d3dx9dt:cpsprogram.obj
 0001:0009d61a       ?ViolatesPortConstraints@CPSProgram@D3DXShader@@MAEHPAVCInstruction@2@PAI@Z 1009e61a f   d3dx9dt:cpsprogram.obj
 0001:0009d7aa       ?ValidSwizzle@CPSProgram@D3DXShader@@IAEHPAI0@Z 1009e7aa f   d3dx9dt:cpsprogram.obj
 0001:0009d7d9       ?IsValidSwizzle@D3DXShader@@YGHPAI0@Z 1009e7d9 f i d3dx9dt:cpsprogram.obj
 0001:0009d82d       ?RemapInput@CPSProgram@D3DXShader@@IAEJAAPAVCInstruction@2@II@Z 1009e82d f   d3dx9dt:cpsprogram.obj
 0001:0009d9a7       ?RemapOutputMov@CPSProgram@D3DXShader@@IAEJAAPAVCInstruction@2@I@Z 1009e9a7 f   d3dx9dt:cpsprogram.obj
 0001:0009da9e       ?Unswizzle@CPSProgram@D3DXShader@@IAEJXZ 1009ea9e f   d3dx9dt:cpsprogram.obj
 0001:0009e54e       ?SrcSwizzle@CPSProgram@D3DXShader@@MAEJPAIIKPAK@Z 1009f54e f   d3dx9dt:cpsprogram.obj
 0001:0009e6c6       ??_GCPSProgram@D3DXShader@@UAEPAXI@Z 1009f6c6 f i d3dx9dt:cpsprogram.obj
 0001:0009e6c6       ??_ECPSProgram@D3DXShader@@UAEPAXI@Z 1009f6c6 f i d3dx9dt:cpsprogram.obj
 0001:0009e6eb       ?IsDPNoSwizzle@CPSProgram@D3DXShader@@IAEHPAVCInstruction@2@@Z 1009f6eb f   d3dx9dt:cpsprogram.obj
 0001:0009e7b5       ?PSMatchDP2Add@CPSProgram@D3DXShader@@IAEJXZ 1009f7b5 f   d3dx9dt:cpsprogram.obj
 0001:0009ec8d       ?EmitInstructions@CPSProgram@D3DXShader@@MAEJXZ 1009fc8d f   d3dx9dt:cpsprogram.obj
 0001:0009f3e4       ?PatternMatch@CPSProgram@D3DXShader@@MAEJXZ 100a03e4 f   d3dx9dt:cpsprogram.obj
 0001:0009f698       ?InitCaps@CVSProgram@D3DXShader@@MAEJXZ 100a0698 f   d3dx9dt:cvsprogram.obj
 0001:0009f717       ?ValidateOutput@CVSProgram@D3DXShader@@MAEJXZ 100a0717 f   d3dx9dt:cvsprogram.obj
 0001:0009f859       ?FindOutput@CVSProgram@D3DXShader@@MAEJPAVCArgument@2@AAK1PAH@Z 100a0859 f   d3dx9dt:cvsprogram.obj
 0001:0009f911       ?FindInput@CVSProgram@D3DXShader@@MAEJPAVCArgument@2@AAK1@Z 100a0911 f   d3dx9dt:cvsprogram.obj
 0001:0009f945       ?GenerateCode@CVSProgram@D3DXShader@@UAEJPAPAUID3DXBuffer@@PAVCProgram@2@@Z 100a0945 f   d3dx9dt:cvsprogram.obj
 0001:0009f967       ?EmitSize@CVSProgram@D3DXShader@@MAEJXZ 100a0967 f   d3dx9dt:cvsprogram.obj
 0001:0009f996       ?VSMatchDOT@CVSProgram@D3DXShader@@IAEJXZ 100a0996 f   d3dx9dt:cvsprogram.obj
 0001:000a047e       ?ViolatesPortConstraints@CVSProgram@D3DXShader@@MAEHPAVCInstruction@2@PAI@Z 100a147e f   d3dx9dt:cvsprogram.obj
 0001:000a063a       ?ViolatesWriteLim@CVSProgram@D3DXShader@@MAEHPAVCInstruction@2@I@Z 100a163a f   d3dx9dt:cvsprogram.obj
 0001:000a068a       ?EmitVersion@CVSProgram@D3DXShader@@MAEJXZ 100a168a f   d3dx9dt:cvsprogram.obj
 0001:000a06bc       ?IndexSemantic@CVSProgram@D3DXShader@@UAEJPAVCArgument@2@H@Z 100a16bc f   d3dx9dt:cvsprogram.obj
 0001:000a0bfb       ?EmitDCL@CVSProgram@D3DXShader@@MAEJPAVCArgument@2@PAK@Z 100a1bfb f   d3dx9dt:cvsprogram.obj
 0001:000a0f58       ?VSEmitFRC@CVSProgram@D3DXShader@@IAEJXZ 100a1f58 f   d3dx9dt:cvsprogram.obj
 0001:000a1218       ?VSEmitEXP@CVSProgram@D3DXShader@@IAEJXZ 100a2218 f   d3dx9dt:cvsprogram.obj
 0001:000a141c       ?VSEmitLOG@CVSProgram@D3DXShader@@IAEJXZ 100a241c f   d3dx9dt:cvsprogram.obj
 0001:000a1478       ?EmitAddress@CVSProgram@D3DXShader@@IAEJI@Z 100a2478 f   d3dx9dt:cvsprogram.obj
 0001:000a1574       ?EmitSrc@CVSProgram@D3DXShader@@MAEJKKK@Z 100a2574 f   d3dx9dt:cvsprogram.obj
 0001:000a15ec       ?CalcNumExtraSymbolTableEntries@CVSProgram@D3DXShader@@MAEIXZ 100a25ec f   d3dx9dt:cvsprogram.obj
 0001:000a160b       ?EmitDEF@CVSProgram@D3DXShader@@MAEJIPAM@Z 100a260b f   d3dx9dt:cvsprogram.obj
 0001:000a1683       ?AddExtraSymbolTableEntries@CVSProgram@D3DXShader@@MAEJPAVCCommentBlock@2@PAU_D3DXSHADER_CONSTANTINFO@@I@Z 100a2683 f   d3dx9dt:cvsprogram.obj
 0001:000a183b       ?AddUserOffsetInfo@CVSProgram@D3DXShader@@MAEJPAVCNodeVariable@2@PAU_D3DXSHADER_CONSTANTINFO@@@Z 100a283b f   d3dx9dt:cvsprogram.obj
 0001:000a1980       ??0CVSProgram@D3DXShader@@QAE@H@Z 100a2980 f   d3dx9dt:cvsprogram.obj
 0001:000a19c9       ??1CVSProgram@D3DXShader@@UAE@XZ 100a29c9 f   d3dx9dt:cvsprogram.obj
 0001:000a19f0       ?VSMatchDST@CVSProgram@D3DXShader@@IAEJXZ 100a29f0 f   d3dx9dt:cvsprogram.obj
 0001:000a1feb       ?PatternMatch@CVSProgram@D3DXShader@@MAEJXZ 100a2feb f   d3dx9dt:cvsprogram.obj
 0001:000a216c       ?EmitAddresses@CVSProgram@D3DXShader@@IAEJXZ 100a316c f   d3dx9dt:cvsprogram.obj
 0001:000a21c3       ??_ECVSProgram@D3DXShader@@UAEPAXI@Z 100a31c3 f i d3dx9dt:cvsprogram.obj
 0001:000a21c3       ??_GCVSProgram@D3DXShader@@UAEPAXI@Z 100a31c3 f i d3dx9dt:cvsprogram.obj
 0001:000a21e2       ?EmitInstructions@CVSProgram@D3DXShader@@MAEJXZ 100a31e2 f   d3dx9dt:cvsprogram.obj
 0001:000a2445       ??0CFXLProgram@D3DXShader@@QAE@XZ 100a3445 f   d3dx9dt:cfxlprogram.obj
 0001:000a245e       ??1CFXLProgram@D3DXShader@@UAE@XZ 100a345e f   d3dx9dt:cfxlprogram.obj
 0001:000a2469       ?InitCaps@CFXLProgram@D3DXShader@@MAEJXZ 100a3469 f   d3dx9dt:cfxlprogram.obj
 0001:000a2493       ?EmitAddress@CFXLProgram@D3DXShader@@QAEJIK@Z 100a3493 f   d3dx9dt:cfxlprogram.obj
 0001:000a24f9       ?EmitPool@CFXLProgram@D3DXShader@@QAEJPAVCArgument@2@@Z 100a34f9 f   d3dx9dt:cfxlprogram.obj
 0001:000a2590       ?EmitDouble@CFXLProgram@D3DXShader@@QAEJN@Z 100a3590 f   d3dx9dt:cfxlprogram.obj
 0001:000a25c6       ?IndexSemantic@CFXLProgram@D3DXShader@@UAEJPAVCArgument@2@H@Z 100a35c6 f   d3dx9dt:cfxlprogram.obj
 0001:000a27c4       ??_ECFXLProgram@D3DXShader@@UAEPAXI@Z 100a37c4 f i d3dx9dt:cfxlprogram.obj
 0001:000a27c4       ??_GCFXLProgram@D3DXShader@@UAEPAXI@Z 100a37c4 f i d3dx9dt:cfxlprogram.obj
 0001:000a27e9       ?GenerateCode@CFXLProgram@D3DXShader@@UAEJPAPAUID3DXBuffer@@PAVCProgram@2@@Z 100a37e9 f   d3dx9dt:cfxlprogram.obj
 0001:000a2d2c       ?jpeg_idct_4x4@D3DX@@YGXPAUjpeg_decompress_struct@1@PAUjpeg_component_info@1@PAFPAPAEI@Z 100a3d2c f   d3dx9dt:jidctred.obj
 0001:000a301c       ?jpeg_idct_2x2@D3DX@@YGXPAUjpeg_decompress_struct@1@PAUjpeg_component_info@1@PAFPAPAEI@Z 100a401c f   d3dx9dt:jidctred.obj
 0001:000a31df       ?jpeg_idct_1x1@D3DX@@YGXPAUjpeg_decompress_struct@1@PAUjpeg_component_info@1@PAFPAPAEI@Z 100a41df f   d3dx9dt:jidctred.obj
 0001:000a321e       ?jpeg_idct_islow@D3DX@@YGXPAUjpeg_decompress_struct@1@PAUjpeg_component_info@1@PAFPAPAEI@Z 100a421e f   d3dx9dt:jidctint.obj
 0001:000a36fa       ?jpeg_idct_ifast@D3DX@@YGXPAUjpeg_decompress_struct@1@PAUjpeg_component_info@1@PAFPAPAEI@Z 100a46fa f   d3dx9dt:jidctfst.obj
 0001:000a3b58       ?jpeg_idct_float@D3DX@@YGXPAUjpeg_decompress_struct@1@PAUjpeg_component_info@1@PAFPAPAEI@Z 100a4b58 f   d3dx9dt:jidctflt.obj
 0001:000a3f31       ?pidct8x8llm@D3DX@@YGXPAF00PAPAEIPAE@Z 100a4f31 f   d3dx9dt:piint.obj
 0001:000a4395       ?jpeg_idct_islow_x86@D3DX@@YGXPAUjpeg_decompress_struct@1@PAUjpeg_component_info@1@PAFPAPAEI@Z 100a5395 f   d3dx9dt:piint.obj
 0001:000a43cc       ?midct8x8llm@D3DX@@YGXPAF00PAPAEIPAE@Z 100a53cc f   d3dx9dt:miint.obj
 0001:000a4adb       ?jpeg_idct_islow_mmx@D3DX@@YGXPAUjpeg_decompress_struct@1@PAUjpeg_component_info@1@PAFPAPAEI@Z 100a5adb f   d3dx9dt:miint.obj
 0001:000a4b12       ?MYCbCr2RGB@D3DX@@YGXHPAE000@Z 100a5b12 f   d3dx9dt:mcbcr.obj
 0001:000a4c50       _d3dx_inflate_codes_new@20 100a5c50 f   d3dx9dt:infcodes.obj
 0001:000a4c83       _d3dx_inflate_codes@12     100a5c83 f   d3dx9dt:infcodes.obj
 0001:000a51da       _d3dx_inflate_codes_free@8 100a61da f   d3dx9dt:infcodes.obj
 0001:000a556a       _d3dx_inflate_trees_bits@20 100a656a f   d3dx9dt:inftrees.obj
 0001:000a55e3       _d3dx_inflate_trees_dynamic@36 100a65e3 f   d3dx9dt:inftrees.obj
 0001:000a56dd       _d3dx_inflate_trees_fixed@20 100a66dd f   d3dx9dt:inftrees.obj
 0001:000a570e       _d3dx_inflate_flush@12     100a670e f   d3dx9dt:infutil.obj
 0001:000a581f       ?jpeg_fdct_islow@D3DX@@YGXPAF@Z 100a681f f   d3dx9dt:jfdctint.obj
 0001:000a5b38       ?jpeg_fdct_ifast@D3DX@@YGXPAF@Z 100a6b38 f   d3dx9dt:jfdctfst.obj
 0001:000a5d7f       ?jpeg_fdct_float@D3DX@@YGXPAM@Z 100a6d7f f   d3dx9dt:jfdctflt.obj
 0001:000a609c       ??0CShaderProgram@D3DXShader@@QAE@XZ 100a709c f   d3dx9dt:cshaderprogram.obj
 0001:000a6118       ??1CShaderProgram@D3DXShader@@UAE@XZ 100a7118 f   d3dx9dt:cshaderprogram.obj
 0001:000a6158       ?ComputeSwizzle@CShaderProgram@D3DXShader@@IAEJPAVCInstruction@2@PAII11I@Z 100a7158 f   d3dx9dt:cshaderprogram.obj
 0001:000a62f9       ?MatchComplexTree@CShaderProgram@D3DXShader@@IAEJPAVCInstruction@2@PBUD3DX_MATCHENTRY@2@PAPAV32@PAI33I@Z 100a72f9 f   d3dx9dt:cshaderprogram.obj
 0001:000a672d       ?CombineConstants@CShaderProgram@D3DXShader@@IAEJIIKKD@Z 100a772d f   d3dx9dt:cshaderprogram.obj
 0001:000a6c58       ?EmitObjectDCL@CShaderProgram@D3DXShader@@MAEJPAVCArgument@2@@Z 100a7c58 f   d3dx9dt:cshaderprogram.obj
 0001:000a6c5d       ?FindObjectDims@CShaderProgram@D3DXShader@@MAEJXZ 100a7c5d f   d3dx9dt:cshaderprogram.obj
 0001:000a6c60       ?EmitDCL@CShaderProgram@D3DXShader@@MAEJPAVCArgument@2@PAK@Z 100a7c60 f   d3dx9dt:cshaderprogram.obj
 0001:000a6c79       ?IndexSemantic@CShaderProgram@D3DXShader@@UAEJPAVCArgument@2@H@Z 100a7c79 f   d3dx9dt:cshaderprogram.obj
 0001:000a6c95       ?ValidateOutput@CShaderProgram@D3DXShader@@MAEJXZ 100a7c95 f   d3dx9dt:cshaderprogram.obj
 0001:000a6caf       ?ViolatesPortConstraints@CShaderProgram@D3DXShader@@MAEHPAVCInstruction@2@PAI@Z 100a7caf f   d3dx9dt:cshaderprogram.obj
 0001:000a6cb4       ?EmitInstructions@CShaderProgram@D3DXShader@@MAEJXZ 100a7cb4 f   d3dx9dt:cshaderprogram.obj
 0001:000a6cce       ?EmitVersion@CShaderProgram@D3DXShader@@MAEJXZ 100a7cce f   d3dx9dt:cshaderprogram.obj
 0001:000a6cd1       ?PatternMatch@CShaderProgram@D3DXShader@@MAEJXZ 100a7cd1 f   d3dx9dt:cshaderprogram.obj
 0001:000a6ceb       ?ViolatesWriteLim@CShaderProgram@D3DXShader@@MAEHPAVCInstruction@2@I@Z 100a7ceb f   d3dx9dt:cshaderprogram.obj
 0001:000a6cf0       ?MatchMinMax@CShaderProgram@D3DXShader@@IAEJXZ 100a7cf0 f   d3dx9dt:cshaderprogram.obj
 0001:000a70bc       ?MatchRepMov@CShaderProgram@D3DXShader@@IAEJXZ 100a80bc f   d3dx9dt:cshaderprogram.obj
 0001:000a73ac       ?CommitOrigin@CShaderProgram@D3DXShader@@IAEJXZ 100a83ac f   d3dx9dt:cshaderprogram.obj
 0001:000a7428       ?PlaceInstruction@CShaderProgram@D3DXShader@@IAEJPAVCInstruction@2@PAPAV32@I@Z 100a8428 f   d3dx9dt:cshaderprogram.obj
 0001:000a75fa       ?MatchMAX@CShaderProgram@D3DXShader@@IAEJXZ 100a85fa f   d3dx9dt:cshaderprogram.obj
 0001:000a76ce       ?MatchABS@CShaderProgram@D3DXShader@@IAEJXZ 100a86ce f   d3dx9dt:cshaderprogram.obj
 0001:000a7782       ?FindComp@CShaderProgram@D3DXShader@@IAEJIPAPAVCInstruction@2@PAI@Z 100a8782 f   d3dx9dt:cshaderprogram.obj
 0001:000a7888       ?BuildLRP@CShaderProgram@D3DXShader@@IAEJPAI000PAVCInstruction@2@1I@Z 100a8888 f   d3dx9dt:cshaderprogram.obj
 0001:000a7b63       ?ValidModifier@CShaderProgram@D3DXShader@@IAEJI@Z 100a8b63 f   d3dx9dt:cshaderprogram.obj
 0001:000a7bd3       ?MatchLRP2@CShaderProgram@D3DXShader@@IAEJXZ 100a8bd3 f   d3dx9dt:cshaderprogram.obj
 0001:000a7f08       ?SwapRegisters@CShaderProgram@D3DXShader@@IAEJIII@Z 100a8f08 f   d3dx9dt:cshaderprogram.obj
 0001:000a7f97       ?FindMatch@CShaderProgram@D3DXShader@@IAEPAVCInstruction@2@KPAV32@PAIII@Z 100a8f97 f   d3dx9dt:cshaderprogram.obj
 0001:000a81f0       ?FindMatchUp@CShaderProgram@D3DXShader@@IAEJKPAVCInstruction@2@PAPAV32@I@Z 100a91f0 f   d3dx9dt:cshaderprogram.obj
 0001:000a83bd       ?BuildInstruction@CShaderProgram@D3DXShader@@IAEJPAIII@Z 100a93bd f   d3dx9dt:cshaderprogram.obj
 0001:000a851f       ?EmitNOP@CShaderProgram@D3DXShader@@IAEJXZ 100a951f f   d3dx9dt:cshaderprogram.obj
 0001:000a8522       ?EmitSize@CShaderProgram@D3DXShader@@MAEJXZ 100a9522 f   d3dx9dt:cshaderprogram.obj
 0001:000a8525       ?EmitSrcSwizzle@CShaderProgram@D3DXShader@@IAEJK@Z 100a9525 f   d3dx9dt:cshaderprogram.obj
 0001:000a852a       ?CoIssue@CShaderProgram@D3DXShader@@MAEKK@Z 100a952a f   d3dx9dt:cshaderprogram.obj
 0001:000a8534       ?CalcNumExtraSymbolTableEntries@CShaderProgram@D3DXShader@@MAEIXZ 100a9534 f   d3dx9dt:cshaderprogram.obj
 0001:000a8537       ?AddUserOffsetInfo@CShaderProgram@D3DXShader@@MAEJPAVCNodeVariable@2@PAU_D3DXSHADER_CONSTANTINFO@@@Z 100a9537 f   d3dx9dt:cshaderprogram.obj
 0001:000a853c       ?AddExtraSymbolTableEntries@CShaderProgram@D3DXShader@@MAEJPAVCCommentBlock@2@PAU_D3DXSHADER_CONSTANTINFO@@I@Z 100a953c f   d3dx9dt:cshaderprogram.obj
 0001:000a8541       ?TypeSize@D3DXShader@@YGIPAVCNode@1@@Z 100a9541 f   d3dx9dt:cshaderprogram.obj
 0001:000a85a2       ?EmitTypeInfo@D3DXShader@@YGJPAVCCommentBlock@1@PAVCNode@1@IPAK@Z 100a95a2 f   d3dx9dt:cshaderprogram.obj
 0001:000a8874       ?Assure@CShaderProgram@D3DXShader@@IAEJI@Z 100a9874 f   d3dx9dt:cshaderprogram.obj
 0001:000a891a       ?DestRegister@CShaderProgram@D3DXShader@@MAEJPAVCArgument@2@PAKPAH@Z 100a991a f   d3dx9dt:cshaderprogram.obj
 0001:000a8a03       ?FindOutput@CShaderProgram@D3DXShader@@MAEJPAVCArgument@2@AAK1PAH@Z 100a9a03 f   d3dx9dt:cshaderprogram.obj
 0001:000a8a1f       ?DestMask@CShaderProgram@D3DXShader@@MAEJPAIIPAKH@Z 100a9a1f f   d3dx9dt:cshaderprogram.obj
 0001:000a8b7f       ?FindInput@CShaderProgram@D3DXShader@@MAEJPAVCArgument@2@AAK1@Z 100a9b7f f   d3dx9dt:cshaderprogram.obj
 0001:000a8bc4       ?SrcRegister@CShaderProgram@D3DXShader@@MAEJPAVCArgument@2@PAK1@Z 100a9bc4 f   d3dx9dt:cshaderprogram.obj
 0001:000a8dcb       ?SrcSwizzle@CShaderProgram@D3DXShader@@MAEJPAIIKPAK@Z 100a9dcb f   d3dx9dt:cshaderprogram.obj
 0001:000a8ebc       ?TempRegister@CShaderProgram@D3DXShader@@MAEJIPAII0I@Z 100a9ebc f   d3dx9dt:cshaderprogram.obj
 0001:000a90a7       ?ValidateInst@CShaderProgram@D3DXShader@@IAEJXZ 100aa0a7 f   d3dx9dt:cshaderprogram.obj
 0001:000a9120       ?ValidationError@CShaderProgram@D3DXShader@@KGJPBDIKI0PAX@Z 100aa120 f   d3dx9dt:cshaderprogram.obj
 0001:000a91a1       ??_ECShaderProgram@D3DXShader@@UAEPAXI@Z 100aa1a1 f i d3dx9dt:cshaderprogram.obj
 0001:000a91a1       ??_GCShaderProgram@D3DXShader@@UAEPAXI@Z 100aa1a1 f i d3dx9dt:cshaderprogram.obj
 0001:000a91c0       ?Reset@CShaderProgram@D3DXShader@@IAEJXZ 100aa1c0 f   d3dx9dt:cshaderprogram.obj
 0001:000a91fe       ?PortConstraints@CShaderProgram@D3DXShader@@IAEJXZ 100aa1fe f   d3dx9dt:cshaderprogram.obj
 0001:000a9418       ?MatchSatModifier@CShaderProgram@D3DXShader@@IAEJXZ 100aa418 f   d3dx9dt:cshaderprogram.obj
 0001:000a9e9e       ?MatchSourceModifier@CShaderProgram@D3DXShader@@IAEJIIPAIIPAVCInstruction@2@@Z 100aae9e f   d3dx9dt:cshaderprogram.obj
 0001:000aa385       ?MatchNEG@CShaderProgram@D3DXShader@@IAEJXZ 100ab385 f   d3dx9dt:cshaderprogram.obj
 0001:000aa3a9       ?MatchComplexMad@CShaderProgram@D3DXShader@@IAEJXZ 100ab3a9 f   d3dx9dt:cshaderprogram.obj
 0001:000aa700       ?MatchBiasModifier@CShaderProgram@D3DXShader@@IAEJXZ 100ab700 f   d3dx9dt:cshaderprogram.obj
 0001:000aa9de       ?MatchX2Modifier@CShaderProgram@D3DXShader@@IAEJXZ 100ab9de f   d3dx9dt:cshaderprogram.obj
 0001:000aab2f       ?MatchCompModifier@CShaderProgram@D3DXShader@@IAEJPAVCInstruction@2@@Z 100abb2f f   d3dx9dt:cshaderprogram.obj
 0001:000aacb1       ?MatchComplexComp@CShaderProgram@D3DXShader@@IAEJXZ 100abcb1 f   d3dx9dt:cshaderprogram.obj
 0001:000aad4c       ?MatchComplexBX2@CShaderProgram@D3DXShader@@IAEJXZ 100abd4c f   d3dx9dt:cshaderprogram.obj
 0001:000aaedb       ?MatchSQRT@CShaderProgram@D3DXShader@@IAEJXZ 100abedb f   d3dx9dt:cshaderprogram.obj
 0001:000ab039       ?MatchLRP@CShaderProgram@D3DXShader@@IAEJXZ 100ac039 f   d3dx9dt:cshaderprogram.obj
 0001:000ab1b3       ?MatchADD@CShaderProgram@D3DXShader@@IAEJXZ 100ac1b3 f   d3dx9dt:cshaderprogram.obj
 0001:000ab4df       ?MatchMUL@CShaderProgram@D3DXShader@@IAEJXZ 100ac4df f   d3dx9dt:cshaderprogram.obj
 0001:000ab6e3       ?Emit@CShaderProgram@D3DXShader@@IAEJK@Z 100ac6e3 f   d3dx9dt:cshaderprogram.obj
 0001:000ab711       ?EmitSymbolTable@CShaderProgram@D3DXShader@@IAEJXZ 100ac711 f   d3dx9dt:cshaderprogram.obj
 0001:000abdb6       ?EmitDebugInfo@CShaderProgram@D3DXShader@@IAEJXZ 100acdb6 f   d3dx9dt:cshaderprogram.obj
 0001:000ac401       ?GenerateCode@CShaderProgram@D3DXShader@@UAEJPAPAUID3DXBuffer@@PAVCProgram@2@@Z 100ad401 f   d3dx9dt:cshaderprogram.obj
 0001:000acd99       ?EmitInst@CShaderProgram@D3DXShader@@IAEJK@Z 100add99 f   d3dx9dt:cshaderprogram.obj
 0001:000ace9a       ?EmitReg@CShaderProgram@D3DXShader@@IAEJK@Z 100ade9a f   d3dx9dt:cshaderprogram.obj
 0001:000aceaf       ?EmitDest@CShaderProgram@D3DXShader@@MAEJKK@Z 100adeaf f   d3dx9dt:cshaderprogram.obj
 0001:000acec8       ?EmitSrc@CShaderProgram@D3DXShader@@MAEJKKK@Z 100adec8 f   d3dx9dt:cshaderprogram.obj
 0001:000acf31       ?EmitInstComplex@CShaderProgram@D3DXShader@@IAEJKPAII000IKKK@Z 100adf31 f   d3dx9dt:cshaderprogram.obj
 0001:000ad10f       ?EmitDEF@CShaderProgram@D3DXShader@@MAEJIPAM@Z 100ae10f f   d3dx9dt:cshaderprogram.obj
 0001:000ad1d4       ?EmitTEX@CShaderProgram@D3DXShader@@IAEJXZ 100ae1d4 f   d3dx9dt:cshaderprogram.obj
 0001:000ad235       ?EmitTEXProj@CShaderProgram@D3DXShader@@IAEJXZ 100ae235 f   d3dx9dt:cshaderprogram.obj
 0001:000ad299       ?EmitTEXBias@CShaderProgram@D3DXShader@@IAEJXZ 100ae299 f   d3dx9dt:cshaderprogram.obj
 0001:000ad2fd       ?EmitDP2ADD@CShaderProgram@D3DXShader@@IAEJXZ 100ae2fd f   d3dx9dt:cshaderprogram.obj
 0001:000ad332       ?EmitCLIP@CShaderProgram@D3DXShader@@IAEJXZ 100ae332 f   d3dx9dt:cshaderprogram.obj
 0001:000ad45e       ?EmitNEG@CShaderProgram@D3DXShader@@IAEJXZ 100ae45e f   d3dx9dt:cshaderprogram.obj
 0001:000ad549       ?EmitLRP@CShaderProgram@D3DXShader@@IAEJXZ 100ae549 f   d3dx9dt:cshaderprogram.obj
 0001:000ad65b       ?EmitNRM@CShaderProgram@D3DXShader@@IAEJXZ 100ae65b f   d3dx9dt:cshaderprogram.obj
 0001:000ad6f9       ?EmitMAD@CShaderProgram@D3DXShader@@IAEJXZ 100ae6f9 f   d3dx9dt:cshaderprogram.obj
 0001:000ad82e       ?EmitMAT@CShaderProgram@D3DXShader@@IAEJXZ 100ae82e f   d3dx9dt:cshaderprogram.obj
 0001:000ad9df       ?EmitInstSimple@CShaderProgram@D3DXShader@@IAEJK@Z 100ae9df f   d3dx9dt:cshaderprogram.obj
 0001:000ada52       ?EmitInstScalar@CShaderProgram@D3DXShader@@IAEJKPAI0IIKH@Z 100aea52 f   d3dx9dt:cshaderprogram.obj
 0001:000adc2a       ?EmitMOV@CShaderProgram@D3DXShader@@IAEJXZ 100aec2a f   d3dx9dt:cshaderprogram.obj
 0001:000add1e       ?EmitRCP@CShaderProgram@D3DXShader@@IAEJXZ 100aed1e f   d3dx9dt:cshaderprogram.obj
 0001:000add3c       ?EmitFRC@CShaderProgram@D3DXShader@@IAEJXZ 100aed3c f   d3dx9dt:cshaderprogram.obj
 0001:000add44       ?EmitEXP@CShaderProgram@D3DXShader@@IAEJXZ 100aed44 f   d3dx9dt:cshaderprogram.obj
 0001:000add62       ?EmitLOG@CShaderProgram@D3DXShader@@IAEJXZ 100aed62 f   d3dx9dt:cshaderprogram.obj
 0001:000add80       ?EmitSQRT@CShaderProgram@D3DXShader@@IAEJXZ 100aed80 f   d3dx9dt:cshaderprogram.obj
 0001:000addfa       ?EmitMIN@CShaderProgram@D3DXShader@@IAEJXZ 100aedfa f   d3dx9dt:cshaderprogram.obj
 0001:000ade02       ?EmitMAX@CShaderProgram@D3DXShader@@IAEJXZ 100aee02 f   d3dx9dt:cshaderprogram.obj
 0001:000ade0a       ?EmitLT@CShaderProgram@D3DXShader@@IAEJXZ 100aee0a f   d3dx9dt:cshaderprogram.obj
 0001:000ade12       ?EmitGE@CShaderProgram@D3DXShader@@IAEJXZ 100aee12 f   d3dx9dt:cshaderprogram.obj
 0001:000ade1a       ?EmitADD@CShaderProgram@D3DXShader@@IAEJXZ 100aee1a f   d3dx9dt:cshaderprogram.obj
 0001:000ade22       ?EmitMUL@CShaderProgram@D3DXShader@@IAEJXZ 100aee22 f   d3dx9dt:cshaderprogram.obj
 0001:000ade2a       ?EmitDST@CShaderProgram@D3DXShader@@IAEJXZ 100aee2a f   d3dx9dt:cshaderprogram.obj
 0001:000ade32       ?EmitDOT@CShaderProgram@D3DXShader@@IAEJXZ 100aee32 f   d3dx9dt:cshaderprogram.obj
 0001:000aded4       ?EmitLIT@CShaderProgram@D3DXShader@@IAEJXZ 100aeed4 f   d3dx9dt:cshaderprogram.obj
 0001:000adedc       ?EmitCMP@CShaderProgram@D3DXShader@@IAEJXZ 100aeedc f   d3dx9dt:cshaderprogram.obj
 0001:000adee4       ?EmitABS@CShaderProgram@D3DXShader@@IAEJXZ 100aeee4 f   d3dx9dt:cshaderprogram.obj
 0001:000adeec       ?EmitRSQ@CShaderProgram@D3DXShader@@IAEJXZ 100aeeec f   d3dx9dt:cshaderprogram.obj
 0001:000adf22       ??0CPool@D3DXShader@@QAE@XZ 100aef22 f   d3dx9dt:cpool.obj
 0001:000adf2b       ??1CPool@D3DXShader@@QAE@XZ 100aef2b f   d3dx9dt:cpool.obj
 0001:000adf32       ?Initialize@CPool@D3DXShader@@QAEJPBDKII@Z 100aef32 f   d3dx9dt:cpool.obj
 0001:000adf78       ?Initialize@CPool@D3DXShader@@QAEJPAV12@@Z 100aef78 f   d3dx9dt:cpool.obj
 0001:000adfdb       _d3dx_inflate_fast@24      100aefdb f   d3dx9dt:inffast.obj
 0001:000ae29e       _Direct3DCreate9@4         100af29e f   d3d9:d3d9.dll
 0001:000ae2a4       _timeGetTime@0             100af2a4 f   winmm:WINMM.dll
 0001:000ae2aa       _DirectDrawCreateEx@16     100af2aa f   ddraw:DDRAW.dll
 0001:000ae2b0       _GdiplusStartup@12         100af2b0 f   GdiPlus:gdiplus.dll
 0001:000ae2b6       _GdiplusShutdown@4         100af2b6 f   GdiPlus:gdiplus.dll
 0001:000ae2bc       _GdipGetImageEncodersSize@8 100af2bc f   GdiPlus:gdiplus.dll
 0001:000ae2c2       _GdipGetImageEncoders@12   100af2c2 f   GdiPlus:gdiplus.dll
 0001:000ae2c8       _GdipFree@4                100af2c8 f   GdiPlus:gdiplus.dll
 0001:000ae2ce       _GdipAlloc@4               100af2ce f   GdiPlus:gdiplus.dll
 0001:000ae2d4       _GdipLoadImageFromStream@8 100af2d4 f   GdiPlus:gdiplus.dll
 0001:000ae2da       _GdipLoadImageFromStreamICM@8 100af2da f   GdiPlus:gdiplus.dll
 0001:000ae2e0       _GdipDisposeImage@4        100af2e0 f   GdiPlus:gdiplus.dll
 0001:000ae2e6       _GdipCloneImage@8          100af2e6 f   GdiPlus:gdiplus.dll
 0001:000ae2ec       _GdipSaveImageToFile@16    100af2ec f   GdiPlus:gdiplus.dll
 0001:000ae2f2       ?g_DebugLog@@YAXPADZZ      100af2f2 f   engine:Engine.dll
 0001:000ae2f8       _TIsCharacterNotAlowAtLineHead 100af2f8 f   engine:Engine.dll
 0001:000ae2fe       _TGetSecondVisibleCharacterThisLine 100af2fe f   engine:Engine.dll
 0001:000ae304       ?Close@KPakFile@@QAEXXZ    100af304 f   engine:Engine.dll
 0001:000ae30a       ?Read@KPakFile@@QAEKPAXI@Z 100af30a f   engine:Engine.dll
 0001:000ae310       ??1KPakFile@@QAE@XZ        100af310 f   engine:Engine.dll
 0001:000ae316       ?Open@KPakFile@@QAEHPBD@Z  100af316 f   engine:Engine.dll
 0001:000ae31c       ??0KPakFile@@QAE@XZ        100af31c f   engine:Engine.dll
 0001:000ae322       ?g_GetMainHWnd@@YAPAUHWND__@@XZ 100af322 f   engine:Engine.dll
 0001:000ae328       ?SaveBuffer32@KBmpFile24@@SAHPADPAXHHH@Z 100af328 f   engine:Engine.dll
 0001:000ae32e       ?release_image@@YAXPAUKSGImageContent@@@Z 100af32e f   engine:Engine.dll
 0001:000ae334       ?get_jpg_image@@YAPAUKSGImageContent@@QBDI@Z 100af334 f   engine:Engine.dll
 0001:000ae33a       ?SprReleaseHeader@@YAXPAUSPRHEAD@@@Z 100af33a f   engine:Engine.dll
 0001:000ae340       ?SprGetHeader@@YAPAUSPRHEAD@@PBDAAPAUSPROFFS@@@Z 100af340 f   engine:Engine.dll
 0001:000ae346       ?SprGetFrame@@YAPAUSPRFRAME@@PAUSPRHEAD@@H@Z 100af346 f   engine:Engine.dll
 0001:000ae34c       ?SprReleaseFrame@@YAXPAUSPRFRAME@@@Z 100af34c f   engine:Engine.dll
 0001:000ae352       ?g_FileName2Id@@YAKPAD@Z   100af352 f   engine:Engine.dll
 0001:000ae360       ??3@YAXPAX@Z               100af360 f   msvcprtd:delop_s.obj
 0001:000ae372       __chkesp                   100af372 f   MSVCRTD:MSVCRTD.dll
 0001:000ae380       __onexit                   100af380 f   MSVCRTD:atonexit.obj
 0001:000ae3c0       _atexit                    100af3c0 f   MSVCRTD:atonexit.obj
 0001:000ae3d8       __assert                   100af3d8 f   MSVCRTD:MSVCRTD.dll
 0001:000ae3de       _memset                    100af3de f   MSVCRTD:MSVCRTD.dll
 0001:000ae3f0       ___CxxFrameHandler         100af3f0 f   MSVCRTD:MSVCRTD.dll
 0001:000ae3f6       _strcmp                    100af3f6 f   MSVCRTD:MSVCRTD.dll
 0001:000ae3fc       ??2@YAPAXI@Z               100af3fc f   MSVCRTD:MSVCRTD.dll
 0001:000ae402       __purecall                 100af402 f   MSVCRTD:MSVCRTD.dll
 0001:000ae408       _strlen                    100af408 f   MSVCRTD:MSVCRTD.dll
 0001:000ae410       __chkstk                   100af410 f   MSVCRTD:chkstk.obj
 0001:000ae410       __alloca_probe             100af410 f   MSVCRTD:chkstk.obj
 0001:000ae440       __ftol                     100af440 f   MSVCRTD:MSVCRTD.dll
 0001:000ae446       _malloc                    100af446 f   MSVCRTD:MSVCRTD.dll
 0001:000ae44c       _free                      100af44c f   MSVCRTD:MSVCRTD.dll
 0001:000ae452       _atoi                      100af452 f   MSVCRTD:MSVCRTD.dll
 0001:000ae458       _sqrt                      100af458 f   MSVCRTD:MSVCRTD.dll
 0001:000ae45e       _fabs                      100af45e f   MSVCRTD:MSVCRTD.dll
 0001:000ae464       _abs                       100af464 f   MSVCRTD:MSVCRTD.dll
 0001:000ae46a       _memcpy                    100af46a f   MSVCRTD:MSVCRTD.dll
 0001:000ae470       _wcscmp                    100af470 f   MSVCRTD:MSVCRTD.dll
 0001:000ae476       __CrtDbgReport             100af476 f   MSVCRTD:MSVCRTD.dll
 0001:000ae47c       _strcpy                    100af47c f   MSVCRTD:MSVCRTD.dll
 0001:000ae482       _sprintf                   100af482 f   MSVCRTD:MSVCRTD.dll
 0001:000ae490       __CRT_INIT@12              100af490 f   MSVCRTD:crtdll.obj
 0001:000ae5a0       __DllMainCRTStartup@12     100af5a0 f   MSVCRTD:crtdll.obj
 0001:000ae694       __CIacos                   100af694 f   MSVCRTD:MSVCRTD.dll
 0001:000ae69a       __finite                   100af69a f   MSVCRTD:MSVCRTD.dll
 0001:000ae6a0       __controlfp                100af6a0 f   MSVCRTD:MSVCRTD.dll
 0001:000ae6a6       __EH_prolog                100af6a6 f   MSVCRTD:MSVCRTD.dll
 0001:000ae6ac       __snprintf                 100af6ac f   MSVCRTD:MSVCRTD.dll
 0001:000ae6b2       __vsnprintf                100af6b2 f   MSVCRTD:MSVCRTD.dll
 0001:000ae6b8       _longjmp                   100af6b8 f   MSVCRTD:MSVCRTD.dll
 0001:000ae6be       __setjmp3                  100af6be f   MSVCRTD:MSVCRTD.dll
 0001:000ae6c4       _isdigit                   100af6c4 f   MSVCRTD:MSVCRTD.dll
 0001:000ae6ca       _isspace                   100af6ca f   MSVCRTD:MSVCRTD.dll
 0001:000ae6d0       __CIpow                    100af6d0 f   MSVCRTD:MSVCRTD.dll
 0001:000ae6d6       _floor                     100af6d6 f   MSVCRTD:MSVCRTD.dll
 0001:000ae6e0       __aullshr                  100af6e0 f   MSVCRTD:ullshr.obj
 0001:000ae700       __CIasin                   100af700 f   MSVCRTD:MSVCRTD.dll
 0001:000ae706       __except_handler3          100af706 f   MSVCRTD:MSVCRTD.dll
 0001:000ae70c       _exit                      100af70c f   MSVCRTD:MSVCRTD.dll
 0001:000ae712       __strdup                   100af712 f   MSVCRTD:MSVCRTD.dll
 0001:000ae718       _setlocale                 100af718 f   MSVCRTD:MSVCRTD.dll
 0001:000ae71e       _atof                      100af71e f   MSVCRTD:MSVCRTD.dll
 0001:000ae724       _tolower                   100af724 f   MSVCRTD:MSVCRTD.dll
 0001:000ae72a       _isalnum                   100af72a f   MSVCRTD:MSVCRTD.dll
 0001:000ae730       _isalpha                   100af730 f   MSVCRTD:MSVCRTD.dll
 0001:000ae736       _isxdigit                  100af736 f   MSVCRTD:MSVCRTD.dll
 0001:000ae73c       _strncmp                   100af73c f   MSVCRTD:MSVCRTD.dll
 0001:000ae742       _toupper                   100af742 f   MSVCRTD:MSVCRTD.dll
 0001:000ae748       _memmove                   100af748 f   MSVCRTD:MSVCRTD.dll
 0001:000ae74e       _qsort                     100af74e f   MSVCRTD:MSVCRTD.dll
 0001:000ae754       _fread                     100af754 f   MSVCRTD:MSVCRTD.dll
 0001:000ae75a       _fseek                     100af75a f   MSVCRTD:MSVCRTD.dll
 0001:000ae760       _fwrite                    100af760 f   MSVCRTD:MSVCRTD.dll
 0001:000ae766       _fclose                    100af766 f   MSVCRTD:MSVCRTD.dll
 0001:000ae76c       _strncpy                   100af76c f   MSVCRTD:MSVCRTD.dll
 0001:000ae772       _tmpfile                   100af772 f   MSVCRTD:MSVCRTD.dll
 0001:000ae778       _printf                    100af778 f   MSVCRTD:MSVCRTD.dll
 0001:000ae77e       __fpclass                  100af77e f   MSVCRTD:MSVCRTD.dll
 0001:000ae784       __isnan                    100af784 f   MSVCRTD:MSVCRTD.dll
 0001:000ae78a       _ceil                      100af78a f   MSVCRTD:MSVCRTD.dll
 0001:000ae790       __CItanh                   100af790 f   MSVCRTD:MSVCRTD.dll
 0001:000ae796       __CIsinh                   100af796 f   MSVCRTD:MSVCRTD.dll
 0001:000ae79c       __CIfmod                   100af79c f   MSVCRTD:MSVCRTD.dll
 0001:000ae7a2       __CIexp                    100af7a2 f   MSVCRTD:MSVCRTD.dll
 0001:000ae7a8       __CIcosh                   100af7a8 f   MSVCRTD:MSVCRTD.dll
 0001:000ae7ae       __stricmp                  100af7ae f   MSVCRTD:MSVCRTD.dll
 0001:000ae7b4       ___dllonexit               100af7b4 f   MSVCRTD:MSVCRTD.dll
 0001:000ae7ba       __free_dbg                 100af7ba f   MSVCRTD:MSVCRTD.dll
 0001:000ae7c0       __initterm                 100af7c0 f   MSVCRTD:MSVCRTD.dll
 0001:000ae7c6       __malloc_dbg               100af7c6 f   MSVCRTD:MSVCRTD.dll
 0001:000ae7d0       _DllMain@12                100af7d0 f   MSVCRTD:dllmain.obj
 0001:000ae7f6       _GetSystemInfo@4           100af7f6 f   kernel32:KERNEL32.dll
 0001:000ae7fc       _IsProcessorFeaturePresent@4 100af7fc f   kernel32:KERNEL32.dll
 0001:000ae802       _OutputDebugStringA@4      100af802 f   kernel32:KERNEL32.dll
 0001:000ae808       _GetProfileIntA@12         100af808 f   kernel32:KERNEL32.dll
 0001:000ae80e       _DebugBreak@0              100af80e f   kernel32:KERNEL32.dll
 0001:000ae814       _FatalAppExitA@8           100af814 f   kernel32:KERNEL32.dll
 0001:000ae81a       _GetProcAddress@8          100af81a f   kernel32:KERNEL32.dll
 0001:000ae820       _LoadLibraryA@4            100af820 f   kernel32:KERNEL32.dll
 0001:000ae826       _GetModuleHandleA@4        100af826 f   kernel32:KERNEL32.dll
 0001:000ae82c       _WriteFile@20              100af82c f   kernel32:KERNEL32.dll
 0001:000ae832       _LocalFree@4               100af832 f   kernel32:KERNEL32.dll
 0001:000ae838       _FormatMessageA@28         100af838 f   kernel32:KERNEL32.dll
 0001:000ae83e       _GetLastError@0            100af83e f   kernel32:KERNEL32.dll
 0001:000ae844       _MapViewOfFile@20          100af844 f   kernel32:KERNEL32.dll
 0001:000ae84a       _GetFileSize@8             100af84a f   kernel32:KERNEL32.dll
 0001:000ae850       _CreateFileMappingA@24     100af850 f   kernel32:KERNEL32.dll
 0001:000ae856       _CreateFileA@28            100af856 f   kernel32:KERNEL32.dll
 0001:000ae85c       _CreateFileW@28            100af85c f   kernel32:KERNEL32.dll
 0001:000ae862       _WideCharToMultiByte@32    100af862 f   kernel32:KERNEL32.dll
 0001:000ae868       _GetVersionExA@4           100af868 f   kernel32:KERNEL32.dll
 0001:000ae86e       _CloseHandle@4             100af86e f   kernel32:KERNEL32.dll
 0001:000ae874       _UnmapViewOfFile@4         100af874 f   kernel32:KERNEL32.dll
 0001:000ae87a       _LockResource@4            100af87a f   kernel32:KERNEL32.dll
 0001:000ae880       _LoadResource@8            100af880 f   kernel32:KERNEL32.dll
 0001:000ae886       _SizeofResource@8          100af886 f   kernel32:KERNEL32.dll
 0001:000ae88c       _FindResourceA@12          100af88c f   kernel32:KERNEL32.dll
 0001:000ae892       _FindResourceW@12          100af892 f   kernel32:KERNEL32.dll
 0001:000ae898       _GetFullPathNameA@16       100af898 f   kernel32:KERNEL32.dll
 0001:000ae89e       _lstrcmpiA@8               100af89e f   kernel32:KERNEL32.dll
 0001:000ae8a4       _HeapAlloc@12              100af8a4 f   kernel32:KERNEL32.dll
 0001:000ae8aa       _GetProcessHeap@0          100af8aa f   kernel32:KERNEL32.dll
 0001:000ae8b0       _HeapFree@12               100af8b0 f   kernel32:KERNEL32.dll
 0001:000ae8b6       _DisableThreadLibraryCalls@4 100af8b6 f   kernel32:KERNEL32.dll
 0001:000ae8bc       _MessageBoxA@16            100af8bc f   user32:USER32.dll
 0001:000ae8c2       _DeleteObject@4            100af8c2 f   gdi32:GDI32.dll
 0001:000ae8c8       _RegCloseKey@4             100af8c8 f   advapi32:ADVAPI32.dll
 0001:000ae8ce       _RegQueryValueExA@24       100af8ce f   advapi32:ADVAPI32.dll
 0001:000ae8d4       _RegOpenKeyA@12            100af8d4 f   advapi32:ADVAPI32.dll
 0002:00000000       __imp__RegOpenKeyA@12      100b0000     advapi32:ADVAPI32.dll
 0002:00000004       __imp__RegQueryValueExA@24 100b0004     advapi32:ADVAPI32.dll
 0002:00000008       __imp__RegCloseKey@4       100b0008     advapi32:ADVAPI32.dll
 0002:0000000c       \177ADVAPI32_NULL_THUNK_DATA 100b000c     advapi32:ADVAPI32.dll
 0002:00000010       __imp__DirectDrawCreateEx@16 100b0010     ddraw:DDRAW.dll
 0002:00000014       \177DDRAW_NULL_THUNK_DATA  100b0014     ddraw:DDRAW.dll
 0002:00000018       __imp_?get_jpg_image@@YAPAUKSGImageContent@@QBDI@Z 100b0018     engine:Engine.dll
 0002:0000001c       __imp_?release_image@@YAXPAUKSGImageContent@@@Z 100b001c     engine:Engine.dll
 0002:00000020       __imp_?SprReleaseHeader@@YAXPAUSPRHEAD@@@Z 100b0020     engine:Engine.dll
 0002:00000024       __imp_?SprGetHeader@@YAPAUSPRHEAD@@PBDAAPAUSPROFFS@@@Z 100b0024     engine:Engine.dll
 0002:00000028       __imp_?SprGetFrame@@YAPAUSPRFRAME@@PAUSPRHEAD@@H@Z 100b0028     engine:Engine.dll
 0002:0000002c       __imp_?SprReleaseFrame@@YAXPAUSPRFRAME@@@Z 100b002c     engine:Engine.dll
 0002:00000030       __imp_?g_GetMainHWnd@@YAPAUHWND__@@XZ 100b0030     engine:Engine.dll
 0002:00000034       __imp_??0KPakFile@@QAE@XZ  100b0034     engine:Engine.dll
 0002:00000038       __imp_?Open@KPakFile@@QAEHPBD@Z 100b0038     engine:Engine.dll
 0002:0000003c       __imp_??1KPakFile@@QAE@XZ  100b003c     engine:Engine.dll
 0002:00000040       __imp_?Read@KPakFile@@QAEKPAXI@Z 100b0040     engine:Engine.dll
 0002:00000044       __imp_?Close@KPakFile@@QAEXXZ 100b0044     engine:Engine.dll
 0002:00000048       __imp__TGetSecondVisibleCharacterThisLine 100b0048     engine:Engine.dll
 0002:0000004c       __imp__TIsCharacterNotAlowAtLineHead 100b004c     engine:Engine.dll
 0002:00000050       __imp_?g_FileName2Id@@YAKPAD@Z 100b0050     engine:Engine.dll
 0002:00000054       __imp_?SaveBuffer32@KBmpFile24@@SAHPADPAXHHH@Z 100b0054     engine:Engine.dll
 0002:00000058       __imp_?g_DebugLog@@YAXPADZZ 100b0058     engine:Engine.dll
 0002:0000005c       \177Engine_NULL_THUNK_DATA 100b005c     engine:Engine.dll
 0002:00000060       __imp__DeleteObject@4      100b0060     gdi32:GDI32.dll
 0002:00000064       \177GDI32_NULL_THUNK_DATA  100b0064     gdi32:GDI32.dll
 0002:00000068       __imp__SizeofResource@8    100b0068     kernel32:KERNEL32.dll
 0002:0000006c       __imp__CloseHandle@4       100b006c     kernel32:KERNEL32.dll
 0002:00000070       __imp__GetVersionExA@4     100b0070     kernel32:KERNEL32.dll
 0002:00000074       __imp__WideCharToMultiByte@32 100b0074     kernel32:KERNEL32.dll
 0002:00000078       __imp__CreateFileW@28      100b0078     kernel32:KERNEL32.dll
 0002:0000007c       __imp__CreateFileA@28      100b007c     kernel32:KERNEL32.dll
 0002:00000080       __imp__CreateFileMappingA@24 100b0080     kernel32:KERNEL32.dll
 0002:00000084       __imp__LockResource@4      100b0084     kernel32:KERNEL32.dll
 0002:00000088       __imp__FindResourceA@12    100b0088     kernel32:KERNEL32.dll
 0002:0000008c       __imp__FindResourceW@12    100b008c     kernel32:KERNEL32.dll
 0002:00000090       __imp__GetFullPathNameA@16 100b0090     kernel32:KERNEL32.dll
 0002:00000094       __imp__lstrcmpiA@8         100b0094     kernel32:KERNEL32.dll
 0002:00000098       __imp__HeapAlloc@12        100b0098     kernel32:KERNEL32.dll
 0002:0000009c       __imp__GetProcessHeap@0    100b009c     kernel32:KERNEL32.dll
 0002:000000a0       __imp__HeapFree@12         100b00a0     kernel32:KERNEL32.dll
 0002:000000a4       __imp__DisableThreadLibraryCalls@4 100b00a4     kernel32:KERNEL32.dll
 0002:000000a8       __imp__GetFileSize@8       100b00a8     kernel32:KERNEL32.dll
 0002:000000ac       __imp__LoadResource@8      100b00ac     kernel32:KERNEL32.dll
 0002:000000b0       __imp__LeaveCriticalSection@4 100b00b0     kernel32:KERNEL32.dll
 0002:000000b4       __imp__EnterCriticalSection@4 100b00b4     kernel32:KERNEL32.dll
 0002:000000b8       __imp__GetTickCount@0      100b00b8     kernel32:KERNEL32.dll
 0002:000000bc       __imp__DeleteCriticalSection@4 100b00bc     kernel32:KERNEL32.dll
 0002:000000c0       __imp__InitializeCriticalSection@4 100b00c0     kernel32:KERNEL32.dll
 0002:000000c4       __imp__MultiByteToWideChar@24 100b00c4     kernel32:KERNEL32.dll
 0002:000000c8       __imp__UnmapViewOfFile@4   100b00c8     kernel32:KERNEL32.dll
 0002:000000cc       __imp__MapViewOfFile@20    100b00cc     kernel32:KERNEL32.dll
 0002:000000d0       __imp__GetLastError@0      100b00d0     kernel32:KERNEL32.dll
 0002:000000d4       __imp__FormatMessageA@28   100b00d4     kernel32:KERNEL32.dll
 0002:000000d8       __imp__LocalFree@4         100b00d8     kernel32:KERNEL32.dll
 0002:000000dc       __imp__WriteFile@20        100b00dc     kernel32:KERNEL32.dll
 0002:000000e0       __imp__GetModuleHandleA@4  100b00e0     kernel32:KERNEL32.dll
 0002:000000e4       __imp__LoadLibraryA@4      100b00e4     kernel32:KERNEL32.dll
 0002:000000e8       __imp__GetProcAddress@8    100b00e8     kernel32:KERNEL32.dll
 0002:000000ec       __imp__FatalAppExitA@8     100b00ec     kernel32:KERNEL32.dll
 0002:000000f0       __imp__DebugBreak@0        100b00f0     kernel32:KERNEL32.dll
 0002:000000f4       __imp__GetProfileIntA@12   100b00f4     kernel32:KERNEL32.dll
 0002:000000f8       __imp__OutputDebugStringA@4 100b00f8     kernel32:KERNEL32.dll
 0002:000000fc       __imp__IsProcessorFeaturePresent@4 100b00fc     kernel32:KERNEL32.dll
 0002:00000100       __imp__GetSystemInfo@4     100b0100     kernel32:KERNEL32.dll
 0002:00000104       __imp__GlobalMemoryStatus@4 100b0104     kernel32:KERNEL32.dll
 0002:00000108       \177KERNEL32_NULL_THUNK_DATA 100b0108     kernel32:KERNEL32.dll
 0002:0000010c       __imp__memcpy              100b010c     MSVCRTD:MSVCRTD.dll
 0002:00000110       __imp__wcscmp              100b0110     MSVCRTD:MSVCRTD.dll
 0002:00000114       __imp___CrtDbgReport       100b0114     MSVCRTD:MSVCRTD.dll
 0002:00000118       __imp__strcpy              100b0118     MSVCRTD:MSVCRTD.dll
 0002:0000011c       __imp__sprintf             100b011c     MSVCRTD:MSVCRTD.dll
 0002:00000120       __imp___CIacos             100b0120     MSVCRTD:MSVCRTD.dll
 0002:00000124       __imp___finite             100b0124     MSVCRTD:MSVCRTD.dll
 0002:00000128       __imp___controlfp          100b0128     MSVCRTD:MSVCRTD.dll
 0002:0000012c       __imp___EH_prolog          100b012c     MSVCRTD:MSVCRTD.dll
 0002:00000130       __imp___snprintf           100b0130     MSVCRTD:MSVCRTD.dll
 0002:00000134       __imp___vsnprintf          100b0134     MSVCRTD:MSVCRTD.dll
 0002:00000138       __imp__longjmp             100b0138     MSVCRTD:MSVCRTD.dll
 0002:0000013c       __imp___setjmp3            100b013c     MSVCRTD:MSVCRTD.dll
 0002:00000140       __imp__abs                 100b0140     MSVCRTD:MSVCRTD.dll
 0002:00000144       __imp__isspace             100b0144     MSVCRTD:MSVCRTD.dll
 0002:00000148       __imp___CIpow              100b0148     MSVCRTD:MSVCRTD.dll
 0002:0000014c       __imp__floor               100b014c     MSVCRTD:MSVCRTD.dll
 0002:00000150       __imp___CIasin             100b0150     MSVCRTD:MSVCRTD.dll
 0002:00000154       __imp___except_handler3    100b0154     MSVCRTD:MSVCRTD.dll
 0002:00000158       __imp__exit                100b0158     MSVCRTD:MSVCRTD.dll
 0002:0000015c       __imp___strdup             100b015c     MSVCRTD:MSVCRTD.dll
 0002:00000160       __imp__setlocale           100b0160     MSVCRTD:MSVCRTD.dll
 0002:00000164       __imp__atof                100b0164     MSVCRTD:MSVCRTD.dll
 0002:00000168       __imp__tolower             100b0168     MSVCRTD:MSVCRTD.dll
 0002:0000016c       __imp__isalnum             100b016c     MSVCRTD:MSVCRTD.dll
 0002:00000170       __imp__isalpha             100b0170     MSVCRTD:MSVCRTD.dll
 0002:00000174       __imp__isxdigit            100b0174     MSVCRTD:MSVCRTD.dll
 0002:00000178       __imp__strncmp             100b0178     MSVCRTD:MSVCRTD.dll
 0002:0000017c       __imp__toupper             100b017c     MSVCRTD:MSVCRTD.dll
 0002:00000180       __imp__memmove             100b0180     MSVCRTD:MSVCRTD.dll
 0002:00000184       __imp__qsort               100b0184     MSVCRTD:MSVCRTD.dll
 0002:00000188       __imp__fread               100b0188     MSVCRTD:MSVCRTD.dll
 0002:0000018c       __imp__fseek               100b018c     MSVCRTD:MSVCRTD.dll
 0002:00000190       __imp__fwrite              100b0190     MSVCRTD:MSVCRTD.dll
 0002:00000194       __imp__fclose              100b0194     MSVCRTD:MSVCRTD.dll
 0002:00000198       __imp__strncpy             100b0198     MSVCRTD:MSVCRTD.dll
 0002:0000019c       __imp__tmpfile             100b019c     MSVCRTD:MSVCRTD.dll
 0002:000001a0       __imp__printf              100b01a0     MSVCRTD:MSVCRTD.dll
 0002:000001a4       __imp___fpclass            100b01a4     MSVCRTD:MSVCRTD.dll
 0002:000001a8       __imp___isnan              100b01a8     MSVCRTD:MSVCRTD.dll
 0002:000001ac       __imp__ceil                100b01ac     MSVCRTD:MSVCRTD.dll
 0002:000001b0       __imp___CItanh             100b01b0     MSVCRTD:MSVCRTD.dll
 0002:000001b4       __imp___CIsinh             100b01b4     MSVCRTD:MSVCRTD.dll
 0002:000001b8       __imp___CIfmod             100b01b8     MSVCRTD:MSVCRTD.dll
 0002:000001bc       __imp___CIexp              100b01bc     MSVCRTD:MSVCRTD.dll
 0002:000001c0       __imp___CIcosh             100b01c0     MSVCRTD:MSVCRTD.dll
 0002:000001c4       __imp___stricmp            100b01c4     MSVCRTD:MSVCRTD.dll
 0002:000001c8       __imp____dllonexit         100b01c8     MSVCRTD:MSVCRTD.dll
 0002:000001cc       __imp___onexit             100b01cc     MSVCRTD:MSVCRTD.dll
 0002:000001d0       __imp___free_dbg           100b01d0     MSVCRTD:MSVCRTD.dll
 0002:000001d4       __imp___initterm           100b01d4     MSVCRTD:MSVCRTD.dll
 0002:000001d8       __imp___malloc_dbg         100b01d8     MSVCRTD:MSVCRTD.dll
 0002:000001dc       __imp___adjust_fdiv        100b01dc     MSVCRTD:MSVCRTD.dll
 0002:000001e0       __imp__fabs                100b01e0     MSVCRTD:MSVCRTD.dll
 0002:000001e4       __imp__sqrt                100b01e4     MSVCRTD:MSVCRTD.dll
 0002:000001e8       __imp__atoi                100b01e8     MSVCRTD:MSVCRTD.dll
 0002:000001ec       __imp__free                100b01ec     MSVCRTD:MSVCRTD.dll
 0002:000001f0       __imp__malloc              100b01f0     MSVCRTD:MSVCRTD.dll
 0002:000001f4       __imp___ftol               100b01f4     MSVCRTD:MSVCRTD.dll
 0002:000001f8       __imp__strlen              100b01f8     MSVCRTD:MSVCRTD.dll
 0002:000001fc       __imp___purecall           100b01fc     MSVCRTD:MSVCRTD.dll
 0002:00000200       __imp_??2@YAPAXI@Z         100b0200     MSVCRTD:MSVCRTD.dll
 0002:00000204       __imp__strcmp              100b0204     MSVCRTD:MSVCRTD.dll
 0002:00000208       __imp____CxxFrameHandler   100b0208     MSVCRTD:MSVCRTD.dll
 0002:0000020c       __imp__memset              100b020c     MSVCRTD:MSVCRTD.dll
 0002:00000210       __imp___assert             100b0210     MSVCRTD:MSVCRTD.dll
 0002:00000214       __imp___chkesp             100b0214     MSVCRTD:MSVCRTD.dll
 0002:00000218       __imp__isdigit             100b0218     MSVCRTD:MSVCRTD.dll
 0002:0000021c       \177MSVCRTD_NULL_THUNK_DATA 100b021c     MSVCRTD:MSVCRTD.dll
 0002:00000220       __imp__SetWindowLongA@12   100b0220     user32:USER32.dll
 0002:00000224       __imp__GetWindowLongA@8    100b0224     user32:USER32.dll
 0002:00000228       __imp__ClientToScreen@8    100b0228     user32:USER32.dll
 0002:0000022c       __imp__GetClientRect@8     100b022c     user32:USER32.dll
 0002:00000230       __imp__MessageBoxA@16      100b0230     user32:USER32.dll
 0002:00000234       __imp__DefWindowProcA@16   100b0234     user32:USER32.dll
 0002:00000238       \177USER32_NULL_THUNK_DATA 100b0238     user32:USER32.dll
 0002:0000023c       __imp__timeGetTime@0       100b023c     winmm:WINMM.dll
 0002:00000240       \177WINMM_NULL_THUNK_DATA  100b0240     winmm:WINMM.dll
 0002:00000244       __imp__Direct3DCreate9@4   100b0244     d3d9:d3d9.dll
 0002:00000248       \177d3d9_NULL_THUNK_DATA   100b0248     d3d9:d3d9.dll
 0002:0000024c       __imp__GdipGetImageEncoders@12 100b024c     GdiPlus:gdiplus.dll
 0002:00000250       __imp__GdipGetImageEncodersSize@8 100b0250     GdiPlus:gdiplus.dll
 0002:00000254       __imp__GdiplusStartup@12   100b0254     GdiPlus:gdiplus.dll
 0002:00000258       __imp__GdiplusShutdown@4   100b0258     GdiPlus:gdiplus.dll
 0002:0000025c       __imp__GdipSaveImageToFile@16 100b025c     GdiPlus:gdiplus.dll
 0002:00000260       __imp__GdipCloneImage@8    100b0260     GdiPlus:gdiplus.dll
 0002:00000264       __imp__GdipFree@4          100b0264     GdiPlus:gdiplus.dll
 0002:00000268       __imp__GdipAlloc@4         100b0268     GdiPlus:gdiplus.dll
 0002:0000026c       __imp__GdipLoadImageFromStream@8 100b026c     GdiPlus:gdiplus.dll
 0002:00000270       __imp__GdipLoadImageFromStreamICM@8 100b0270     GdiPlus:gdiplus.dll
 0002:00000274       __imp__GdipDisposeImage@4  100b0274     GdiPlus:gdiplus.dll
 0002:00000278       \177gdiplus_NULL_THUNK_DATA 100b0278     GdiPlus:gdiplus.dll
 0002:0000027c       __imp__CreateStreamOnHGlobal@12 100b027c     ole32:ole32.dll
 0002:00000280       \177ole32_NULL_THUNK_DATA  100b0280     ole32:ole32.dll
 0002:000002ac       ??_7KCharSet@@6B@          100b02ac     KCharSet.obj
 0002:000002b0       ??_7KFont3@@6B@            100b02b0     KFont3.obj
 0002:000002d4       ??_7iFont@@6B@             100b02d4     KFont3.obj
 0002:000002f8       __real@4@3ffe8000000000000000 100b02f8     KFont3.obj
 0002:000002fc       ??_7KFontRes@@6B@          100b02fc     KFontRes.obj
 0002:00000300       ??_7KMRU@@6B@              100b0300     KMRU.obj
 0002:00000304       __real@4@40008000000000000000 100b0304     KRepresentShell3.obj
 0002:00000308       __real@4@3fff8000000000000000 100b0308     KRepresentShell3.obj
 0002:0000030c       ??_7KRepresentShell3@@6B@  100b030c     KRepresentShell3.obj
 0002:00000390       ??_7iRepresentShell@@6B@   100b0390     KRepresentShell3.obj
 0002:00000418       __real@8@3fffaf5c28f5c28f6000 100b0418     KRepresentShell3.obj
 0002:00000420       __real@4@00000000000000000000 100b0420     KRepresentShell3.obj
 0002:00000424       __real@4@40078000000000000000 100b0424     KRepresentShell3.obj
 0002:00000428       __real@4@40068000000000000000 100b0428     KRepresentShell3.obj
 0002:0000042c       __real@4@4006d70a3e0000000000 100b042c     KRepresentShell3.obj
 0002:00000430       __real@4@4006a800000000000000 100b0430     KRepresentShell3.obj
 0002:00000434       __real@4@3fff8f5c290000000000 100b0434     KRepresentShell3.obj
 0002:00000438       __real@4@3fff8666660000000000 100b0438     KRepresentShell3.obj
 0002:0000043c       __real@4@40078200000000000000 100b043c     KRepresentShell3.obj
 0002:00000440       __real@8@400a9100000000000000 100b0440     KRepresentShell3.obj
 0002:00000448       __real@4@400afa00000000000000 100b0448     KRepresentShell3.obj
 0002:0000044c       __real@4@40048000000000000000 100b044c     KRepresentShell3.obj
 0002:00000450       ??_7Image@Gdiplus@@6B@     100b0450     RepresentUtility.obj
 0002:00000458       __real@8@3ffefff972474538f000 100b0458     TextProcess.obj
 0002:00000460       __real@8@3fffc000000000000000 100b0460     TextProcess.obj
 0002:00000468       ??_7TextureRes@@6B@        100b0468     TextureRes.obj
 0002:00000488       ??_7TextureResBmp@@6B@     100b0488     TextureRes.obj
 0002:000004a8       ??_7TextureResSpr@@6B@     100b04a8     TextureRes.obj
 0002:000024e8       __real@34000000            100b24e8     d3dx9dt:d3dxmath.obj
 0002:000024ec       __real@b4000000            100b24ec     d3dx9dt:d3dxmath.obj
 0002:000024f0       __real@3f800000            100b24f0     d3dx9dt:d3dxmath.obj
 0002:000024f4       __real@40400000            100b24f4     d3dx9dt:d3dxmath.obj
 0002:000024f8       __real@3f000000            100b24f8     d3dx9dt:d3dxmath.obj
 0002:000024fc       __real@40800000            100b24fc     d3dx9dt:d3dxmath.obj
 0002:00002500       __real@40a00000            100b2500     d3dx9dt:d3dxmath.obj
 0002:00002504       __real@40000000            100b2504     d3dx9dt:d3dxmath.obj
 0002:00002508       __real@00000000            100b2508     d3dx9dt:d3dxmath.obj
 0002:0000250c       __real@3e800000            100b250c     d3dx9dt:d3dxmath.obj
 0002:00002510       __real@00800000            100b2510     d3dx9dt:d3dxmath.obj
 0002:00002514       __real@20000000            100b2514     d3dx9dt:d3dxmath.obj
 0002:00002518       __real@3e59999a            100b2518     d3dx9dt:d3dxmath.obj
 0002:0000251c       __real@3f372474            100b251c     d3dx9dt:d3dxmath.obj
 0002:00002520       __real@3d93a92a            100b2520     d3dx9dt:d3dxmath.obj
 0002:00002524       __real@3fc00000            100b2524     d3dx9dt:d3dxmath.obj
 0002:00002528       __real@461c4000            100b2528     d3dx9dt:d3dxmath.obj
 0002:0000252c       __real@4f800000            100b252c     d3dx9dt:d3dxmath.obj
 0002:00002530       __real@bf000000            100b2530     d3dx9dt:d3dxmath.obj
 0002:00002534       __real@c0000000            100b2534     d3dx9dt:d3dxmath.obj
 0002:00002538       __real@be800000            100b2538     d3dx9dt:d3dxmath.obj
 0002:00002dd4       ??_C@_0BM@DHBPAGHJ@pSrcRect?5pointer?5is?5invalid?$AA@ 100b2dd4     d3dx9dt:d3dx9tex.obj
 0002:00002df0       ??_C@_0BO@NACGEJHH@pSrcMemory?5pointer?5is?5invalid?$AA@ 100b2df0     d3dx9dt:d3dx9tex.obj
 0002:00002e10       ??_C@_0CA@GAFGIFHP@pDestSurface?5pointer?5is?5invalid?$AA@ 100b2e10     d3dx9dt:d3dx9tex.obj
 0002:00002e30       ??_C@_0BP@PEJBLDFJ@pSrcSurface?5pointer?5is?5invalid?$AA@ 100b2e30     d3dx9dt:d3dx9tex.obj
 0002:00002e50       ??_C@_0BN@IACHMKKH@pDestFile?5pointer?5is?5invalid?$AA@ 100b2e50     d3dx9dt:d3dx9tex.obj
 0002:00002e70       ??_C@_0BL@NBIOAEKH@pSrcBox?5pointer?5is?5invalid?$AA@ 100b2e70     d3dx9dt:d3dx9tex.obj
 0002:00002e8c       ??_C@_0BP@KGJAPLKM@pDestVolume?5pointer?5is?5invalid?$AA@ 100b2e8c     d3dx9dt:d3dx9tex.obj
 0002:00002eac       ??_C@_0BO@FJNFJCF@pSrcVolume?5pointer?5is?5invalid?$AA@ 100b2eac     d3dx9dt:d3dx9tex.obj
 0002:00002ecc       ??_C@_0CL@EGAFKBGI@Device?5does?5not?5support?5this?5Usa@ 100b2ecc     d3dx9dt:d3dx9tex.obj
 0002:00002ef8       ??_C@_0BK@IPDFBDJG@Pool?5parameter?5is?5invalid?$AA@ 100b2ef8     d3dx9dt:d3dx9tex.obj
 0002:00002f14       ??_C@_0BL@LKCMLIEH@Usage?5parameter?5is?5invalid?$AA@ 100b2f14     d3dx9dt:d3dx9tex.obj
 0002:00002f30       ??_C@_0BL@NAHOCEEG@pDevice?5pointer?5is?5invalid?$AA@ 100b2f30     d3dx9dt:d3dx9tex.obj
 0002:00002f4c       ??_C@_0BF@OFMJCPNJ@CreateTexture?5failed?$AA@ 100b2f4c     d3dx9dt:d3dx9tex.obj
 0002:00002f64       ??_C@_0BN@FOGPOKOI@ppTexture?5pointer?5is?5invalid?$AA@ 100b2f64     d3dx9dt:d3dx9tex.obj
 0002:00002f84       ??_C@_0BJ@OOBOJBBH@CreateCubeTexture?5failed?$AA@ 100b2f84     d3dx9dt:d3dx9tex.obj
 0002:00002fa0       ??_C@_0CB@BJPHCGCD@ppCubeTexture?5pointer?5is?5invalid@ 100b2fa0     d3dx9dt:d3dx9tex.obj
 0002:00002fc4       ??_C@_0BL@EFCLNABL@CreateVolumeTexture?5failed?$AA@ 100b2fc4     d3dx9dt:d3dx9tex.obj
 0002:00002fe0       ??_C@_0CD@DKEJPLKG@ppVolumeTexture?5pointer?5is?5inval@ 100b2fe0     d3dx9dt:d3dx9tex.obj
 0002:00003004       ??_C@_0BN@EGJPGNBO@pFunction?5pointer?5is?5invalid?$AA@ 100b3004     d3dx9dt:d3dx9tex.obj
 0002:00003024       ??_C@_0BM@PDNCPHLO@pTexture?5pointer?5is?5invalid?$AA@ 100b3024     d3dx9dt:d3dx9tex.obj
 0002:00003040       ??_C@_0CA@BKGDEJNO@pCubeTexture?5pointer?5is?5invalid?$AA@ 100b3040     d3dx9dt:d3dx9tex.obj
 0002:00003060       ??_C@_0BO@KLGAOELH@pConstants?5pointer?5is?5invalid?$AA@ 100b3060     d3dx9dt:d3dx9tex.obj
 0002:00003080       ??_C@_0CC@EGFGBLAL@pVolumeTexture?5pointer?5is?5invali@ 100b3080     d3dx9dt:d3dx9tex.obj
 0002:000030a4       ??_C@_0BE@MALOJOLP@Invalid?5color?5flags?$AA@ 100b30a4     d3dx9dt:d3dx9tex.obj
 0002:000030b8       ??_C@_0CB@MDPOGLND@Destination?5format?5not?5supported@ 100b30b8     d3dx9dt:d3dx9tex.obj
 0002:000030dc       ??_C@_0DK@PHEPHJOD@Source?5and?5destination?5textures?5@ 100b30dc     d3dx9dt:d3dx9tex.obj
 0002:00003118       __real@3e000000            100b3118     d3dx9dt:d3dx9tex.obj
 0002:0000311c       __real@bf800000            100b311c     d3dx9dt:d3dx9tex.obj
 0002:00003120       ??_C@_0DL@NNMAPACM@Source?5and?5Destination?5have?5diff@ 100b3120     d3dx9dt:d3dx9tex.obj
 0002:0000315c       ??_C@_0BM@COACOKCJ@Source?5format?5not?5supported?$AA@ 100b315c     d3dx9dt:d3dx9tex.obj
 0002:00003178       ??_C@_0BL@MPIDLAFB@Unknown?5destination?5format?$AA@ 100b3178     d3dx9dt:d3dx9tex.obj
 0002:00003194       ??_C@_0BG@MALHBAJE@Unknown?5source?5format?$AA@ 100b3194     d3dx9dt:d3dx9tex.obj
 0002:000031ac       ??_C@_0O@IHOLGAKK@Invalid?5flags?$AA@ 100b31ac     d3dx9dt:d3dx9tex.obj
 0002:000031bc       ??_C@_0BL@DBLCOEIN@pSource?5pointer?5is?5invalid?$AA@ 100b31bc     d3dx9dt:d3dx9tex.obj
 0002:000031d8       ??_C@_0DI@HAAAFEAI@Source?5surface?5data?5?$CIpvSrcData?5o@ 100b31d8     d3dx9dt:d3dx9tex.obj
 0002:00003210       ??_C@_0BE@CNELHOPC@Invalid?5source?5rect?$AA@ 100b3210     d3dx9dt:d3dx9tex.obj
 0002:00003224       ??_C@_0DH@CEMGGBAI@Source?5volume?5data?5?$CIpvSrcData?5or@ 100b3224     d3dx9dt:d3dx9tex.obj
 0002:0000325c       ??_C@_0BD@OKEBNDAJ@Invalid?5source?5box?$AA@ 100b325c     d3dx9dt:d3dx9tex.obj
 0002:00003270       ??_C@_0DD@IJKCCHPD@uSrcLevel?5larger?5than?5num?5Mip?5le@ 100b3270     d3dx9dt:d3dx9tex.obj
 0002:000032a4       ??_C@_0CA@HACEEFAM@pBaseTexture?5pointer?5is?5invalid?$AA@ 100b32a4     d3dx9dt:d3dx9tex.obj
 0002:000032c4       ??_C@_0CA@EBFMBCOB@Failed?5trying?5to?5create?5texture?$AA@ 100b32c4     d3dx9dt:d3dx9tex.obj
 0002:000032e4       ??_C@_0CF@EBCPKGG@File?5does?5not?5contain?5a?5cube?5tex@ 100b32e4     d3dx9dt:d3dx9tex.obj
 0002:0000330c       ??_C@_0BL@CJEHOHNE@Texture?5pointer?5is?5invalid?$AA@ 100b330c     d3dx9dt:d3dx9tex.obj
 0002:00003328       ??_C@_0BL@BNHEOBOI@cbSrcData?5value?5is?5invalid?$AA@ 100b3328     d3dx9dt:d3dx9tex.obj
 0002:00003344       ??_C@_0BN@FKPNHIFH@pvSrcData?5pointer?5is?5invalid?$AA@ 100b3344     d3dx9dt:d3dx9tex.obj
 0002:00003364       ??_C@_0BP@CJNKKBCB@pSrcTexture?5pointer?5is?5invalid?$AA@ 100b3364     d3dx9dt:d3dx9tex.obj
 0002:00003384       __real@40c00000            100b3384     d3dx9dt:psgpmesh.obj
 0002:00003388       __real@3e2aaa7e            100b3388     d3dx9dt:psgpmesh.obj
 0002:0000338c       __real@3eaaaaab            100b338c     d3dx9dt:psgpmesh.obj
 0002:00003390       ??_C@_0BM@IHHDGEAJ@Software?2Microsoft?2Direct3D?$AA@ 100b3390     d3dx9dt:cpudetect.obj
 0002:000033ac       ??_C@_0L@FLOHHHAO@DisableMMX?$AA@ 100b33ac     d3dx9dt:cpudetect.obj
 0002:000033b8       ??_C@_0N@BDDFKIGD@GenuineIntel?$AA@ 100b33b8     d3dx9dt:cpudetect.obj
 0002:000033c8       ??_C@_0BO@OOGBMJCH@?$CIINFO?$CJ?5Using?5x87?5Instructions?$AA@ 100b33c8     d3dx9dt:cpudetect.obj
 0002:000033e8       ??_C@_0BO@LIAICCMA@?$CIINFO?$CJ?5Using?5SSE?5Instructions?$AA@ 100b33e8     d3dx9dt:cpudetect.obj
 0002:00003408       ??_C@_0BP@MJLIDOON@?$CIINFO?$CJ?5Using?5SSE2?5Instructions?$AA@ 100b3408     d3dx9dt:cpudetect.obj
 0002:00003428       ??_C@_0CA@KFPCEFBF@?$CIINFO?$CJ?5Using?53DNow?5Instructions?$AA@ 100b3428     d3dx9dt:cpudetect.obj
 0002:00003448       ??_C@_0BA@MHCFIELB@DisableD3DXPSGP?$AA@ 100b3448     d3dx9dt:cpudetect.obj
 0002:00003458       ??_C@_0M@GCJEAAPG@DisablePSGP?$AA@ 100b3458     d3dx9dt:cpudetect.obj
 0002:00003464       ??_C@_0L@PNLDIMMI@D3DX?3?5?$CFs?$AN?6?$AA@ 100b3464     d3dx9dt:d3dx9dbg.obj
 0002:00003470       ??_C@_08POBFLGLP@Direct3D?$AA@ 100b3470     d3dx9dt:d3dx9dbg.obj
 0002:0000347c       ??_C@_05GFCDIDHO@debug?$AA@ 100b347c     d3dx9dt:d3dx9dbg.obj
 0002:00003484       ??_C@_0CP@HPLDPJOO@D3DX?5Assertion?5Failure?$DL?5applicat@ 100b3484     d3dx9dt:d3dx9dbg.obj
 0002:000034b4       ??_C@_0BH@BFBGIDJK@D3DX?5Assertion?5Failure?$AA@ 100b34b4     d3dx9dt:d3dx9dbg.obj
 0002:000034d0       ??_C@_0GG@CILJEBNK@?$CFs?5?$CI?$CFd?$CJ?3?6?6D3DXASSERT?$CI?$CFs?$CJ?$DL?6?6Do?5yo@ 100b34d0     d3dx9dt:d3dx9dbg.obj
 0002:00003538       ??_C@_04HDMBFDGE@D3DX?$AA@ 100b3538     d3dx9dt:d3dx9dbg.obj
 0002:00003540       ??_C@_0BC@KNBMEBEO@IsDebuggerPresent?$AA@ 100b3540     d3dx9dt:d3dx9dbg.obj
 0002:00003554       ??_C@_0N@MDJJJHMB@kernel32?4dll?$AA@ 100b3554     d3dx9dt:d3dx9dbg.obj
 0002:00003564       ??_C@_0BP@CKKGGGIJ@Assertion?5failure?$CB?5?$CI?$CFs?5?$CFd?$CJ?3?5?$CFs?$AA@ 100b3564     d3dx9dt:d3dx9dbg.obj
 0002:00003584       ??_C@_0O@EPNLBGEO@D3DXDoNotMute?$AA@ 100b3584     d3dx9dt:d3dx9dbg.obj
 0002:00003594       ??_C@_09GLMKCLMG@d3d9d?4dll?$AA@ 100b3594     d3dx9dt:d3dx9dbg.obj
 0002:000035a0       ??_C@_0N@DIPAJPJI@DebugSetMute?$AA@ 100b35a0     d3dx9dt:d3dx9dbg.obj
 0002:000035b0       ??_C@_08NIHLGCK@d3d9?4dll?$AA@ 100b35b0     d3dx9dt:d3dx9dbg.obj
 0002:000035bc       ??_C@_0CI@MKNGFDBH@LoadBMP?3?5JPEG?5compression?5not?5su@ 100b35bc     d3dx9dt:cimage.obj
 0002:000035e4       ??_C@_0CH@HINADBEL@LoadBMP?3?5PNG?5compression?5not?5sup@ 100b35e4     d3dx9dt:cimage.obj
 0002:0000360c       ??_C@_0M@LFCHLCJI@LoadJPG?3?5?$CFs?$AA@ 100b360c     d3dx9dt:cimage.obj
 0002:00003618       ??_C@_0L@JBGDLKBH@read?5error?$AA@ 100b3618     d3dx9dt:cimage.obj
 0002:00003624       ??_C@_0M@GPLNHIOI@LoadPNG?3?5?$CFs?$AA@ 100b3624     d3dx9dt:cimage.obj
 0002:00003630       __real@3fe0000000000000    100b3630     d3dx9dt:cimage.obj
 0002:00003638       __real@406fe00000000000    100b3638     d3dx9dt:cimage.obj
 0002:00003640       __real@3f70101010101010    100b3640     d3dx9dt:cimage.obj
 0002:00003648       __real@3ff0000000000000    100b3648     d3dx9dt:cimage.obj
 0002:00003650       __real@3eb0c6f7a0b5ed8d    100b3650     d3dx9dt:cimage.obj
 0002:00003658       __real@400199999999999a    100b3658     d3dx9dt:cimage.obj
 0002:00003660       ??_C@_05JPCDEKMM@1?40?45?$AA@ 100b3660     d3dx9dt:cimage.obj
 0002:00003668       ??_C@_0CJ@IBCOEFLD@LoadDDS?3?5Partial?5cubemaps?5not?5su@ 100b3668     d3dx9dt:cimage.obj
 0002:00003694       ??_C@_0CH@GMEHGJLD@Unrecognized?5pixel?5format?5in?5DDS@ 100b3694     d3dx9dt:cimage.obj
 0002:000036bc       ??_C@_03HHMJHEEB@DIB?$AA@  100b36bc     d3dx9dt:cimage.obj
 0002:000036c0       ??_C@_03DMNNDALJ@PPM?$AA@  100b36c0     d3dx9dt:cimage.obj
 0002:000036c4       ??_C@_03CMMIMEAC@DDS?$AA@  100b36c4     d3dx9dt:cimage.obj
 0002:000036c8       ??_C@_03NAIKFGEJ@PNG?$AA@  100b36c8     d3dx9dt:cimage.obj
 0002:000036cc       ??_C@_03GGDFNBH@TGA?$AA@   100b36cc     d3dx9dt:cimage.obj
 0002:000036d0       ??_C@_03PJJGGPMI@JPG?$AA@  100b36d0     d3dx9dt:cimage.obj
 0002:000036d4       ??_C@_03CNFPPDJC@BMP?$AA@  100b36d4     d3dx9dt:cimage.obj
 0002:000036d8       ??_C@_0BK@MCIHGEJH@Invalid?5image?5file?5format?$AA@ 100b36d8     d3dx9dt:cimage.obj
 0002:000036f4       ??_C@_0CK@NIMMCHGA@Saving?5?$CFs?5files?5is?5currently?5uns@ 100b36f4     d3dx9dt:cimage.obj
 0002:00003720       ??_C@_0EF@NFKPLGKC@Saving?5this?5pixel?5format?5to?5?$CFs?5f@ 100b3720     d3dx9dt:cimage.obj
 0002:00003768       ??_C@_0DG@OCODHFLM@Source?5image?5data?5?$CIpvSrcData?5or?5@ 100b3768     d3dx9dt:cimage.obj
 0002:000037a0       ??_C@_0BI@KLOECFFP@Unsupported?5file?5format?$AA@ 100b37a0     d3dx9dt:cimage.obj
 0002:000037b8       __real@3727c5ac            100b37b8     d3dx9dt:cblt.obj
 0002:000037bc       ??_C@_0DN@BDPNEEBC@d?3?2builds?2nt32_chk?2multimedia?2di@ 100b37bc     d3dx9dt:cblt.obj
 0002:000037fc       ??_C@_0BC@GMEHONBG@uSize?5?$DM?$DN?5uSizeMax?$AA@ 100b37fc     d3dx9dt:cblt.obj
 0002:00003810       ??_C@_0BF@HCMLKDLE@Invalid?5image?5filter?$AA@ 100b3810     d3dx9dt:cblt.obj
 0002:00003828       ??_C@_0BJ@LIJHGAAG@Unsupported?5image?5format?$AA@ 100b3828     d3dx9dt:cblt.obj
 0002:00003844       ??_C@_0BP@KIJNPBLC@No?5suitable?5image?5filter?5found?$AA@ 100b3844     d3dx9dt:cblt.obj
 0002:00003864       ??_C@_0CA@CANNEBJA@Update?5of?5vidmem?5texture?5failed?$AA@ 100b3864     d3dx9dt:clock.obj
 0002:00003884       ??_C@_0BH@JDLCOPNM@Could?5not?5lock?5surface?$AA@ 100b3884     d3dx9dt:clock.obj
 0002:0000389c       ??_C@_0DA@NMCIHPGK@Failed?5to?5create?5scratch?5copy?5of@ 100b389c     d3dx9dt:clock.obj
 0002:000038cc       ??_C@_0N@KAMMLDCD@Invalid?5rect?$AA@ 100b38cc     d3dx9dt:clock.obj
 0002:000038dc       ??_C@_0BG@LEIBFFHA@Could?5not?5lock?5volume?$AA@ 100b38dc     d3dx9dt:clock.obj
 0002:000038f4       ??_C@_0CH@FDIGHHFK@Cannot?5lock?5non?9dynamic?5vidmem?5v@ 100b38f4     d3dx9dt:clock.obj
 0002:00004120       ??_7CCodec@D3DXTex@@6B@    100b4120     d3dx9dt:ccodec.obj
 0002:00004130       __real@3b808081            100b4130     d3dx9dt:ccodec.obj
 0002:00004134       ??_7CCodecDXT@D3DXTex@@6B@ 100b4134     d3dx9dt:ccodec.obj
 0002:00004144       __real@3c820821            100b4144     d3dx9dt:ccodec.obj
 0002:00004148       __real@427c0000            100b4148     d3dx9dt:ccodec.obj
 0002:0000414c       __real@3d042108            100b414c     d3dx9dt:ccodec.obj
 0002:00004150       __real@41f80000            100b4150     d3dx9dt:ccodec.obj
 0002:00004154       __real@41700000            100b4154     d3dx9dt:ccodec.obj
 0002:00004158       __real@437f0000            100b4158     d3dx9dt:ccodec.obj
 0002:0000415c       __real@437e0000            100b415c     d3dx9dt:ccodec.obj
 0002:00004160       __real@40e00000            100b4160     d3dx9dt:ccodec.obj
 0002:00004164       __real@447fc000            100b4164     d3dx9dt:ccodec.obj
 0002:00004168       __real@477fff00            100b4168     d3dx9dt:ccodec.obj
 0002:0000416c       __real@42fe0000            100b416c     d3dx9dt:ccodec.obj
 0002:00004170       __real@46fffe00            100b4170     d3dx9dt:ccodec.obj
 0002:00004174       __real@43ff8000            100b4174     d3dx9dt:ccodec.obj
 0002:00004178       __real@3d888889            100b4178     d3dx9dt:ccodec.obj
 0002:0000417c       __real@3a802008            100b417c     d3dx9dt:ccodec.obj
 0002:00004180       __real@37800080            100b4180     d3dx9dt:ccodec.obj
 0002:00004184       __real@3e124925            100b4184     d3dx9dt:ccodec.obj
 0002:00004188       ??_7CCodec_R8G8B8@D3DXTex@@6B@ 100b4188     d3dx9dt:ccodec.obj
 0002:00004198       ??_7CCodec_A8R8G8B8@D3DXTex@@6B@ 100b4198     d3dx9dt:ccodec.obj
 0002:000041a8       ??_7CCodec_X8R8G8B8@D3DXTex@@6B@ 100b41a8     d3dx9dt:ccodec.obj
 0002:000041b8       ??_7CCodec_R5G6B5@D3DXTex@@6B@ 100b41b8     d3dx9dt:ccodec.obj
 0002:000041c8       ??_7CCodec_X1R5G5B5@D3DXTex@@6B@ 100b41c8     d3dx9dt:ccodec.obj
 0002:000041d8       ??_7CCodec_A1R5G5B5@D3DXTex@@6B@ 100b41d8     d3dx9dt:ccodec.obj
 0002:000041e8       ??_7CCodec_A4R4G4B4@D3DXTex@@6B@ 100b41e8     d3dx9dt:ccodec.obj
 0002:000041f8       ??_7CCodec_R3G3B2@D3DXTex@@6B@ 100b41f8     d3dx9dt:ccodec.obj
 0002:00004208       ??_7CCodec_A8@D3DXTex@@6B@ 100b4208     d3dx9dt:ccodec.obj
 0002:00004218       __real@3c010204            100b4218     d3dx9dt:ccodec.obj
 0002:0000421c       ??_7CCodec_A8R3G3B2@D3DXTex@@6B@ 100b421c     d3dx9dt:ccodec.obj
 0002:0000422c       ??_7CCodec_X4R4G4B4@D3DXTex@@6B@ 100b422c     d3dx9dt:ccodec.obj
 0002:0000423c       ??_7CCodec_A2B10G10R10@D3DXTex@@6B@ 100b423c     d3dx9dt:ccodec.obj
 0002:0000424c       ??_7CCodec_A8B8G8R8@D3DXTex@@6B@ 100b424c     d3dx9dt:ccodec.obj
 0002:0000425c       ??_7CCodec_X8B8G8R8@D3DXTex@@6B@ 100b425c     d3dx9dt:ccodec.obj
 0002:0000426c       ??_7CCodec_G16R16@D3DXTex@@6B@ 100b426c     d3dx9dt:ccodec.obj
 0002:0000427c       __real@38000100            100b427c     d3dx9dt:ccodec.obj
 0002:00004280       ??_7CCodec_A2R10G10B10@D3DXTex@@6B@ 100b4280     d3dx9dt:ccodec.obj
 0002:00004290       ??_7CCodec_A16B16G16R16@D3DXTex@@6B@ 100b4290     d3dx9dt:ccodec.obj
 0002:000042a0       __real@3b004020            100b42a0     d3dx9dt:ccodec.obj
 0002:000042a4       ??_7CCodec_A8P8@D3DXTex@@6B@ 100b42a4     d3dx9dt:ccodec.obj
 0002:000042b4       ??_7CCodec_P8@D3DXTex@@6B@ 100b42b4     d3dx9dt:ccodec.obj
 0002:000042c4       ??_7CCodec_L8@D3DXTex@@6B@ 100b42c4     d3dx9dt:ccodec.obj
 0002:000042d4       ??_7CCodec_A8L8@D3DXTex@@6B@ 100b42d4     d3dx9dt:ccodec.obj
 0002:000042e4       ??_7CCodec_A4L4@D3DXTex@@6B@ 100b42e4     d3dx9dt:ccodec.obj
 0002:000042f4       ??_7CCodec_L16@D3DXTex@@6B@ 100b42f4     d3dx9dt:ccodec.obj
 0002:00004304       ??_7CCodec_V8U8@D3DXTex@@6B@ 100b4304     d3dx9dt:ccodec.obj
 0002:00004314       ??_7CCodec_L6V5U5@D3DXTex@@6B@ 100b4314     d3dx9dt:ccodec.obj
 0002:00004324       ??_7CCodec_X8L8V8U8@D3DXTex@@6B@ 100b4324     d3dx9dt:ccodec.obj
 0002:00004334       ??_7CCodec_Q8W8V8U8@D3DXTex@@6B@ 100b4334     d3dx9dt:ccodec.obj
 0002:00004344       ??_7CCodec_V16U16@D3DXTex@@6B@ 100b4344     d3dx9dt:ccodec.obj
 0002:00004354       ??_7CCodec_A2W10V10U10@D3DXTex@@6B@ 100b4354     d3dx9dt:ccodec.obj
 0002:00004364       ??_7CCodec_Q16W16V16U16@D3DXTex@@6B@ 100b4364     d3dx9dt:ccodec.obj
 0002:00004374       ??_7CCodec_CxV8U8@D3DXTex@@6B@ 100b4374     d3dx9dt:ccodec.obj
 0002:00004384       ??_7CCodecYUV@D3DXTex@@6B@ 100b4384     d3dx9dt:ccodec.obj
 0002:00004394       ??_7CCodec_D16_LOCKABLE@D3DXTex@@6B@ 100b4394     d3dx9dt:ccodec.obj
 0002:000043a4       ??_7CCodec_D32F_LOCKABLE@D3DXTex@@6B@ 100b43a4     d3dx9dt:ccodec.obj
 0002:000043b4       ??_7CCodec_R16F@D3DXTex@@6B@ 100b43b4     d3dx9dt:ccodec.obj
 0002:000043c4       __real@4191b646            100b43c4     d3dx9dt:ccodec.obj
 0002:000043c8       __real@42bb926f            100b43c8     d3dx9dt:ccodec.obj
 0002:000043cc       __real@42173021            100b43cc     d3dx9dt:ccodec.obj
 0002:000043d0       __real@429467f0            100b43d0     d3dx9dt:ccodec.obj
 0002:000043d4       __real@42e00000            100b43d4     d3dx9dt:ccodec.obj
 0002:000043d8       __real@43008d91            100b43d8     d3dx9dt:ccodec.obj
 0002:000043dc       __real@41c7ba5e            100b43dc     d3dx9dt:ccodec.obj
 0002:000043e0       __real@4282f646            100b43e0     d3dx9dt:ccodec.obj
 0002:000043e4       ??_7CCodec_G16R16F@D3DXTex@@6B@ 100b43e4     d3dx9dt:ccodec.obj
 0002:000043f4       ??_7CCodec_A16B16G16R16F@D3DXTex@@6B@ 100b43f4     d3dx9dt:ccodec.obj
 0002:00004404       ??_7CCodec_R32F@D3DXTex@@6B@ 100b4404     d3dx9dt:ccodec.obj
 0002:00004414       ??_7CCodec_G32R32F@D3DXTex@@6B@ 100b4414     d3dx9dt:ccodec.obj
 0002:00004424       __real@3c019bec            100b4424     d3dx9dt:ccodec.obj
 0002:00004428       __real@3b50ef9c            100b4428     d3dx9dt:ccodec.obj
 0002:0000442c       __real@3ac95e58            100b442c     d3dx9dt:ccodec.obj
 0002:00004430       __real@3b95a025            100b4430     d3dx9dt:ccodec.obj
 0002:00004434       __real@3bcd17b6            100b4434     d3dx9dt:ccodec.obj
 0002:00004438       __real@43000000            100b4438     d3dx9dt:ccodec.obj
 0002:0000443c       __real@41800000            100b443c     d3dx9dt:ccodec.obj
 0002:00004440       ??_7CCodec_A32B32G32R32F@D3DXTex@@6B@ 100b4440     d3dx9dt:ccodec.obj
 0002:00004450       ??_7CCodec_D3DX_A16L16@D3DXTex@@6B@ 100b4450     d3dx9dt:ccodec.obj
 0002:00004460       ??_7CCodec_D3DX_R16G16B16@D3DXTex@@6B@ 100b4460     d3dx9dt:ccodec.obj
 0002:00004470       ??_7CCodec_DXT3@D3DXTex@@6B@ 100b4470     d3dx9dt:ccodec.obj
 0002:00004480       ??_7CCodec_DXT4@D3DXTex@@6B@ 100b4480     d3dx9dt:ccodec.obj
 0002:00004490       ??_7CCodec_DXT5@D3DXTex@@6B@ 100b4490     d3dx9dt:ccodec.obj
 0002:000044a0       ??_7CCodec_UYVY@D3DXTex@@6B@ 100b44a0     d3dx9dt:ccodec.obj
 0002:000044b0       ??_7CCodec_G8R8_G8B8@D3DXTex@@6B@ 100b44b0     d3dx9dt:ccodec.obj
 0002:000044c0       ??_7CCodec_YUY2@D3DXTex@@6B@ 100b44c0     d3dx9dt:ccodec.obj
 0002:000044d0       ??_7CCodec_R8G8_B8G8@D3DXTex@@6B@ 100b44d0     d3dx9dt:ccodec.obj
 0002:000044e0       ??_7CCodec_DXT1@D3DXTex@@6B@ 100b44e0     d3dx9dt:ccodec.obj
 0002:000044f0       ??_7CCodec_DXT2@D3DXTex@@6B@ 100b44f0     d3dx9dt:ccodec.obj
 0002:00004500       ??_C@_0EE@EIFFBJAA@d?3?2builds?2nt32_chk?2multimedia?2di@ 100b4500     d3dx9dt:fxlvm.obj
 0002:00004544       ??_C@_0BG@PCGDMFBK@dwInArgs?5?$DN?$DN?5dwOutArgs?$AA@ 100b4544     d3dx9dt:fxlvm.obj
 0002:00004560       __real@4000000000000000    100b4560     d3dx9dt:fxlvm.obj
 0002:00004568       __real@3ff71547652b82fe    100b4568     d3dx9dt:fxlvm.obj
 0002:00004570       __real@0000000000000000    100b4570     d3dx9dt:fxlvm.obj
 0002:00004578       ??_C@_0BI@EPGBOGMP@dwInArgs?5?$DN?$DN?52?$CKdwOutArgs?$AA@ 100b4578     d3dx9dt:fxlvm.obj
 0002:00004590       ??_C@_0P@NOMKKOA@dwOutArgs?5?$DN?$DN?51?$AA@ 100b4590     d3dx9dt:fxlvm.obj
 0002:000045a0       ??_C@_0CC@IBPFPJOA@FXLVM?3?5Attempted?5write?5to?5Litera@ 100b45a0     d3dx9dt:fxlvm.obj
 0002:000045c4       ??_C@_0BL@PNPHHHMD@dwArgType?5?$CB?$DN?5ARG_INPOINTER?$AA@ 100b45c4     d3dx9dt:fxlvm.obj
 0002:000045e0       ??_C@_0BI@FGHPLPPF@FLX?3?5No?5code?5to?5execute?$AA@ 100b45e0     d3dx9dt:fxlvm.obj
 0002:000045f8       ??_C@_0BF@HDGNEJCL@FXL?3?5Invalid?5Program?$AA@ 100b45f8     d3dx9dt:fxlvm.obj
 0002:00004610       ??_C@_02DKCKIIND@?$CFs?$AA@ 100b4610     d3dx9dt:cfile.obj
 0002:00004614       ??_C@_0BC@JFFNKLNA@Invalid?5file?5name?$AA@ 100b4614     d3dx9dt:cfile.obj
 0002:00004658       ?const3dn_0_1@@3T__m64@@B  100b4658     d3dx9dt:d3dxmathx3d.obj
 0002:00004660       ?const3dn_1_0@@3T__m64@@B  100b4660     d3dx9dt:d3dxmathx3d.obj
 0002:00004668       ?const3dn_1_N1@@3T__m64@@B 100b4668     d3dx9dt:d3dxmathx3d.obj
 0002:00004670       ?const3dn_N1_1@@3T__m64@@B 100b4670     d3dx9dt:d3dxmathx3d.obj
 0002:00004678       ?const3dn_1_1@@3T__m64@@B  100b4678     d3dx9dt:d3dxmathx3d.obj
 0002:00004680       ?const3dn_2_2@@3T__m64@@B  100b4680     d3dx9dt:d3dxmathx3d.obj
 0002:00004688       ?const3dn_3_2@@3T__m64@@B  100b4688     d3dx9dt:d3dxmathx3d.obj
 0002:00004690       ?const3dn_SignBitLo@@3T__m64@@B 100b4690     d3dx9dt:d3dxmathx3d.obj
 0002:00004698       ?const3dn_SignBitHi@@3T__m64@@B 100b4698     d3dx9dt:d3dxmathx3d.obj
 0002:000046a0       ?const3dn_SignBits@@3T__m64@@B 100b46a0     d3dx9dt:d3dxmathx3d.obj
 0002:000046a8       ?const3dn_SignMaskLo@@3T__m64@@B 100b46a8     d3dx9dt:d3dxmathx3d.obj
 0002:000046b0       ?const3dn_SignMaskHi@@3T__m64@@B 100b46b0     d3dx9dt:d3dxmathx3d.obj
 0002:000046b8       ?const3dn_SignMasks@@3T__m64@@B 100b46b8     d3dx9dt:d3dxmathx3d.obj
 0002:000046c0       ?const3dn_epsilon@@3T__m64@@B 100b46c0     d3dx9dt:d3dxmathx3d.obj
 0002:000046c8       ?const3dn_dwordLo@@3T__m64@@B 100b46c8     d3dx9dt:d3dxmathx3d.obj
 0002:000046d0       ?const3dn_max@@3T__m64@@B  100b46d0     d3dx9dt:d3dxmathx3d.obj
 0002:000046d8       ?const3dn_min@@3T__m64@@B  100b46d8     d3dx9dt:d3dxmathx3d.obj
 0002:000046e0       ?const3dn_halves@@3T__m64@@B 100b46e0     d3dx9dt:d3dxmathx3d.obj
 0002:000046e8       ?const3dn_FltMin@@3T__m64@@B 100b46e8     d3dx9dt:d3dxmathx3d.obj
 0002:000046f0       ?g_negate_low@@3T__m64@@B  100b46f0     d3dx9dt:d3dxmathx3d.obj
 0002:000046f8       ?g_negate_high@@3T__m64@@B 100b46f8     d3dx9dt:d3dxmathx3d.obj
 0002:00004700       ?g_const_1@@3T__m64@@B     100b4700     d3dx9dt:d3dxmathx3d.obj
 0002:00004708       ?g_const_half@@3T__m64@@B  100b4708     d3dx9dt:d3dxmathx3d.obj
 0002:00004710       ?g_const_2@@3T__m64@@B     100b4710     d3dx9dt:d3dxmathx3d.obj
 0002:00004718       ?g_const_3@@3T__m64@@B     100b4718     d3dx9dt:d3dxmathx3d.obj
 0002:00004720       ?g_const_2_3@@3T__m64@@B   100b4720     d3dx9dt:d3dxmathx3d.obj
 0002:00004728       ?g_const_3_2@@3T__m64@@B   100b4728     d3dx9dt:d3dxmathx3d.obj
 0002:00004730       ?g_const_0@@3T__m64@@B     100b4730     d3dx9dt:d3dxmathx3d.obj
 0002:00004738       ?g_const_0_1@@3T__m64@@B   100b4738     d3dx9dt:d3dxmathx3d.obj
 0002:00004740       ?g_const_1_0@@3T__m64@@B   100b4740     d3dx9dt:d3dxmathx3d.obj
 0002:00004748       ?g_const_nh_nl@@3T__m64@@B 100b4748     d3dx9dt:d3dxmathx3d.obj
 0002:00004750       ?g_const_n2@@3T__m64@@B    100b4750     d3dx9dt:d3dxmathx3d.obj
 0002:00004758       ?g_const_n2_1@@3T__m64@@B  100b4758     d3dx9dt:d3dxmathx3d.obj
 0002:00004760       ?g_const_niner@@3T__m64@@B 100b4760     d3dx9dt:d3dxmathx3d.obj
 0002:00004768       ?g_const_colRG@@3T__m64@@B 100b4768     d3dx9dt:d3dxmathx3d.obj
 0002:00004770       ?g_const_colB0@@3T__m64@@B 100b4770     d3dx9dt:d3dxmathx3d.obj
 0002:00004778       ??_C@_0N@FFJGBINN@AuthenticAMD?$AA@ 100b4778     d3dx9dt:d3dxmathx3d.obj
 0002:00004788       ??_C@_0N@GFHLKNJN@UnknownVendr?$AA@ 100b4788     d3dx9dt:d3dxmathx3d.obj
 0002:0000498c       ??_C@_0CL@OCGBAKPF@Application?5transferred?5too?5many@ 100b498c     d3dx9dt:jerror.obj
 0002:000049b8       ??_C@_0CL@BAKCGOKJ@Invalid?5SOS?5parameters?5for?5seque@ 100b49b8     d3dx9dt:jerror.obj
 0002:000049e4       ??_C@_0DI@NFMBADOH@Corrupt?5JPEG?5data?3?5found?5marker?5@ 100b49e4     d3dx9dt:jerror.obj
 0002:00004a1c       ??_C@_0BL@DPFPFMLM@Premature?5end?5of?5JPEG?5file?$AA@ 100b4a1c     d3dx9dt:jerror.obj
 0002:00004a38       ??_C@_0CO@ODCCEDLN@Warning?3?5unknown?5JFIF?5revision?5n@ 100b4a38     d3dx9dt:jerror.obj
 0002:00004a68       ??_C@_0CE@PBLDOPKB@Corrupt?5JPEG?5data?3?5bad?5Huffman?5c@ 100b4a68     d3dx9dt:jerror.obj
 0002:00004a8c       ??_C@_0DB@PGMEPGHN@Corrupt?5JPEG?5data?3?5premature?5end@ 100b4a8c     d3dx9dt:jerror.obj
 0002:00004ac0       ??_C@_0DM@PCOGCKJB@Corrupt?5JPEG?5data?3?5?$CFu?5extraneous@ 100b4ac0     d3dx9dt:jerror.obj
 0002:00004b00       ??_C@_0EC@CBCJOINE@Inconsistent?5progression?5sequenc@ 100b4b00     d3dx9dt:jerror.obj
 0002:00004b44       ??_C@_0CG@KEGHCDOM@Unknown?5Adobe?5color?5transform?5co@ 100b4b44     d3dx9dt:jerror.obj
 0002:00004b6c       ??_C@_0BH@LJLGPEFF@Obtained?5XMS?5handle?5?$CFu?$AA@ 100b4b6c     d3dx9dt:jerror.obj
 0002:00004b84       ??_C@_0BE@FOGGKKAO@Freed?5XMS?5handle?5?$CFu?$AA@ 100b4b84     d3dx9dt:jerror.obj
 0002:00004b98       ??_C@_0DE@EEJCDLOO@Unrecognized?5component?5IDs?5?$CFd?5?$CFd@ 100b4b98     d3dx9dt:jerror.obj
 0002:00004bcc       ??_C@_0DG@FCFDGNHE@JFIF?5extension?5marker?3?5RGB?5thumb@ 100b4bcc     d3dx9dt:jerror.obj
 0002:00004c04       ??_C@_0DK@JGAPDCJL@JFIF?5extension?5marker?3?5palette?5t@ 100b4c04     d3dx9dt:jerror.obj
 0002:00004c40       ??_C@_0EC@ELDEPOJP@JFIF?5extension?5marker?3?5JPEG?9comp@ 100b4c40     d3dx9dt:jerror.obj
 0002:00004c84       ??_C@_0BJ@GOCABEP@Opened?5temporary?5file?5?$CFs?$AA@ 100b4c84     d3dx9dt:jerror.obj
 0002:00004ca0       ??_C@_0BJ@KDCGAOJB@Closed?5temporary?5file?5?$CFs?$AA@ 100b4ca0     d3dx9dt:jerror.obj
 0002:00004cbc       ??_C@_0BN@GAMIJLDC@?5?5Ss?$DN?$CFd?0?5Se?$DN?$CFd?0?5Ah?$DN?$CFd?0?5Al?$DN?$CFd?$AA@ 100b4cbc     d3dx9dt:jerror.obj
 0002:00004cdc       ??_C@_0BO@CDEKFGLC@?5?5?5?5Component?5?$CFd?3?5dc?$DN?$CFd?5ac?$DN?$CFd?$AA@ 100b4cdc     d3dx9dt:jerror.obj
 0002:00004cfc       ??_C@_0BN@BLOOHNC@Start?5Of?5Scan?3?5?$CFd?5components?$AA@ 100b4cfc     d3dx9dt:jerror.obj
 0002:00004d1c       ??_C@_0P@JLCHJELA@Start?5of?5Image?$AA@ 100b4d1c     d3dx9dt:jerror.obj
 0002:00004d2c       ??_C@_0BP@EDCAMHHE@?5?5?5?5Component?5?$CFd?3?5?$CFdhx?$CFdv?5q?$DN?$CFd?$AA@ 100b4d2c     d3dx9dt:jerror.obj
 0002:00004d4c       ??_C@_0DK@DMINKOGN@Start?5Of?5Frame?50x?$CF02x?3?5width?$DN?$CFu?0@ 100b4d4c     d3dx9dt:jerror.obj
 0002:00004d88       ??_C@_0DJ@PCBCLFML@Smoothing?5not?5supported?5with?5non@ 100b4d88     d3dx9dt:jerror.obj
 0002:00004dc4       ??_C@_05LLAPAOG@RST?$CFd?$AA@ 100b4dc4     d3dx9dt:jerror.obj
 0002:00004dcc       ??_C@_0CF@NIMOLBCP@At?5marker?50x?$CF02x?0?5recovery?5actio@ 100b4dcc     d3dx9dt:jerror.obj
 0002:00004df4       ??_C@_0CE@FDPBEAOO@Selected?5?$CFd?5colors?5for?5quantizat@ 100b4df4     d3dx9dt:jerror.obj
 0002:00004e18       ??_C@_0BI@NEIBNACE@Quantizing?5to?5?$CFd?5colors?$AA@ 100b4e18     d3dx9dt:jerror.obj
 0002:00004e30       ??_C@_0CD@CNNAOOFA@Quantizing?5to?5?$CFd?5?$DN?5?$CFd?$CK?$CFd?$CK?$CFd?5colo@ 100b4e30     d3dx9dt:jerror.obj
 0002:00004e54       ??_C@_0CI@GHPOCOCL@?5?5?5?5?5?5?5?5?$CF4u?5?$CF4u?5?$CF4u?5?$CF4u?5?$CF4u?5?$CF4u?5@ 100b4e54     d3dx9dt:jerror.obj
 0002:00004e7c       ??_C@_0BJ@COPODLDN@Unexpected?5marker?50x?$CF02x?$AA@ 100b4e7c     d3dx9dt:jerror.obj
 0002:00004e98       ??_C@_0CH@EHHJCMGA@Miscellaneous?5marker?50x?$CF02x?0?5len@ 100b4e98     d3dx9dt:jerror.obj
 0002:00004ec0       ??_C@_0CB@BADBMAAB@?5?5?5?5with?5?$CFd?5x?5?$CFd?5thumbnail?5image@ 100b4ec0     d3dx9dt:jerror.obj
 0002:00004ee4       ??_C@_0CO@KKPHGHBA@JFIF?5extension?5marker?3?5type?50x?$CF0@ 100b4ee4     d3dx9dt:jerror.obj
 0002:00004f14       ??_C@_0DM@JLHNPIBE@Warning?3?5thumbnail?5image?5size?5do@ 100b4f14     d3dx9dt:jerror.obj
 0002:00004f50       ??_C@_0DF@LOKNABIG@JFIF?5APP0?5marker?3?5version?5?$CFd?4?$CF02@ 100b4f50     d3dx9dt:jerror.obj
 0002:00004f88       ??_C@_0CI@FKGPAJC@?5?5?5?5?5?5?5?5?$CF3d?5?$CF3d?5?$CF3d?5?$CF3d?5?$CF3d?5?$CF3d?5@ 100b4f88     d3dx9dt:jerror.obj
 0002:00004fb0       ??_C@_0N@HJHFKELG@End?5Of?5Image?$AA@ 100b4fb0     d3dx9dt:jerror.obj
 0002:00004fc0       ??_C@_0BH@GIPOLIGC@Obtained?5EMS?5handle?5?$CFu?$AA@ 100b4fc0     d3dx9dt:jerror.obj
 0002:00004fd8       ??_C@_0BE@IPCOOGDJ@Freed?5EMS?5handle?5?$CFu?$AA@ 100b4fd8     d3dx9dt:jerror.obj
 0002:00004fec       ??_C@_0BL@EMFIKBEK@Define?5Restart?5Interval?5?$CFu?$AA@ 100b4fec     d3dx9dt:jerror.obj
 0002:00005008       ??_C@_0CL@KLDOJIKN@Define?5Quantization?5Table?5?$CFd?5?5pr@ 100b5008     d3dx9dt:jerror.obj
 0002:00005034       ??_C@_0BM@MDIEILCE@Define?5Huffman?5Table?50x?$CF02x?$AA@ 100b5034     d3dx9dt:jerror.obj
 0002:00005050       ??_C@_0CH@KIJGKPAA@Define?5Arithmetic?5Table?50x?$CF02x?3?5@ 100b5050     d3dx9dt:jerror.obj
 0002:00005078       ??_C@_0CM@CAEPHFAA@Unknown?5APP14?5marker?5?$CInot?5Adobe?$CJ@ 100b5078     d3dx9dt:jerror.obj
 0002:000050a4       ??_C@_0CK@HCPFFNKJ@Unknown?5APP0?5marker?5?$CInot?5JFIF?$CJ?0?5@ 100b50a4     d3dx9dt:jerror.obj
 0002:000050d0       ??_C@_0EC@EHPKAOHA@Adobe?5APP14?5marker?3?5version?5?$CFd?0?5@ 100b50d0     d3dx9dt:jerror.obj
 0002:00005114       ??_C@_0DO@EGLODMBB@Caution?3?5quantization?5tables?5are@ 100b5114     d3dx9dt:jerror.obj
 0002:00005154       ??_C@_0BA@LIJBPGPA@6b?5?527?9Mar?91998?$AA@ 100b5154     d3dx9dt:jerror.obj
 0002:00005164       ??_C@_0CD@IMBKIDCD@Copyright?5?$CIC?$CJ?51998?0?5Thomas?5G?4?5La@ 100b5164     d3dx9dt:jerror.obj
 0002:00005188       ??_C@_0BE@FDPDCBIN@Write?5to?5XMS?5failed?$AA@ 100b5188     d3dx9dt:jerror.obj
 0002:0000519c       ??_C@_0BF@EKLGFGNM@Read?5from?5XMS?5failed?$AA@ 100b519c     d3dx9dt:jerror.obj
 0002:000051b4       ??_C@_0CH@LJLHCCHC@Image?5too?5wide?5for?5this?5implemen@ 100b51b4     d3dx9dt:jerror.obj
 0002:000051dc       ??_C@_0CD@GCLFJCHC@Virtual?5array?5controller?5messed?5@ 100b51dc     d3dx9dt:jerror.obj
 0002:00005200       ??_C@_0BP@BPKOBOIP@Unsupported?5marker?5type?50x?$CF02x?$AA@ 100b5200     d3dx9dt:jerror.obj
 0002:00005220       ??_C@_0CK@EPADOAKC@Application?5transferred?5too?5few?5@ 100b5220     d3dx9dt:jerror.obj
 0002:0000524c       ??_C@_0DG@KALDLIJB@Write?5failed?5on?5temporary?5file?5?9@ 100b524c     d3dx9dt:jerror.obj
 0002:00005284       ??_C@_0BO@GOBJOAAI@Seek?5failed?5on?5temporary?5file?$AA@ 100b5284     d3dx9dt:jerror.obj
 0002:000052a4       ??_C@_0BO@EEPJGHHI@Read?5failed?5on?5temporary?5file?$AA@ 100b52a4     d3dx9dt:jerror.obj
 0002:000052c4       ??_C@_0CD@POKNOPOF@Failed?5to?5create?5temporary?5file?5@ 100b52c4     d3dx9dt:jerror.obj
 0002:000052e8       ??_C@_0CM@HONLBDPH@Invalid?5JPEG?5file?5structure?3?5SOS@ 100b52e8     d3dx9dt:jerror.obj
 0002:00005314       ??_C@_0CN@HGJCMLNE@Invalid?5JPEG?5file?5structure?3?5two@ 100b5314     d3dx9dt:jerror.obj
 0002:00005344       ??_C@_0CK@HMKECJK@Unsupported?5JPEG?5process?3?5SOF?5ty@ 100b5344     d3dx9dt:jerror.obj
 0002:00005370       ??_C@_0DA@GJIJGINK@Invalid?5JPEG?5file?5structure?3?5mis@ 100b5370     d3dx9dt:jerror.obj
 0002:000053a0       ??_C@_0CN@IHJJJAFJ@Invalid?5JPEG?5file?5structure?3?5two@ 100b53a0     d3dx9dt:jerror.obj
 0002:000053d0       ??_C@_0CH@NHMNHHIB@Cannot?5quantize?5to?5more?5than?5?$CFd?5@ 100b53d0     d3dx9dt:jerror.obj
 0002:000053f8       ??_C@_0CI@PLMPLCNO@Cannot?5quantize?5to?5fewer?5than?5?$CFd@ 100b53f8     d3dx9dt:jerror.obj
 0002:00005420       ??_C@_0CO@HPDBAEEA@Cannot?5quantize?5more?5than?5?$CFd?5col@ 100b5420     d3dx9dt:jerror.obj
 0002:00005450       ??_C@_0BO@DJPLELIB@Insufficient?5memory?5?$CIcase?5?$CFd?$CJ?$AA@ 100b5450     d3dx9dt:jerror.obj
 0002:00005470       ??_C@_0CL@GNLFDFCL@Not?5a?5JPEG?5file?3?5starts?5with?50x?$CF@ 100b5470     d3dx9dt:jerror.obj
 0002:0000549c       ??_C@_0CK@CCHKIENB@Quantization?5table?50x?$CF02x?5was?5no@ 100b549c     d3dx9dt:jerror.obj
 0002:000054c8       ??_C@_0CC@BKPLBDLJ@JPEG?5datastream?5contains?5no?5imag@ 100b54c8     d3dx9dt:jerror.obj
 0002:000054ec       ??_C@_0CF@BKANFCCL@Huffman?5table?50x?$CF02x?5was?5not?5def@ 100b54ec     d3dx9dt:jerror.obj
 0002:00005514       ??_C@_0BM@HJHFKLAF@Backing?5store?5not?5supported?$AA@ 100b5514     d3dx9dt:jerror.obj
 0002:00005530       ??_C@_0CO@BEHINNOI@Requested?5feature?5was?5omitted?5at@ 100b5530     d3dx9dt:jerror.obj
 0002:00005560       ??_C@_0BE@EOAAHHJ@Not?5implemented?5yet?$AA@ 100b5560     d3dx9dt:jerror.obj
 0002:00005574       ??_C@_0CH@EFBBPPCK@Invalid?5color?5quantization?5mode?5@ 100b5574     d3dx9dt:jerror.obj
 0002:0000559c       ??_C@_0CH@NIBDNILP@Scan?5script?5does?5not?5transmit?5al@ 100b559c     d3dx9dt:jerror.obj
 0002:000055c4       ??_C@_0DO@OPNPKGO@Cannot?5transcode?5due?5to?5multiple@ 100b55c4     d3dx9dt:jerror.obj
 0002:00005604       ??_C@_0BM@KEKMMNGA@Premature?5end?5of?5input?5file?$AA@ 100b5604     d3dx9dt:jerror.obj
 0002:00005620       ??_C@_0BB@JJAIKFBB@Empty?5input?5file?$AA@ 100b5620     d3dx9dt:jerror.obj
 0002:00005634       ??_C@_0CP@EKFPGPNP@Maximum?5supported?5image?5dimensio@ 100b5634     d3dx9dt:jerror.obj
 0002:00005664       ??_C@_0CB@LFBMFPHI@Missing?5Huffman?5code?5table?5entry@ 100b5664     d3dx9dt:jerror.obj
 0002:00005688       ??_C@_0CB@LLDOGNPJ@Huffman?5code?5size?5table?5overflow@ 100b5688     d3dx9dt:jerror.obj
 0002:000056ac       ??_C@_0CI@EKDDDHFF@Fractional?5sampling?5not?5implemen@ 100b56ac     d3dx9dt:jerror.obj
 0002:000056d4       ??_C@_0CP@IDOBLGGD@Output?5file?5write?5error?5?9?9?9?5out?5@ 100b56d4     d3dx9dt:jerror.obj
 0002:00005704       ??_C@_0BG@BALCKDNL@Input?5file?5read?5error?$AA@ 100b5704     d3dx9dt:jerror.obj
 0002:0000571c       ??_C@_0CB@DMGINPNE@Didn?8t?5expect?5more?5than?5one?5scan@ 100b571c     d3dx9dt:jerror.obj
 0002:00005740       ??_C@_0BE@DGJBKIEB@Write?5to?5EMS?5failed?$AA@ 100b5740     d3dx9dt:jerror.obj
 0002:00005754       ??_C@_0BF@CPNENPBA@Read?5from?5EMS?5failed?$AA@ 100b5754     d3dx9dt:jerror.obj
 0002:0000576c       ??_C@_0CF@DAGGEAPM@Empty?5JPEG?5image?5?$CIDNL?5not?5suppor@ 100b576c     d3dx9dt:jerror.obj
 0002:00005794       ??_C@_0BD@DIMECAOP@Bogus?5DQT?5index?5?$CFd?$AA@ 100b5794     d3dx9dt:jerror.obj
 0002:000057a8       ??_C@_0BD@KJHFPHIC@Bogus?5DHT?5index?5?$CFd?$AA@ 100b57a8     d3dx9dt:jerror.obj
 0002:000057bc       ??_C@_0BF@CLIOOJFM@Bogus?5DAC?5value?50x?$CFx?$AA@ 100b57bc     d3dx9dt:jerror.obj
 0002:000057d4       ??_C@_0BD@LDBBBMFL@Bogus?5DAC?5index?5?$CFd?$AA@ 100b57d4     d3dx9dt:jerror.obj
 0002:000057e8       ??_C@_0CF@JDLOPNGO@Unsupported?5color?5conversion?5req@ 100b57e8     d3dx9dt:jerror.obj
 0002:00005810       ??_C@_0CG@BEBDNOCG@Too?5many?5color?5components?3?5?$CFd?0?5m@ 100b5810     d3dx9dt:jerror.obj
 0002:00005838       ??_C@_0CF@LAEFHNAH@CCIR601?5sampling?5not?5implemented@ 100b5838     d3dx9dt:jerror.obj
 0002:00005860       ??_C@_0BM@PKHCPJDH@Suspension?5not?5allowed?5here?$AA@ 100b5860     d3dx9dt:jerror.obj
 0002:0000587c       ??_C@_0CL@JKHIPJLJ@Buffer?5passed?5to?5JPEG?5library?5is@ 100b587c     d3dx9dt:jerror.obj
 0002:000058a8       ??_C@_0BL@CBOEEPLK@Bogus?5virtual?5array?5access?$AA@ 100b58a8     d3dx9dt:jerror.obj
 0002:000058c8       ??_C@_0EN@DKAEGIBH@JPEG?5parameter?5struct?5mismatch?3?5@ 100b58c8     d3dx9dt:jerror.obj
 0002:00005918       ??_C@_0CK@BAMFIBMM@Improper?5call?5to?5JPEG?5library?5in@ 100b5918     d3dx9dt:jerror.obj
 0002:00005944       ??_C@_0CA@MJDDICLK@Invalid?5scan?5script?5at?5entry?5?$CFd?$AA@ 100b5944     d3dx9dt:jerror.obj
 0002:00005964       ??_C@_0BH@HMMHPOPE@Bogus?5sampling?5factors?$AA@ 100b5964     d3dx9dt:jerror.obj
 0002:0000597c       ??_C@_0DH@HIKEGPKP@Invalid?5progressive?5parameters?5a@ 100b597c     d3dx9dt:jerror.obj
 0002:000059b4       ??_C@_0DH@LNGGEGOL@Invalid?5progressive?5parameters?5S@ 100b59b4     d3dx9dt:jerror.obj
 0002:000059ec       ??_C@_0CD@LDBDNLHK@Unsupported?5JPEG?5data?5precision?5@ 100b59ec     d3dx9dt:jerror.obj
 0002:00005a10       ??_C@_0BM@OEMICEFD@Invalid?5memory?5pool?5code?5?$CFd?$AA@ 100b5a10     d3dx9dt:jerror.obj
 0002:00005a2c       ??_C@_0DA@HLEOHNPA@Sampling?5factors?5too?5large?5for?5i@ 100b5a2c     d3dx9dt:jerror.obj
 0002:00005a5c       ??_C@_0DN@ELFKFKL@Wrong?5JPEG?5library?5version?3?5libr@ 100b5a5c     d3dx9dt:jerror.obj
 0002:00005a9c       ??_C@_0BE@OGLAEMOG@Bogus?5marker?5length?$AA@ 100b5a9c     d3dx9dt:jerror.obj
 0002:00005ab0       ??_C@_0BG@NEGIHEMC@Bogus?5JPEG?5colorspace?$AA@ 100b5ab0     d3dx9dt:jerror.obj
 0002:00005ac8       ??_C@_0BH@BGDIGLHC@Bogus?5input?5colorspace?$AA@ 100b5ac8     d3dx9dt:jerror.obj
 0002:00005ae0       ??_C@_0BP@EOFJNLFD@Bogus?5Huffman?5table?5definition?$AA@ 100b5ae0     d3dx9dt:jerror.obj
 0002:00005b00       ??_C@_0CI@MBJANLAP@IDCT?5output?5block?5size?5?$CFd?5not?5su@ 100b5b00     d3dx9dt:jerror.obj
 0002:00005b28       ??_C@_0BN@OJEJKKDL@DCT?5coefficient?5out?5of?5range?$AA@ 100b5b28     d3dx9dt:jerror.obj
 0002:00005b48       ??_C@_0BP@ONFLCDHG@Invalid?5component?5ID?5?$CFd?5in?5SOS?$AA@ 100b5b48     d3dx9dt:jerror.obj
 0002:00005b68       ??_C@_0BK@DKALDNKG@Bogus?5buffer?5control?5mode?$AA@ 100b5b68     d3dx9dt:jerror.obj
 0002:00005b84       ??_C@_0CF@DENLILGA@MAX_ALLOC_CHUNK?5is?5wrong?0?5please@ 100b5b84     d3dx9dt:jerror.obj
 0002:00005bac       ??_C@_0CA@FDMPGPNI@ALIGN_TYPE?5is?5wrong?0?5please?5fix?$AA@ 100b5bac     d3dx9dt:jerror.obj
 0002:00005bcc       ??_C@_0DJ@KONAFFHE@Sorry?0?5there?5are?5legal?5restricti@ 100b5bcc     d3dx9dt:jerror.obj
 0002:00005c08       ??_C@_0BG@MIBALFBH@Bogus?5message?5code?5?$CFd?$AA@ 100b5c08     d3dx9dt:jerror.obj
 0002:00005cac       ??_C@_0BD@LBMCPKOE@zlib?5version?5error?$AA@ 100b5cac     d3dx9dt:pngread.obj
 0002:00005cc0       ??_C@_0BC@MCPIPOGP@zlib?5memory?5error?$AA@ 100b5cc0     d3dx9dt:pngread.obj
 0002:00005cd4       ??_C@_0BD@CPDHIJBA@Unknown?5zlib?5error?$AA@ 100b5cd4     d3dx9dt:pngread.obj
 0002:00005ce8       ??_C@_05DOIEBMOI@1?41?44?$AA@ 100b5ce8     d3dx9dt:pngread.obj
 0002:00005cf0       ??_C@_0DH@LDFDLODO@Incompatible?5libpng?5version?5in?5a@ 100b5cf0     d3dx9dt:pngread.obj
 0002:00005d28       ??_C@_0N@JEPAMDDI@zlib?5version?$AA@ 100b5d28     d3dx9dt:pngread.obj
 0002:00005d38       ??_C@_0M@KPLPCJNA@zlib?5memory?$AA@ 100b5d38     d3dx9dt:pngread.obj
 0002:00005d44       ??_C@_0BJ@LAKDHAPN@Missing?5PLTE?5before?5IDAT?$AA@ 100b5d44     d3dx9dt:pngread.obj
 0002:00005d60       ??_C@_0BJ@FFGICIDJ@Missing?5IHDR?5before?5IDAT?$AA@ 100b5d60     d3dx9dt:pngread.obj
 0002:00005d7c       ??_C@_0CH@NMANOLCN@PNG?5file?5corrupted?5by?5ASCII?5conv@ 100b5d7c     d3dx9dt:pngread.obj
 0002:00005da4       ??_C@_0P@KIMIGLKH@Not?5a?5PNG?5file?$AA@ 100b5da4     d3dx9dt:pngread.obj
 0002:00005db4       ??_C@_0BG@OKGHHCLP@Extra?5compressed?5data?$AA@ 100b5db4     d3dx9dt:pngread.obj
 0002:00005dcc       ??_C@_0BE@JMOGBNJB@Decompression?5error?$AA@ 100b5dcc     d3dx9dt:pngread.obj
 0002:00005de0       ??_C@_0BG@EIEOOJHA@Not?5enough?5image?5data?$AA@ 100b5de0     d3dx9dt:pngread.obj
 0002:00005df8       ??_C@_0CB@KCPNIGFM@Invalid?5attempt?5to?5read?5row?5data@ 100b5df8     d3dx9dt:pngread.obj
 0002:00005e1c       ??_C@_0BG@JAHFDNP@Too?5many?5IDAT?8s?5found?$AA@ 100b5e1c     d3dx9dt:pngread.obj
 0002:00005e34       ??_C@_0DC@MHGEAIEM@Width?5too?5large?5for?5libpng?5to?5pr@ 100b5e34     d3dx9dt:pngget.obj
 0002:00005e68       ??_C@_0CK@BDBGBGO@Can?8t?5discard?5critical?5data?5on?5C@ 100b5e68     d3dx9dt:pngrtran.obj
 0002:00005e98       __real@3fa999999999999a    100b5e98     d3dx9dt:pngrtran.obj
 0002:00005ea0       __real@40efffe000000000    100b5ea0     d3dx9dt:pngrtran.obj
 0002:00005ea8       __real@3ef0001000100010    100b5ea8     d3dx9dt:pngrtran.obj
 0002:00005eb0       __real@3f70000000000000    100b5eb0     d3dx9dt:pngrtran.obj
 0002:00005eb8       __real@41f0000000000000    100b5eb8     d3dx9dt:pngrtran.obj
 0002:00005ec0       ??_C@_0CC@JEAKIKEF@png_do_dither?5returned?5rowbytes?$DN@ 100b5ec0     d3dx9dt:pngrtran.obj
 0002:00005ee4       ??_C@_0BA@DBGPKIA@NULL?5row?5buffer?$AA@ 100b5ee4     d3dx9dt:pngrtran.obj
 0002:00005ef4       ??_C@_0DP@GHHOJINM@Width?5too?5large?5to?5process?5image@ 100b5ef4     d3dx9dt:pngset.obj
 0002:00005f38       __real@3fdd1758e0000000    100b5f38     d3dx9dt:pngset.obj
 0002:00005f40       ??_C@_0BL@GPADEDKN@Call?5to?5NULL?5read?5function?$AA@ 100b5f40     d3dx9dt:pngrio.obj
 0002:00005f5c       ??_C@_0DC@EOBOCMJO@same?5structure?4?5?5Resetting?5write@ 100b5f5c     d3dx9dt:pngrio.obj
 0002:00005f90       ??_C@_0EB@NJKELLKM@It?8s?5an?5error?5to?5set?5both?5read_d@ 100b5f90     d3dx9dt:pngrio.obj
 0002:00005fdc       ??_C@_0DE@EGBLPLND@?6?5libpng?5version?51?40?45?5?9?5October@ 100b5fdc     d3dx9dt:png.obj
 0002:00006010       ??_C@_0CC@CMIPDMOP@Too?5many?5bytes?5for?5PNG?5signature@ 100b6010     d3dx9dt:png.obj
 0002:00006038       ??_C@_0MG@PPOOLDBG@?6?5libpng?5version?51?40?45?5?9?5October@ 100b6038     d3dx9dt:png.obj
 0002:000064b4       _IID_ID3DXAnimationController 100b64b4     d3dx9dt:init.obj
 0002:000064c4       _IID_ID3DXAnimationSet     100b64c4     d3dx9dt:init.obj
 0002:000064d4       _IID_ID3DXKeyFrameInterpolator 100b64d4     d3dx9dt:init.obj
 0002:000064e4       _IID_ID3DXInterpolator     100b64e4     d3dx9dt:init.obj
 0002:000064f4       _IID_ID3DXEffectCompiler   100b64f4     d3dx9dt:init.obj
 0002:00006504       _IID_ID3DXEffect           100b6504     d3dx9dt:init.obj
 0002:00006514       _IID_ID3DXBaseEffect       100b6514     d3dx9dt:init.obj
 0002:00006524       _IID_ID3DXEffectPool       100b6524     d3dx9dt:init.obj
 0002:00006534       _IID_ID3DXFragmentLinker   100b6534     d3dx9dt:init.obj
 0002:00006544       _IID_ID3DXConstantTable    100b6544     d3dx9dt:init.obj
 0002:00006554       _DXFILEOBJ_AnimTicksPerSecond 100b6554     d3dx9dt:init.obj
 0002:00006564       _DXFILEOBJ_EffectInstance  100b6564     d3dx9dt:init.obj
 0002:00006574       _DXFILEOBJ_EffectParamDWord 100b6574     d3dx9dt:init.obj
 0002:00006584       _DXFILEOBJ_EffectParamString 100b6584     d3dx9dt:init.obj
 0002:00006594       _DXFILEOBJ_EffectParamFloats 100b6594     d3dx9dt:init.obj
 0002:000065a4       _DXFILEOBJ_EffectDWord     100b65a4     d3dx9dt:init.obj
 0002:000065b4       _DXFILEOBJ_EffectString    100b65b4     d3dx9dt:init.obj
 0002:000065c4       _DXFILEOBJ_EffectFloats    100b65c4     d3dx9dt:init.obj
 0002:000065d4       _DXFILEOBJ_DeclData        100b65d4     d3dx9dt:init.obj
 0002:000065e4       _DXFILEOBJ_VertexElement   100b65e4     d3dx9dt:init.obj
 0002:000065f4       _DXFILEOBJ_FVFData         100b65f4     d3dx9dt:init.obj
 0002:00006604       _DXFILEOBJ_PMVSplitRecord  100b6604     d3dx9dt:init.obj
 0002:00006614       _DXFILEOBJ_PMAttributeRange 100b6614     d3dx9dt:init.obj
 0002:00006624       _DXFILEOBJ_PMInfo          100b6624     d3dx9dt:init.obj
 0002:00006634       _DXFILEOBJ_PatchMesh9      100b6634     d3dx9dt:init.obj
 0002:00006644       _DXFILEOBJ_PatchMesh       100b6644     d3dx9dt:init.obj
 0002:00006654       _DXFILEOBJ_Patch           100b6654     d3dx9dt:init.obj
 0002:00006664       _DXFILEOBJ_SkinWeights     100b6664     d3dx9dt:init.obj
 0002:00006674       _DXFILEOBJ_FaceAdjacency   100b6674     d3dx9dt:init.obj
 0002:00006684       _DXFILEOBJ_VertexDuplicationIndices 100b6684     d3dx9dt:init.obj
 0002:00006694       _DXFILEOBJ_XSkinMeshHeader 100b6694     d3dx9dt:init.obj
 0002:000066a4       _IID_ID3DXPatchMesh        100b66a4     d3dx9dt:init.obj
 0002:000066b4       _IID_ID3DXSkinInfo         100b66b4     d3dx9dt:init.obj
 0002:000066c4       _IID_ID3DXSPMesh           100b66c4     d3dx9dt:init.obj
 0002:000066d4       _IID_ID3DXPMesh            100b66d4     d3dx9dt:init.obj
 0002:000066e4       _IID_ID3DXMesh             100b66e4     d3dx9dt:init.obj
 0002:000066f4       _IID_ID3DXBaseMesh         100b66f4     d3dx9dt:init.obj
 0002:00006704       _TID_DXFILEHeader          100b6704     d3dx9dt:init.obj
 0002:00006714       _IID_IDirectXFileBinary    100b6714     d3dx9dt:init.obj
 0002:00006724       _IID_IDirectXFileDataReference 100b6724     d3dx9dt:init.obj
 0002:00006734       _IID_IDirectXFileData      100b6734     d3dx9dt:init.obj
 0002:00006744       _IID_IDirectXFileObject    100b6744     d3dx9dt:init.obj
 0002:00006754       _IID_IDirectXFileSaveObject 100b6754     d3dx9dt:init.obj
 0002:00006764       _IID_IDirectXFileEnumObject 100b6764     d3dx9dt:init.obj
 0002:00006774       _IID_IDirectXFile          100b6774     d3dx9dt:init.obj
 0002:00006784       _CLSID_CDirectXFile        100b6784     d3dx9dt:init.obj
 0002:00006794       _IID_ID3DXLine             100b6794     d3dx9dt:init.obj
 0002:000067a4       _IID_ID3DXRenderToEnvMap   100b67a4     d3dx9dt:init.obj
 0002:000067b4       _IID_ID3DXRenderToSurface  100b67b4     d3dx9dt:init.obj
 0002:000067c4       _IID_ID3DXSprite           100b67c4     d3dx9dt:init.obj
 0002:000067d4       _IID_ID3DXFont             100b67d4     d3dx9dt:init.obj
 0002:000067e4       _IID_ID3DXBuffer           100b67e4     d3dx9dt:init.obj
 0002:000067f4       _IID_ID3DXMatrixStack      100b67f4     d3dx9dt:init.obj
 0002:00006804       _IID_IDirect3DShaderValidator9 100b6804     d3dx9dt:init.obj
 0002:00006814       _IID_IDirect3DQuery9       100b6814     d3dx9dt:init.obj
 0002:00006824       _IID_IDirect3DStateBlock9  100b6824     d3dx9dt:init.obj
 0002:00006834       _IID_IDirect3DPixelShader9 100b6834     d3dx9dt:init.obj
 0002:00006844       _IID_IDirect3DVertexShader9 100b6844     d3dx9dt:init.obj
 0002:00006854       _IID_IDirect3DVertexDeclaration9 100b6854     d3dx9dt:init.obj
 0002:00006864       _IID_IDirect3DSwapChain9   100b6864     d3dx9dt:init.obj
 0002:00006874       _IID_IDirect3DVolume9      100b6874     d3dx9dt:init.obj
 0002:00006884       _IID_IDirect3DSurface9     100b6884     d3dx9dt:init.obj
 0002:00006894       _IID_IDirect3DIndexBuffer9 100b6894     d3dx9dt:init.obj
 0002:000068a4       _IID_IDirect3DVertexBuffer9 100b68a4     d3dx9dt:init.obj
 0002:000068b4       _IID_IDirect3DVolumeTexture9 100b68b4     d3dx9dt:init.obj
 0002:000068c4       _IID_IDirect3DCubeTexture9 100b68c4     d3dx9dt:init.obj
 0002:000068d4       _IID_IDirect3DTexture9     100b68d4     d3dx9dt:init.obj
 0002:000068e4       _IID_IDirect3DBaseTexture9 100b68e4     d3dx9dt:init.obj
 0002:000068f4       _IID_IDirect3DResource9    100b68f4     d3dx9dt:init.obj
 0002:00006904       _IID_IDirect3DDevice9      100b6904     d3dx9dt:init.obj
 0002:00006914       _IID_IDirect3D9            100b6914     d3dx9dt:init.obj
 0002:00006924       __real@3c800000            100b6924     d3dx9dt:dxtn.obj
 0002:00006928       __real@3b800000            100b6928     d3dx9dt:dxtn.obj
 0002:000069a0       __real@39800000            100b69a0     d3dx9dt:dxtn.obj
 0002:000069dc       __real@3f2aaaab            100b69dc     d3dx9dt:dxtn.obj
 0002:000069fc       __real@3d800000            100b69fc     d3dx9dt:dxtn.obj
 0002:00006a00       __real@3ea00000            100b6a00     d3dx9dt:dxtn.obj
 0002:00006a04       __real@3e400000            100b6a04     d3dx9dt:dxtn.obj
 0002:00006a08       __real@3ee00000            100b6a08     d3dx9dt:dxtn.obj
 0002:00006a0c       __real@3e4ccccd            100b6a0c     d3dx9dt:dxtn.obj
 0002:00006c10       ??_C@_07JDJMCMIP@vs_3_sw?$AA@ 100b6c10     d3dx9dt:d3dx9shader.obj
 0002:00006c18       ??_C@_06IAOGOKNE@vs_3_0?$AA@ 100b6c18     d3dx9dt:d3dx9shader.obj
 0002:00006c20       ??_C@_06PKEILM@vs_2_x?$AA@ 100b6c20     d3dx9dt:d3dx9shader.obj
 0002:00006c28       ??_C@_07KOPMAFDP@vs_2_sw?$AA@ 100b6c28     d3dx9dt:d3dx9shader.obj
 0002:00006c30       ??_C@_06DIFKINLB@vs_2_0?$AA@ 100b6c30     d3dx9dt:d3dx9shader.obj
 0002:00006c38       ??_C@_06DDPEBDBO@vs_1_1?$AA@ 100b6c38     d3dx9dt:d3dx9shader.obj
 0002:00006c40       ??_C@_06CKOPCCFP@vs_1_0?$AA@ 100b6c40     d3dx9dt:d3dx9shader.obj
 0002:00006c48       ??_C@_07IAGBDFBC@vs?43?4sw?$AA@ 100b6c48     d3dx9dt:d3dx9shader.obj
 0002:00006c50       ??_C@_06BBGHCBMM@vs?43?40?$AA@ 100b6c50     d3dx9dt:d3dx9shader.obj
 0002:00006c58       ??_C@_06JBHLIDKE@vs?42?4x?$AA@ 100b6c58     d3dx9dt:d3dx9shader.obj
 0002:00006c60       ??_C@_07LNABBMKC@vs?42?4sw?$AA@ 100b6c60     d3dx9dt:d3dx9shader.obj
 0002:00006c68       ??_C@_06KJNLEGKJ@vs?42?40?$AA@ 100b6c68     d3dx9dt:d3dx9shader.obj
 0002:00006c70       ??_C@_06KCHFNIAG@vs?41?41?$AA@ 100b6c70     d3dx9dt:d3dx9shader.obj
 0002:00006c78       ??_C@_06LLGOOJEH@vs?41?40?$AA@ 100b6c78     d3dx9dt:d3dx9shader.obj
 0002:00006c80       ??_C@_02FENABIDK@vs?$AA@   100b6c80     d3dx9dt:d3dx9shader.obj
 0002:00006c84       ??_C@_06NHLHMDLF@tx_1_0?$AA@ 100b6c84     d3dx9dt:d3dx9shader.obj
 0002:00006c8c       ??_C@_02LEKABFJP@tx?$AA@   100b6c8c     d3dx9dt:d3dx9shader.obj
 0002:00006c90       ??_C@_07FFPDCFAI@ps_3_sw?$AA@ 100b6c90     d3dx9dt:d3dx9shader.obj
 0002:00006c98       ??_C@_06ODDGNPOO@ps_3_0?$AA@ 100b6c98     d3dx9dt:d3dx9shader.obj
 0002:00006ca0       ??_C@_06GDCKHNIG@ps_2_x?$AA@ 100b6ca0     d3dx9dt:d3dx9shader.obj
 0002:00006ca8       ??_C@_07GIJDAMLI@ps_2_sw?$AA@ 100b6ca8     d3dx9dt:d3dx9shader.obj
 0002:00006cb0       ??_C@_06FLIKLIIL@ps_2_0?$AA@ 100b6cb0     d3dx9dt:d3dx9shader.obj
 0002:00006cb8       ??_C@_06CNFDNCGB@ps_1_4?$AA@ 100b6cb8     d3dx9dt:d3dx9shader.obj
 0002:00006cc0       ??_C@_06GCBCEEKG@ps_1_3?$AA@ 100b6cc0     d3dx9dt:d3dx9shader.obj
 0002:00006cc8       ??_C@_06HLAJHFOH@ps_1_2?$AA@ 100b6cc8     d3dx9dt:d3dx9shader.obj
 0002:00006cd0       ??_C@_06FACECGCE@ps_1_1?$AA@ 100b6cd0     d3dx9dt:d3dx9shader.obj
 0002:00006cd8       ??_C@_06EJDPBHGF@ps_1_0?$AA@ 100b6cd8     d3dx9dt:d3dx9shader.obj
 0002:00006ce0       ??_C@_07EGAODMJF@ps?43?4sw?$AA@ 100b6ce0     d3dx9dt:d3dx9shader.obj
 0002:00006ce8       ??_C@_06HCLHBEPG@ps?43?40?$AA@ 100b6ce8     d3dx9dt:d3dx9shader.obj
 0002:00006cf0       ??_C@_06PCKLLGJO@ps?42?4x?$AA@ 100b6cf0     d3dx9dt:d3dx9shader.obj
 0002:00006cf8       ??_C@_07HLGOBFCF@ps?42?4sw?$AA@ 100b6cf8     d3dx9dt:d3dx9shader.obj
 0002:00006d00       ??_C@_06MKALHDJD@ps?42?40?$AA@ 100b6d00     d3dx9dt:d3dx9shader.obj
 0002:00006d08       ??_C@_06LMNCBJHJ@ps?41?44?$AA@ 100b6d08     d3dx9dt:d3dx9shader.obj
 0002:00006d10       ??_C@_06PDJDIPLO@ps?41?43?$AA@ 100b6d10     d3dx9dt:d3dx9shader.obj
 0002:00006d18       ??_C@_06OKIILOPP@ps?41?42?$AA@ 100b6d18     d3dx9dt:d3dx9shader.obj
 0002:00006d20       ??_C@_06MBKFONDM@ps?41?41?$AA@ 100b6d20     d3dx9dt:d3dx9shader.obj
 0002:00006d28       ??_C@_06NILONMHN@ps?41?40?$AA@ 100b6d28     d3dx9dt:d3dx9shader.obj
 0002:00006d30       ??_C@_02FAFNGEII@ps?$AA@   100b6d30     d3dx9dt:d3dx9shader.obj
 0002:00006d34       ??_C@_0BM@NLIDADNF@Unrecognized?5shader?5version?$AA@ 100b6d34     d3dx9dt:d3dx9shader.obj
 0002:00006d50       ??_C@_0DK@DFECHJIE@D3DXGetShaderInputSemantics?3?5Unk@ 100b6d50     d3dx9dt:d3dx9shader.obj
 0002:00006d8c       ??_C@_0DJ@KMAAHMNB@D3DXGetShaderInputSemantics?3?5Unk@ 100b6d8c     d3dx9dt:d3dx9shader.obj
 0002:00006dc8       ??_C@_0EN@NKOPIGHJ@D3DXGetShaderInputSemantics?3?5Inv@ 100b6dc8     d3dx9dt:d3dx9shader.obj
 0002:00006e18       ??_C@_0BO@KEJFNIGM@More?5than?516?5samplers?5present?$AA@ 100b6e18     d3dx9dt:d3dx9shader.obj
 0002:00006e38       ??_C@_0BH@FMGKODKL@Invalid?5constant?5table?$AA@ 100b6e38     d3dx9dt:d3dx9shader.obj
 0002:00006e50       ??_C@_0BO@GFODELLM@Invalid?5shader?5constant?5table?$AA@ 100b6e50     d3dx9dt:d3dx9shader.obj
 0002:00006e70       ??_C@_0CD@ICOFAOKA@ppConstantTable?5pointer?5is?5inval@ 100b6e70     d3dx9dt:d3dx9shader.obj
 0002:00006e94       ??_C@_0BP@POFBGLAJ@ppDebugInfo?5pointer?5is?5invalid?$AA@ 100b6e94     d3dx9dt:d3dx9shader.obj
 0002:00006f1c       ??_C@_0DI@NKPODJ@Matrix?5should?5be?516?9byte?5aligned@ 100b6f1c     d3dx9dt:arraymath.obj
 0002:000070b8       ?jpeg_natural_order@D3DX@@3QBHB 100b70b8     d3dx9dt:jutils.obj
 0002:000071fc       ??_C@_0BA@MOKMMFOD@need?5dictionary?$AA@ 100b71fc     d3dx9dt:inflate.obj
 0002:0000720c       ??_C@_0BF@MEIGEHBE@incorrect?5data?5check?$AA@ 100b720c     d3dx9dt:inflate.obj
 0002:00007224       ??_C@_0BH@LIBMMIGA@incorrect?5header?5check?$AA@ 100b7224     d3dx9dt:inflate.obj
 0002:0000723c       ??_C@_0BE@EMOGCLGO@invalid?5window?5size?$AA@ 100b723c     d3dx9dt:inflate.obj
 0002:00007250       ??_C@_0BL@IHKGDAEE@unknown?5compression?5method?$AA@ 100b7250     d3dx9dt:inflate.obj
 0002:0000726c       ??_C@_0O@BPALFKAJ@Out?5of?5Memory?$AA@ 100b726c     d3dx9dt:pngmem.obj
 0002:000072f4       ??_C@_0BD@GFBMLKLH@invalid?5chunk?5type?$AA@ 100b72f4     d3dx9dt:pngrutil.obj
 0002:00007308       ??_C@_0CC@FECADCN@Ignoring?5bad?5adaptive?5filter?5typ@ 100b7308     d3dx9dt:pngrutil.obj
 0002:0000732c       ??_C@_09BJGMGMHA@CRC?5error?$AA@ 100b732c     d3dx9dt:pngrutil.obj
 0002:00007338       ??_C@_0BO@KOOEGEDO@Unknown?5filter?5method?5in?5IHDR?$AA@ 100b7338     d3dx9dt:pngrutil.obj
 0002:00007358       ??_C@_0CD@DDOOCEDP@Unknown?5compression?5method?5in?5IH@ 100b7358     d3dx9dt:pngrutil.obj
 0002:0000737c       ??_C@_0CB@EMHJMLOA@Unknown?5interlace?5method?5in?5IHDR@ 100b737c     d3dx9dt:pngrutil.obj
 0002:000073a0       ??_C@_0DB@FGMBGHOJ@Invalid?5color?5type?1bit?5depth?5com@ 100b73a0     d3dx9dt:pngrutil.obj
 0002:000073d4       ??_C@_0BL@KPIFPGMP@Invalid?5color?5type?5in?5IHDR?$AA@ 100b73d4     d3dx9dt:pngrutil.obj
 0002:000073f0       ??_C@_0BK@OAKOLNFJ@Invalid?5bit?5depth?5in?5IHDR?$AA@ 100b73f0     d3dx9dt:pngrutil.obj
 0002:0000740c       ??_C@_0BL@PKEOJJBA@Invalid?5image?5size?5in?5IHDR?$AA@ 100b740c     d3dx9dt:pngrutil.obj
 0002:00007428       ??_C@_0BD@CLODLFAN@Invalid?5IHDR?5chunk?$AA@ 100b7428     d3dx9dt:pngrutil.obj
 0002:0000743c       ??_C@_0BC@KBAKFAAH@Out?5of?5place?5IHDR?$AA@ 100b743c     d3dx9dt:pngrutil.obj
 0002:00007450       ??_C@_0CH@GNNEJFAH@Truncating?5incorrect?5tRNS?5chunk?5@ 100b7450     d3dx9dt:pngrutil.obj
 0002:00007478       ??_C@_0BG@HHEHMEJK@Invalid?5palette?5chunk?$AA@ 100b7478     d3dx9dt:pngrutil.obj
 0002:00007490       ??_C@_0BF@PMKDIIMG@Duplicate?5PLTE?5chunk?$AA@ 100b7490     d3dx9dt:pngrutil.obj
 0002:000074a8       ??_C@_0BI@GEKPHPN@Invalid?5PLTE?5after?5IDAT?$AA@ 100b74a8     d3dx9dt:pngrutil.obj
 0002:000074c0       ??_C@_0BJ@LEBILHKO@Missing?5IHDR?5before?5PLTE?$AA@ 100b74c0     d3dx9dt:pngrutil.obj
 0002:000074dc       ??_C@_0BM@PFCLLCBO@Incorrect?5IEND?5chunk?5length?$AA@ 100b74dc     d3dx9dt:pngrutil.obj
 0002:000074f8       ??_C@_0BB@BLPFHNNN@No?5image?5in?5file?$AA@ 100b74f8     d3dx9dt:pngrutil.obj
 0002:0000750c       ??_C@_0DI@KINMKNNO@Ignoring?5incorrect?5gAMA?5value?5wh@ 100b750c     d3dx9dt:pngrutil.obj
 0002:00007548       __real@407f400000000000    100b7548     d3dx9dt:pngrutil.obj
 0002:00007550       __real@40e631e000000000    100b7550     d3dx9dt:pngrutil.obj
 0002:00007558       ??_C@_0BF@IMCFKHDJ@Duplicate?5gAMA?5chunk?$AA@ 100b7558     d3dx9dt:pngrutil.obj
 0002:00007570       ??_C@_0BI@JEEHFLME@Out?5of?5place?5gAMA?5chunk?$AA@ 100b7570     d3dx9dt:pngrutil.obj
 0002:00007588       ??_C@_0BI@POPIJBNN@Invalid?5gAMA?5after?5IDAT?$AA@ 100b7588     d3dx9dt:pngrutil.obj
 0002:000075a0       ??_C@_0BM@NIAHDFBB@Incorrect?5gAMA?5chunk?5length?$AA@ 100b75a0     d3dx9dt:pngrutil.obj
 0002:000075bc       ??_C@_0BJ@CCOIFGBO@Missing?5IHDR?5before?5gAMA?$AA@ 100b75bc     d3dx9dt:pngrutil.obj
 0002:000075d8       __real@47c35000            100b75d8     d3dx9dt:pngrutil.obj
 0002:000075dc       ??_C@_0BE@CEGOJHBA@Unknown?5sRGB?5intent?$AA@ 100b75dc     d3dx9dt:pngrutil.obj
 0002:000075f0       ??_C@_0BF@EFDCKHOG@Duplicate?5sRGB?5chunk?$AA@ 100b75f0     d3dx9dt:pngrutil.obj
 0002:00007608       ??_C@_0BI@FNFAFLBL@Out?5of?5place?5sRGB?5chunk?$AA@ 100b7608     d3dx9dt:pngrutil.obj
 0002:00007620       ??_C@_0BI@PGAMKAKH@Invalid?5sRGB?5after?5IDAT?$AA@ 100b7620     d3dx9dt:pngrutil.obj
 0002:00007638       ??_C@_0BM@FMAJKMKD@Incorrect?5sRGB?5chunk?5length?$AA@ 100b7638     d3dx9dt:pngrutil.obj
 0002:00007654       ??_C@_0BJ@NDJOEJDI@Missing?5IHDR?5before?5sRGB?$AA@ 100b7654     d3dx9dt:pngrutil.obj
 0002:00007670       ??_C@_0CK@JMGMOHJA@tRNS?5chunk?5not?5allowed?5with?5alph@ 100b7670     d3dx9dt:pngrutil.obj
 0002:0000769c       ??_C@_0BM@JNMFOMLO@Incorrect?5tRNS?5chunk?5length?$AA@ 100b769c     d3dx9dt:pngrutil.obj
 0002:000076b8       ??_C@_0BF@HALLDFIL@Duplicate?5tRNS?5chunk?$AA@ 100b76b8     d3dx9dt:pngrutil.obj
 0002:000076d0       ??_C@_0BI@MMDCNIMN@Invalid?5tRNS?5after?5IDAT?$AA@ 100b76d0     d3dx9dt:pngrutil.obj
 0002:000076e8       ??_C@_0BH@JJNMONHM@Zero?5length?5tRNS?5chunk?$AA@ 100b76e8     d3dx9dt:pngrutil.obj
 0002:00007700       ??_C@_0BJ@NIHNNFHD@Missing?5PLTE?5before?5tRNS?$AA@ 100b7700     d3dx9dt:pngrutil.obj
 0002:0000771c       ??_C@_0BJ@DNLGINLH@Missing?5IHDR?5before?5tRNS?$AA@ 100b771c     d3dx9dt:pngrutil.obj
 0002:00007738       ??_C@_0BH@OMJPKJPP@unknown?5critical?5chunk?$AA@ 100b7738     d3dx9dt:pngrutil.obj
 0002:00007750       ??_C@_0BH@KJLLHDND@Extra?5compression?5data?$AA@ 100b7750     d3dx9dt:pngrutil.obj
 0002:00007768       ??_C@_0BE@JLEKBIKH@Decompression?5Error?$AA@ 100b7768     d3dx9dt:pngrutil.obj
 0002:00007b80       ??_C@_0CB@KOAGPCN@failed?5to?5open?5source?5file?3?5?8?$CFs?8@ 100b7b80     d3dx9dt:cpreprocessor.obj
 0002:00007ba4       ??_C@_0BI@LOODAFEE@failed?5to?5open?5resource?$AA@ 100b7ba4     d3dx9dt:cpreprocessor.obj
 0002:00007bbc       ??_C@_01GFHCPBMG@C?$AA@    100b7bbc     d3dx9dt:cpreprocessor.obj
 0002:00007bc0       ??_C@_07MJAJDDLG@defined?$AA@ 100b7bc0     d3dx9dt:cpreprocessor.obj
 0002:00007bc8       ??_C@_06PGFLMPLC@pragma?$AA@ 100b7bc8     d3dx9dt:cpreprocessor.obj
 0002:00007bd0       ??_C@_05PAODFFED@endif?$AA@ 100b7bd0     d3dx9dt:cpreprocessor.obj
 0002:00007bd8       ??_C@_04FHMCPBIP@else?$AA@ 100b7bd8     d3dx9dt:cpreprocessor.obj
 0002:00007be0       ??_C@_04GNFOIEOK@elif?$AA@ 100b7be0     d3dx9dt:cpreprocessor.obj
 0002:00007be8       ??_C@_06ENONKJGC@ifndef?$AA@ 100b7be8     d3dx9dt:cpreprocessor.obj
 0002:00007bf0       ??_C@_05LOELCHJN@ifdef?$AA@ 100b7bf0     d3dx9dt:cpreprocessor.obj
 0002:00007bf8       ??_C@_02HEBPBKGD@if?$AA@   100b7bf8     d3dx9dt:cpreprocessor.obj
 0002:00007bfc       ??_C@_05KKCIMGE@error?$AA@ 100b7bfc     d3dx9dt:cpreprocessor.obj
 0002:00007c04       ??_C@_07FHOHOHLG@include?$AA@ 100b7c04     d3dx9dt:cpreprocessor.obj
 0002:00007c0c       ??_C@_04HJPCFDOP@line?$AA@ 100b7c0c     d3dx9dt:cpreprocessor.obj
 0002:00007c14       ??_C@_05PKCPKOLM@undef?$AA@ 100b7c14     d3dx9dt:cpreprocessor.obj
 0002:00007c1c       ??_C@_06EPMMJFDC@define?$AA@ 100b7c1c     d3dx9dt:cpreprocessor.obj
 0002:00007c24       ??_C@_0CC@FJIILCKL@invalid?5preprocessor?5command?5?8?$CFs@ 100b7c24     d3dx9dt:cpreprocessor.obj
 0002:00007c48       ??_C@_0N@MNJHOOI@syntax?5error?$AA@ 100b7c48     d3dx9dt:cpreprocessor.obj
 0002:00007c58       ??_C@_04HDOCAJNK@?$CFs?$CFs?$AA@ 100b7c58     d3dx9dt:cpreprocessor.obj
 0002:00007c60       ??_C@_0BK@HKFDBMAJ@too?5many?5nested?5?$CDincludes?$AA@ 100b7c60     d3dx9dt:cpreprocessor.obj
 0002:00007c80       ??_C@_0EH@JLACBPNO@include?5interface?5required?5to?5su@ 100b7c80     d3dx9dt:cpreprocessor.obj
 0002:00007cc8       ??_C@_09FBLIBEOC@error?3?5?$CFs?$AA@ 100b7cc8     d3dx9dt:cpreprocessor.obj
 0002:00007cd4       ??_C@_0CB@MKHBBNDA@unexpected?5?$CDelif?5following?5?$CDelse@ 100b7cd4     d3dx9dt:cpreprocessor.obj
 0002:00007cf8       ??_C@_0BB@HDIEBLGL@unexpected?5?$CDelif?$AA@ 100b7cf8     d3dx9dt:cpreprocessor.obj
 0002:00007d0c       ??_C@_0CB@EOKAOACM@unexpected?5?$CDelse?5following?5?$CDelse@ 100b7d0c     d3dx9dt:cpreprocessor.obj
 0002:00007d30       ??_C@_0BB@EJBIGOAO@unexpected?5?$CDelse?$AA@ 100b7d30     d3dx9dt:cpreprocessor.obj
 0002:00007d44       ??_C@_0BC@GKECDMGK@unexpected?5?$CDendif?$AA@ 100b7d44     d3dx9dt:cpreprocessor.obj
 0002:00007d58       ??_C@_0N@PECLDJOE@column_major?$AA@ 100b7d58     d3dx9dt:cpreprocessor.obj
 0002:00007d68       ??_C@_09EDKEPPJ@row_major?$AA@ 100b7d68     d3dx9dt:cpreprocessor.obj
 0002:00007d74       ??_C@_01PKGAHCOL@?$CJ?$AA@ 100b7d74     d3dx9dt:cpreprocessor.obj
 0002:00007d78       ??_C@_01ODHLEDKK@?$CI?$AA@ 100b7d78     d3dx9dt:cpreprocessor.obj
 0002:00007d7c       ??_C@_01ICJEACDI@?$DL?$AA@ 100b7d7c     d3dx9dt:cpreprocessor.obj
 0002:00007d80       ??_C@_01JLIPDDHJ@?3?$AA@   100b7d80     d3dx9dt:cpreprocessor.obj
 0002:00007d84       ??_C@_07DLHCIBDH@default?$AA@ 100b7d84     d3dx9dt:cpreprocessor.obj
 0002:00007d8c       ??_C@_07DBNODEFN@disable?$AA@ 100b7d8c     d3dx9dt:cpreprocessor.obj
 0002:00007d94       ??_C@_04KLFNICNF@once?$AA@ 100b7d94     d3dx9dt:cpreprocessor.obj
 0002:00007d9c       ??_C@_0CC@MBOPGJMG@internal?5error?3?5production?5faile@ 100b7d9c     d3dx9dt:cpreprocessor.obj
 0002:00007dc0       ??_C@_01IHBHIGKO@?0?$AA@   100b7dc0     d3dx9dt:cpreprocessor.obj
 0002:00007dc4       ??_C@_0BP@DMDMJAFB@duplicate?5macro?5parameter?5?8?$CFs?8?$AA@ 100b7dc4     d3dx9dt:cpreprocessor.obj
 0002:00007de4       ??_C@_07FPLKDJGL@warning?$AA@ 100b7de4     d3dx9dt:cpreprocessor.obj
 0002:00007dec       ??_C@_0M@BNJHGMGP@pack_matrix?$AA@ 100b7dec     d3dx9dt:cpreprocessor.obj
 0002:00007df8       ??_C@_0ED@FGKNCPBB@functional?5defines?5in?5preprocess@ 100b7df8     d3dx9dt:cpreprocessor.obj
 0002:00007e3c       ??_C@_0CM@BIGGCADN@not?5enough?5actual?5parameters?5for@ 100b7e3c     d3dx9dt:cpreprocessor.obj
 0002:00007e68       ??_C@_02IEBMKJDF@?$CD?$CD?$AA@ 100b7e68     d3dx9dt:cpreprocessor.obj
 0002:00007e6c       ??_C@_02MKMMJBFB@?$CD?$EA?$AA@ 100b7e6c     d3dx9dt:cpreprocessor.obj
 0002:00007e70       ??_C@_0CK@LMLCLOHA@unexpected?5end?5of?5file?5in?5macro?5@ 100b7e70     d3dx9dt:cpreprocessor.obj
 0002:00007e9c       ??_C@_01IPJKGB@?$CD?$AA@   100b7e9c     d3dx9dt:cpreprocessor.obj
 0002:00007ea0       ??_C@_03IANKFOOF@Arg?$AA@  100b7ea0     d3dx9dt:cpreprocessor.obj
 0002:00007ea4       ??_C@_0N@MHBOIHHL@D3DX_VERSION?$AA@ 100b7ea4     d3dx9dt:cpreprocessor.obj
 0002:00007eb4       ??_C@_0BB@PEPJODKN@DIRECT3D_VERSION?$AA@ 100b7eb4     d3dx9dt:cpreprocessor.obj
 0002:00007ec8       ??_C@_08KOIBGIHJ@DIRECT3D?$AA@ 100b7ec8     d3dx9dt:cpreprocessor.obj
 0002:00007ed4       ??_C@_0BO@FMNBCLAG@internal?5error?3?5out?5of?5memory?$AA@ 100b7ed4     d3dx9dt:cpreprocessor.obj
 0002:00007ef4       ??_C@_05IHHHDFHJ@Stack?$AA@ 100b7ef4     d3dx9dt:cpreprocessor.obj
 0002:00007efc       ??_C@_0CM@JEMPDBCA@division?5by?5zero?5in?5preprocessor@ 100b7efc     d3dx9dt:cpreprocessor.obj
 0002:00007f28       ??_C@_0CA@CKFKKIKI@internal?5error?3?5stack?5underflow?$AA@ 100b7f28     d3dx9dt:cpreprocessor.obj
 0002:00007f48       ??_C@_0BE@CHCCDJIL@yacc?5stack?5overflow?$AA@ 100b7f48     d3dx9dt:cpreprocessor.obj
 0002:00007f5c       ??_C@_0BH@CFIIDOJD@unexpected?5end?5of?5file?$AA@ 100b7f5c     d3dx9dt:cpreprocessor.obj
 0002:00007f74       ??_C@_08ICCNKGAE@__LINE__?$AA@ 100b7f74     d3dx9dt:cpreprocessor.obj
 0002:00007f80       ??_C@_08FMJNKKCK@__FILE__?$AA@ 100b7f80     d3dx9dt:cpreprocessor.obj
 0002:00007f8c       ??_C@_0DD@JGLIHEND@unexpected?5tokens?5following?5prep@ 100b7f8c     d3dx9dt:cpreprocessor.obj
 0002:00007fc0       ??_C@_0M@MLFOEDLP@error?5X?$CFu?3?5?$AA@ 100b7fc0     d3dx9dt:ctokenize.obj
 0002:00007fcc       ??_C@_06JJNAAIBA@?$CI?$CFu?$CJ?3?5?$AA@ 100b7fcc     d3dx9dt:ctokenize.obj
 0002:00007fd4       ??_C@_08DFJHLNPG@?$CFs?5X?$CFu?3?5?$AA@ 100b7fd4     d3dx9dt:ctokenize.obj
 0002:00007fe0       ??_C@_0BN@KIMDFDJF@syntax?5error?5?3?5unexpected?5?$CFs?$AA@ 100b7fe0     d3dx9dt:ctokenize.obj
 0002:00008000       ??_C@_05JMKJMOPH@token?$AA@ 100b8000     d3dx9dt:ctokenize.obj
 0002:00008008       ??_C@_0M@IDJOOACD@end?5of?5file?$AA@ 100b8008     d3dx9dt:ctokenize.obj
 0002:00008014       ??_C@_0M@MKKKCMOM@end?5of?5line?$AA@ 100b8014     d3dx9dt:ctokenize.obj
 0002:00008020       ??_C@_0BA@KALEFPLN@string?5constant?$AA@ 100b8020     d3dx9dt:ctokenize.obj
 0002:00008030       ??_C@_0L@IAIHLMD@token?5?8?$CFs?8?$AA@ 100b8030     d3dx9dt:ctokenize.obj
 0002:0000803c       ??_C@_0M@LLKJECAK@float?5?8?$CFgl?8?$AA@ 100b803c     d3dx9dt:ctokenize.obj
 0002:00008048       ??_C@_0M@LGDOMHNM@float?5?8?$CFgf?8?$AA@ 100b8048     d3dx9dt:ctokenize.obj
 0002:00008054       ??_C@_0M@LMKAOKNG@float?5?8?$CFgh?8?$AA@ 100b8054     d3dx9dt:ctokenize.obj
 0002:00008060       ??_C@_0L@BEICCKBA@float?5?8?$CFg?8?$AA@ 100b8060     d3dx9dt:ctokenize.obj
 0002:0000806c       ??_C@_0P@FDDIJABK@integer?5?8?$CFuul?8?$AA@ 100b806c     d3dx9dt:ctokenize.obj
 0002:0000807c       ??_C@_0O@MGNGKBFC@integer?5?8?$CFdl?8?$AA@ 100b807c     d3dx9dt:ctokenize.obj
 0002:0000808c       ??_C@_0N@HBBLAKNI@integer?5?8?$CFu?8?$AA@ 100b808c     d3dx9dt:ctokenize.obj
 0002:0000809c       ??_C@_0O@PGOEEGGO@version?5token?$AA@ 100b809c     d3dx9dt:ctokenize.obj
 0002:000080ac       ??_C@_0CD@IFAMMCMM@comment?5continues?5past?5end?5of?5fi@ 100b80ac     d3dx9dt:ctokenize.obj
 0002:000080d0       ??_C@_0BO@NIABELBF@hex?5value?5truncated?5to?532bits?$AA@ 100b80d0     d3dx9dt:ctokenize.obj
 0002:000080f0       ??_C@_0CA@DNBKJEDM@octal?5value?5truncated?5to?532bits?$AA@ 100b80f0     d3dx9dt:ctokenize.obj
 0002:00008110       ??_C@_0CC@PCFJBEKG@decimal?5value?5truncated?5to?532bit@ 100b8110     d3dx9dt:ctokenize.obj
 0002:00008134       ??_C@_0CF@HEACLEH@character?5continues?5past?5end?5of?5@ 100b8134     d3dx9dt:ctokenize.obj
 0002:0000815c       ??_C@_0CC@JGLGBPGD@string?5continues?5past?5end?5of?5lin@ 100b815c     d3dx9dt:ctokenize.obj
 0002:00008180       ??_C@_0CC@NPICNDKM@string?5continues?5past?5end?5of?5fil@ 100b8180     d3dx9dt:ctokenize.obj
 0002:000081a4       ??_C@_0BH@NOMHDMPN@D3DX9?5Shader?5Assembler?$AA@ 100b81a4     d3dx9dt:cassembler.obj
 0002:00009e88       ??_C@_01FMEDJKGI@o?$AA@    100b9e88     d3dx9dt:cassembler.obj
 0002:00009e8c       ??_C@_01JBBJJEPG@p?$AA@    100b9e8c     d3dx9dt:cassembler.obj
 0002:00009e90       ??_C@_01HHGOMJKL@l?$AA@    100b9e90     d3dx9dt:cassembler.obj
 0002:00009e94       ??_C@_05JFHEGHJE@vFace?$AA@ 100b9e94     d3dx9dt:cassembler.obj
 0002:00009e9c       ??_C@_04MDNLLEAH@vPos?$AA@ 100b9e9c     d3dx9dt:cassembler.obj
 0002:00009ea4       ??_C@_02BFGHIHPD@aL?$AA@   100b9ea4     d3dx9dt:cassembler.obj
 0002:00009ea8       ??_C@_01OJONOECF@b?$AA@    100b9ea8     d3dx9dt:cassembler.obj
 0002:00009eac       ??_C@_01LKDEMHDF@s?$AA@    100b9eac     d3dx9dt:cassembler.obj
 0002:00009eb0       ??_C@_06EPJFCNHF@oDepth?$AA@ 100b9eb0     d3dx9dt:cassembler.obj
 0002:00009eb8       ??_C@_02JIGBLGDG@oC?$AA@   100b9eb8     d3dx9dt:cassembler.obj
 0002:00009ebc       ??_C@_01KBJDNOO@i?$AA@     100b9ebc     d3dx9dt:cassembler.obj
 0002:00009ec0       ??_C@_02JNOCDCKA@oT?$AA@   100b9ec0     d3dx9dt:cassembler.obj
 0002:00009ec4       ??_C@_02NHCACAPB@oD?$AA@   100b9ec4     d3dx9dt:cassembler.obj
 0002:00009ec8       ??_C@_04PFPHJOOC@oFog?$AA@ 100b9ec8     d3dx9dt:cassembler.obj
 0002:00009ed0       ??_C@_04LOFIANGF@oPts?$AA@ 100b9ed0     d3dx9dt:cassembler.obj
 0002:00009ed8       ??_C@_04KOCLEBPE@oPos?$AA@ 100b9ed8     d3dx9dt:cassembler.obj
 0002:00009ee0       ??_C@_01PFHFFBPC@t?$AA@    100b9ee0     d3dx9dt:cassembler.obj
 0002:00009ee4       ??_C@_01MCMALHOG@a?$AA@    100b9ee4     d3dx9dt:cassembler.obj
 0002:00009ee8       ??_C@_01PAPGNFGE@c?$AA@    100b9ee8     d3dx9dt:cassembler.obj
 0002:00009eec       ??_C@_01KDCPPGHE@r?$AA@    100b9eec     d3dx9dt:cassembler.obj
 0002:00009ef0       ??_C@_01MHEDDDHA@v?$AA@    100b9ef0     d3dx9dt:cassembler.obj
 0002:00009ef4       ??_C@_07EKJIKHKN@break_c?$AA@ 100b9ef4     d3dx9dt:cassembler.obj
 0002:00009efc       ??_C@_04JKICOEOI@if_c?$AA@ 100b9efc     d3dx9dt:cassembler.obj
 0002:00009f04       ??_C@_05CBPKLGJM@phase?$AA@ 100b9f04     d3dx9dt:cassembler.obj
 0002:00009f0c       ??_C@_06BMEJOOLC@texldl?$AA@ 100b9f0c     d3dx9dt:cassembler.obj
 0002:00009f14       ??_C@_04PHJACMLG@setp?$AA@ 100b9f14     d3dx9dt:cassembler.obj
 0002:00009f1c       ??_C@_06NEJAGELK@texldd?$AA@ 100b9f1c     d3dx9dt:cassembler.obj
 0002:00009f24       ??_C@_03MCLFFEAB@dsy?$AA@  100b9f24     d3dx9dt:cassembler.obj
 0002:00009f28       ??_C@_03NLKOGFEA@dsx?$AA@  100b9f28     d3dx9dt:cassembler.obj
 0002:00009f2c       ??_C@_06HMPDGJ@dp2add?$AA@ 100b9f2c     d3dx9dt:cassembler.obj
 0002:00009f34       ??_C@_03NBNLADEK@bem?$AA@  100b9f34     d3dx9dt:cassembler.obj
 0002:00009f38       ??_C@_03JIBIFJIL@cmp?$AA@  100b9f38     d3dx9dt:cassembler.obj
 0002:00009f3c       ??_C@_08KEGBHNNF@texdepth?$AA@ 100b9f3c     d3dx9dt:cassembler.obj
 0002:00009f48       ??_C@_07KBINOLHJ@texm3x3?$AA@ 100b9f48     d3dx9dt:cassembler.obj
 0002:00009f50       ??_C@_06PPPBIMGK@texdp3?$AA@ 100b9f50     d3dx9dt:cassembler.obj
 0002:00009f58       ??_C@_0N@FKGOHOIG@texm3x2depth?$AA@ 100b9f58     d3dx9dt:cassembler.obj
 0002:00009f68       ??_C@_09FFGLJGDK@texdp3tex?$AA@ 100b9f68     d3dx9dt:cassembler.obj
 0002:00009f74       ??_C@_0L@IELIFMKH@texreg2rgb?$AA@ 100b9f74     d3dx9dt:cassembler.obj
 0002:00009f80       ??_C@_04ECAGGAOJ@defb?$AA@ 100b9f80     d3dx9dt:cassembler.obj
 0002:00009f88       ??_C@_04KBPCLJCC@defi?$AA@ 100b9f88     d3dx9dt:cassembler.obj
 0002:00009f90       ??_C@_03BHEEIFFN@def?$AA@  100b9f90     d3dx9dt:cassembler.obj
 0002:00009f94       ??_C@_03LEPADAIH@cnd?$AA@  100b9f94     d3dx9dt:cassembler.obj
 0002:00009f98       ??_C@_04GEPNNBKI@logp?$AA@ 100b9f98     d3dx9dt:cassembler.obj
 0002:00009fa0       ??_C@_04LNEKGJAK@expp?$AA@ 100b9fa0     d3dx9dt:cassembler.obj
 0002:00009fa8       ??_C@_0N@KDLHKEAM@texm3x3vspec?$AA@ 100b9fa8     d3dx9dt:cassembler.obj
 0002:00009fb8       ??_C@_0M@EJPNKOAD@texm3x3spec?$AA@ 100b9fb8     d3dx9dt:cassembler.obj
 0002:00009fc4       ??_C@_0L@DIAEELDK@texm3x3tex?$AA@ 100b9fc4     d3dx9dt:cassembler.obj
 0002:00009fd0       ??_C@_0L@FGBICJOM@texm3x3pad?$AA@ 100b9fd0     d3dx9dt:cassembler.obj
 0002:00009fdc       ??_C@_0L@FGEGCIK@texm3x2tex?$AA@ 100b9fdc     d3dx9dt:cassembler.obj
 0002:00009fe8       ??_C@_0L@GLHIAAFM@texm3x2pad?$AA@ 100b9fe8     d3dx9dt:cassembler.obj
 0002:00009ff4       ??_C@_09MCDLOMLJ@texreg2gb?$AA@ 100b9ff4     d3dx9dt:cassembler.obj
 0002:0000a000       ??_C@_09IMHEICFK@texreg2ar?$AA@ 100ba000     d3dx9dt:cassembler.obj
 0002:0000a00c       ??_C@_07OKHFAMNG@texbeml?$AA@ 100ba00c     d3dx9dt:cassembler.obj
 0002:0000a014       ??_C@_06OEEPMCPH@texbem?$AA@ 100ba014     d3dx9dt:cassembler.obj
 0002:0000a01c       ??_C@_06ICMKMDDM@texldb?$AA@ 100ba01c     d3dx9dt:cassembler.obj
 0002:0000a024       ??_C@_06PKDOLDOP@texldp?$AA@ 100ba024     d3dx9dt:cassembler.obj
 0002:0000a02c       ??_C@_05GBILPNCC@texld?$AA@ 100ba02c     d3dx9dt:cassembler.obj
 0002:0000a034       ??_C@_03JDBMONBN@tex?$AA@  100ba034     d3dx9dt:cassembler.obj
 0002:0000a038       ??_C@_07KMHBLLCI@texkill?$AA@ 100ba038     d3dx9dt:cassembler.obj
 0002:0000a040       ??_C@_06JEFIKLCO@texcrd?$AA@ 100ba040     d3dx9dt:cassembler.obj
 0002:0000a048       ??_C@_08FDJGCBLL@texcoord?$AA@ 100ba048     d3dx9dt:cassembler.obj
 0002:0000a054       ??_C@_04BHKABCEP@mova?$AA@ 100ba054     d3dx9dt:cassembler.obj
 0002:0000a05c       ??_C@_06IBKFOEOL@breakp?$AA@ 100ba05c     d3dx9dt:cassembler.obj
 0002:0000a064       ??_C@_05ELPHFHOI@break?$AA@ 100ba064     d3dx9dt:cassembler.obj
 0002:0000a06c       ??_C@_06EFEEOEEO@endrep?$AA@ 100ba06c     d3dx9dt:cassembler.obj
 0002:0000a074       ??_C@_03HOKODIMJ@rep?$AA@  100ba074     d3dx9dt:cassembler.obj
 0002:0000a078       ??_C@_06NIOAIDEM@sincos?$AA@ 100ba078     d3dx9dt:cassembler.obj
 0002:0000a080       ??_C@_03ICGEAJAH@nrm?$AA@  100ba080     d3dx9dt:cassembler.obj
 0002:0000a084       ??_C@_03BCGAIFPO@abs?$AA@  100ba084     d3dx9dt:cassembler.obj
 0002:0000a088       ??_C@_03BBNHLEBN@sgn?$AA@  100ba088     d3dx9dt:cassembler.obj
 0002:0000a08c       ??_C@_03KEEPOOAF@crs?$AA@  100ba08c     d3dx9dt:cassembler.obj
 0002:0000a090       ??_C@_03JGHBODFD@pow?$AA@  100ba090     d3dx9dt:cassembler.obj
 0002:0000a094       ??_C@_03OJCGBBGF@dcl?$AA@  100ba094     d3dx9dt:cassembler.obj
 0002:0000a098       ??_C@_05IDCCNNGI@label?$AA@ 100ba098     d3dx9dt:cassembler.obj
 0002:0000a0a0       ??_C@_07BJAJHMEP@endloop?$AA@ 100ba0a0     d3dx9dt:cassembler.obj
 0002:0000a0a8       ??_C@_03BKMCPNMN@ret?$AA@  100ba0a8     d3dx9dt:cassembler.obj
 0002:0000a0ac       ??_C@_04GKOOIABA@loop?$AA@ 100ba0ac     d3dx9dt:cassembler.obj
 0002:0000a0b4       ??_C@_06KBMOAPKH@callnz?$AA@ 100ba0b4     d3dx9dt:cassembler.obj
 0002:0000a0bc       ??_C@_04OMFAIDPG@call?$AA@ 100ba0bc     d3dx9dt:cassembler.obj
 0002:0000a0c4       ??_C@_04NHDIBMI@m3x2?$AA@  100ba0c4     d3dx9dt:cassembler.obj
 0002:0000a0cc       ??_C@_04BEGILAIJ@m3x3?$AA@ 100ba0cc     d3dx9dt:cassembler.obj
 0002:0000a0d4       ??_C@_04FLCJCGEO@m3x4?$AA@ 100ba0d4     d3dx9dt:cassembler.obj
 0002:0000a0dc       ??_C@_04IJLPIIDA@m4x3?$AA@ 100ba0dc     d3dx9dt:cassembler.obj
 0002:0000a0e4       ??_C@_04MGPOBOPH@m4x4?$AA@ 100ba0e4     d3dx9dt:cassembler.obj
 0002:0000a0ec       ??_C@_03NJFDAMGG@frc?$AA@  100ba0ec     d3dx9dt:cassembler.obj
 0002:0000a0f0       ??_C@_03NHABKNJA@lrp?$AA@  100ba0f0     d3dx9dt:cassembler.obj
 0002:0000a0f4       ??_C@_03HHBLCKEM@dst?$AA@  100ba0f4     d3dx9dt:cassembler.obj
 0002:0000a0f8       ??_C@_03KDBOCEAF@lit?$AA@  100ba0f8     d3dx9dt:cassembler.obj
 0002:0000a0fc       ??_C@_03MGHMBJCF@log?$AA@  100ba0fc     d3dx9dt:cassembler.obj
 0002:0000a100       ??_C@_03KHJOGHMM@exp?$AA@  100ba100     d3dx9dt:cassembler.obj
 0002:0000a104       ??_C@_03PCCDGNNG@sge?$AA@  100ba104     d3dx9dt:cassembler.obj
 0002:0000a108       ??_C@_03KNKPKBCH@slt?$AA@  100ba108     d3dx9dt:cassembler.obj
 0002:0000a10c       ??_C@_03LJAEFNNE@max?$AA@  100ba10c     d3dx9dt:cassembler.obj
 0002:0000a110       ??_C@_03KLIPLJLL@min?$AA@  100ba110     d3dx9dt:cassembler.obj
 0002:0000a114       ??_C@_03IFCENLBA@dp4?$AA@  100ba114     d3dx9dt:cassembler.obj
 0002:0000a118       ??_C@_03MKGFENNH@dp3?$AA@  100ba118     d3dx9dt:cassembler.obj
 0002:0000a11c       ??_C@_03HPBONGEK@rsq?$AA@  100ba11c     d3dx9dt:cassembler.obj
 0002:0000a120       ??_C@_03HKCDEEHL@rcp?$AA@  100ba120     d3dx9dt:cassembler.obj
 0002:0000a124       ??_C@_03IMIFIBCN@mul?$AA@  100ba124     d3dx9dt:cassembler.obj
 0002:0000a128       ??_C@_03FPHDAAIJ@mad?$AA@  100ba128     d3dx9dt:cassembler.obj
 0002:0000a12c       ??_C@_03KCMAIMAP@sub?$AA@  100ba12c     d3dx9dt:cassembler.obj
 0002:0000a130       ??_C@_03BDGOHNNK@add?$AA@  100ba130     d3dx9dt:cassembler.obj
 0002:0000a134       ??_C@_03CNBJFNFA@mov?$AA@  100ba134     d3dx9dt:cassembler.obj
 0002:0000a138       ??_C@_03GJPGFFDI@nop?$AA@  100ba138     d3dx9dt:cassembler.obj
 0002:0000a140       ??_C@_0IE@GCIDJPHM@ID3DXFragmentLinker?3?5DIFFUSE?5and@ 100ba140     d3dx9dt:cassembler.obj
 0002:0000a1c4       ??_C@_08EABEDICH@SPECULAR?$AA@ 100ba1c4     d3dx9dt:cassembler.obj
 0002:0000a1d0       ??_C@_07PHAMEMIK@DIFFUSE?$AA@ 100ba1d0     d3dx9dt:cassembler.obj
 0002:0000a1d8       ??_C@_06CLEKFGNM@SAMPLE?$AA@ 100ba1d8     d3dx9dt:cassembler.obj
 0002:0000a1e0       ??_C@_05NCPPINNM@DEPTH?$AA@ 100ba1e0     d3dx9dt:cassembler.obj
 0002:0000a1e8       ??_C@_03KEDKDEDN@FOG?$AA@  100ba1e8     d3dx9dt:cassembler.obj
 0002:0000a1ec       ??_C@_05DPNLPLKI@COLOR?$AA@ 100ba1ec     d3dx9dt:cassembler.obj
 0002:0000a1f4       ??_C@_0L@FOOOLPDH@POSITIONT?5?$AA@ 100ba1f4     d3dx9dt:cassembler.obj
 0002:0000a200       ??_C@_0L@PPFCHDAK@TESSFACTOR?$AA@ 100ba200     d3dx9dt:cassembler.obj
 0002:0000a20c       ??_C@_08DDEDFEDO@BINORMAL?$AA@ 100ba20c     d3dx9dt:cassembler.obj
 0002:0000a218       ??_C@_07HOFFNMLH@TANGENT?$AA@ 100ba218     d3dx9dt:cassembler.obj
 0002:0000a220       ??_C@_08CMDKBPJM@TEXCOORD?$AA@ 100ba220     d3dx9dt:cassembler.obj
 0002:0000a22c       ??_C@_05DHDJOECB@PSIZE?$AA@ 100ba22c     d3dx9dt:cassembler.obj
 0002:0000a234       ??_C@_06IOJAGNKJ@NORMAL?$AA@ 100ba234     d3dx9dt:cassembler.obj
 0002:0000a23c       ??_C@_0N@DBILKEJG@BLENDINDICES?$AA@ 100ba23c     d3dx9dt:cassembler.obj
 0002:0000a24c       ??_C@_0M@NKNBBMD@BLENDWEIGHT?$AA@ 100ba24c     d3dx9dt:cassembler.obj
 0002:0000a258       ??_C@_08JPMAAECC@POSITION?$AA@ 100ba258     d3dx9dt:cassembler.obj
 0002:0000a264       ??_C@_07NFANNNEC@UNKNOWN?$AA@ 100ba264     d3dx9dt:cassembler.obj
 0002:0000a26c       ??_C@_09LCIBJLA@POSITIONT?$AA@ 100ba26c     d3dx9dt:cassembler.obj
 0002:0000a278       ??_C@_0CD@MJEDDOIP@invalid?5instruction?5modifiers?5?8?$CF@ 100ba278     d3dx9dt:cassembler.obj
 0002:0000a29c       ??_C@_0DH@CMLFLCOE@?8?$CFs?8?5is?5not?5a?5valid?5instruction?5@ 100ba29c     d3dx9dt:cassembler.obj
 0002:0000a2d4       ??_C@_02FJPJILEL@le?$AA@   100ba2d4     d3dx9dt:cassembler.obj
 0002:0000a2d8       ??_C@_02FKHNFPCF@ne?$AA@   100ba2d8     d3dx9dt:cassembler.obj
 0002:0000a2dc       ??_C@_02KCAKIFL@lt?$AA@    100ba2dc     d3dx9dt:cassembler.obj
 0002:0000a2e0       ??_C@_02FFKMGEKK@ge?$AA@   100ba2e0     d3dx9dt:cassembler.obj
 0002:0000a2e4       ??_C@_02HIIGGHJB@eq?$AA@   100ba2e4     d3dx9dt:cassembler.obj
 0002:0000a2e8       ??_C@_02GHFEHLK@gt?$AA@    100ba2e8     d3dx9dt:cassembler.obj
 0002:0000a2ec       ??_C@_06CPGBIIAO@sample?$AA@ 100ba2ec     d3dx9dt:cassembler.obj
 0002:0000a2f4       ??_C@_05BJGJGKJC@depth?$AA@ 100ba2f4     d3dx9dt:cassembler.obj
 0002:0000a2fc       ??_C@_03KJMBPJEB@fog?$AA@  100ba2fc     d3dx9dt:cassembler.obj
 0002:0000a300       ??_C@_05PEENBMOG@color?$AA@ 100ba300     d3dx9dt:cassembler.obj
 0002:0000a308       ??_C@_09DLNJCEEH@positiont?$AA@ 100ba308     d3dx9dt:cassembler.obj
 0002:0000a314       ??_C@_0L@EJDPMBCK@tessfactor?$AA@ 100ba314     d3dx9dt:cassembler.obj
 0002:0000a320       ??_C@_08EMOPGKBJ@binormal?$AA@ 100ba320     d3dx9dt:cassembler.obj
 0002:0000a32c       ??_C@_07IDAIGADD@tangent?$AA@ 100ba32c     d3dx9dt:cassembler.obj
 0002:0000a334       ??_C@_05PMKPADGP@psize?$AA@ 100ba334     d3dx9dt:cassembler.obj
 0002:0000a33c       ??_C@_06IKLLLDHL@normal?$AA@ 100ba33c     d3dx9dt:cassembler.obj
 0002:0000a344       ??_C@_0N@CMKJIGLL@blendindices?$AA@ 100ba344     d3dx9dt:cassembler.obj
 0002:0000a354       ??_C@_0M@KDPBHIBL@blendweight?$AA@ 100ba354     d3dx9dt:cassembler.obj
 0002:0000a360       ??_C@_08OAGMDKAF@position?$AA@ 100ba360     d3dx9dt:cassembler.obj
 0002:0000a36c       ??_C@_02HLHADHEL@pp?$AA@   100ba36c     d3dx9dt:cassembler.obj
 0002:0000a370       ??_C@_06EMCPHFGM@volume?$AA@ 100ba370     d3dx9dt:cassembler.obj
 0002:0000a378       ??_C@_04OIHHNFHN@cube?$AA@ 100ba378     d3dx9dt:cassembler.obj
 0002:0000a380       ??_C@_02CGMALJLA@2d?$AA@   100ba380     d3dx9dt:cassembler.obj
 0002:0000a384       ??_C@_02FIPPPJOK@d8?$AA@   100ba384     d3dx9dt:cassembler.obj
 0002:0000a388       ??_C@_02PEEKLGOG@d4?$AA@   100ba388     d3dx9dt:cassembler.obj
 0002:0000a38c       ??_C@_02KCBABBGA@d2?$AA@   100ba38c     d3dx9dt:cassembler.obj
 0002:0000a390       ??_C@_02LHCMELHE@x2?$AA@   100ba390     d3dx9dt:cassembler.obj
 0002:0000a394       ??_C@_02OBHGOMPC@x4?$AA@   100ba394     d3dx9dt:cassembler.obj
 0002:0000a398       ??_C@_02ENMDKDPO@x8?$AA@   100ba398     d3dx9dt:cassembler.obj
 0002:0000a39c       ??_C@_08JOJIKHG@centroid?$AA@ 100ba39c     d3dx9dt:cassembler.obj
 0002:0000a3a8       ??_C@_03KFHHDCHE@sat?$AA@  100ba3a8     d3dx9dt:cassembler.obj
 0002:0000a3ac       ??_C@_0BC@OLOFEEHK@invalid?5mask?5?8?$CFs?8?$AA@ 100ba3ac     d3dx9dt:cassembler.obj
 0002:0000a3c0       ??_C@_0BF@HCOGMEGH@invalid?5swizzle?5?8?$CFs?8?$AA@ 100ba3c0     d3dx9dt:cassembler.obj
 0002:0000a3d8       ??_C@_0CK@OOJOMBM@internal?5error?3?5instruction?5size@ 100ba3d8     d3dx9dt:cassembler.obj
 0002:0000a404       ??_C@_0DO@ODLPCPFA@only?5a0?4x?5is?5allowed?5as?5a?5relati@ 100ba404     d3dx9dt:cassembler.obj
 0002:0000a444       ??_C@_0DD@GOMDFKNO@source?5modifiers?5incompatible?5wi@ 100ba444     d3dx9dt:cassembler.obj
 0002:0000a478       ??_C@_0EK@NBDIIGO@relative?5addressing?5of?5predicate@ 100ba478     d3dx9dt:cassembler.obj
 0002:0000a4c4       ??_C@_0CP@MGCFIDAM@source?5modifiers?5are?5not?5allowed@ 100ba4c4     d3dx9dt:cassembler.obj
 0002:0000a4f4       ??_C@_0DE@FGKBEK@predicates?5are?5not?5supported?5in?5@ 100ba4f4     d3dx9dt:cassembler.obj
 0002:0000a528       ??_C@_0FG@FCLIIPMN@relative?5addressing?5of?5destinati@ 100ba528     d3dx9dt:cassembler.obj
 0002:0000a580       ??_C@_0FA@OOIKMLNO@only?5one?5address?5register?5refere@ 100ba580     d3dx9dt:cassembler.obj
 0002:0000a5d0       ??_C@_0DL@OMAEJHPC@source?5modifiers?5are?5not?5allowed@ 100ba5d0     d3dx9dt:cassembler.obj
 0002:0000a610       ??_C@_0FA@KPDDNGND@call?0?5callnz?0?5label?0?5and?5ret?5ins@ 100ba610     d3dx9dt:cassembler.obj
 0002:0000a660       ??_C@_0EI@PMOHFJJO@Matrices?5cannot?5be?5specified?5in?5@ 100ba660     d3dx9dt:cassembler.obj
 0002:0000a6a8       ??_C@_02GKOINLEI@r_?$AA@   100ba6a8     d3dx9dt:cassembler.obj
 0002:0000a6ac       ??_C@_02GNOBHDJE@v_?$AA@   100ba6ac     d3dx9dt:cassembler.obj
 0002:0000a6b0       ??_C@_0CL@LFOONOMK@fragment?5info?5exceeds?5maximum?5co@ 100ba6b0     d3dx9dt:cassembler.obj
 0002:0000a6dc       ??_C@_0DP@DBAJKLBB@debug?5info?5exceeds?5maximum?5comme@ 100ba6dc     d3dx9dt:cassembler.obj
 0002:0000a71b       ??_C@_00CNPNBAHC@?$AA@     100ba71b     d3dx9dt:cassembler.obj
 0002:0000a720       ??_C@_0EN@EDDHNMBH@constant?5register?5address?5out?5of@ 100ba720     d3dx9dt:cassembler.obj
 0002:0000a770       ??_C@_0DK@LHKGOFLH@constant?5register?5?8?$CFs?8?5must?5be?5d@ 100ba770     d3dx9dt:cassembler.obj
 0002:0000a7b0       ??_C@_0HE@PMJLMPBK@?8?$CFs?8?5is?5not?5a?5valid?5register?5nam@ 100ba7b0     d3dx9dt:cassembler.obj
 0002:0000a824       ??_C@_02HKJLJHNJ@i_?$AA@   100ba824     d3dx9dt:cassembler.obj
 0002:0000a828       ??_C@_02HGMOHIDI@b_?$AA@   100ba828     d3dx9dt:cassembler.obj
 0002:0000a82c       ??_C@_02HHAMBCAP@c_?$AA@   100ba82c     d3dx9dt:cassembler.obj
 0002:0000a830       ??_C@_0DO@BHPEKDGB@addressing?5operations?5not?5allowe@ 100ba830     d3dx9dt:cassembler.obj
 0002:0000a870       ??_C@_0DO@CINKJAFB@addressing?5operations?5are?5not?5al@ 100ba870     d3dx9dt:cassembler.obj
 0002:0000a8b0       ??_C@_0CG@NCKHPBIL@Invalid?5input?5register?5?8?$CFs?8?5spec@ 100ba8b0     d3dx9dt:cassembler.obj
 0002:0000a8d8       ??_C@_0CP@KIKGPAFB@invalid?5register?0?5input?0?5or?5cons@ 100ba8d8     d3dx9dt:cassembler.obj
 0002:0000a908       ??_C@_05LAPONLG@false?$AA@ 100ba908     d3dx9dt:cassembler.obj
 0002:0000a910       ??_C@_04LOAJBDKD@true?$AA@ 100ba910     d3dx9dt:cassembler.obj
 0002:0000a918       ??_C@_0L@BPGLNOGK@entrypoint?$AA@ 100ba918     d3dx9dt:cassembler.obj
 0002:0000a924       ??_C@_0BG@CDEBKFJO@invalid?5register?5?8?$CFs?8?$AA@ 100ba924     d3dx9dt:cassembler.obj
 0002:0000a93c       ??_C@_0BL@ENKBHICH@invalid?5register?5?8?$CFs?$FL?4?4?4?$FN?8?$AA@ 100ba93c     d3dx9dt:cassembler.obj
 0002:0000a958       ??_C@_0BK@FOKIDEMM@invalid?5register?5?8?$CFs?$FL?$CFu?$FN?8?$AA@ 100ba958     d3dx9dt:cassembler.obj
 0002:0000a974       ??_C@_02DDIGBPPH@da?$AA@   100ba974     d3dx9dt:cassembler.obj
 0002:0000a978       ??_C@_02CPBOKKCA@dw?$AA@   100ba978     d3dx9dt:cassembler.obj
 0002:0000a97c       ??_C@_02BIKLEMDE@db?$AA@   100ba97c     d3dx9dt:cassembler.obj
 0002:0000a980       ??_C@_02JKLANEGN@dz?$AA@   100ba980     d3dx9dt:cassembler.obj
 0002:0000a984       ??_C@_03PIAGHCPC@bx2?$AA@  100ba984     d3dx9dt:cassembler.obj
 0002:0000a988       ??_C@_04NBAGBPGE@bias?$AA@ 100ba988     d3dx9dt:cassembler.obj
 0002:0000a990       ??_C@_0EH@EMLNKHPK@temporary?5and?5constant?5registers@ 100ba990     d3dx9dt:cassembler.obj
 0002:0000a9d8       ??_C@_0EN@JJAJIHLJ@only?5one?5address?5register?5refere@ 100ba9d8     d3dx9dt:cassembler.obj
 0002:0000aa28       ??_C@_0CE@OJBKLNIJ@scalar?5registers?5cannot?5be?5swizz@ 100baa28     d3dx9dt:cassembler.obj
 0002:0000aa4c       ??_C@_0DD@GNHGMJHC@complement?5is?5not?5supported?5in?5t@ 100baa4c     d3dx9dt:cassembler.obj
 0002:0000aa80       ??_C@_0CP@LILJCPPC@complement?5cannot?5be?5used?5with?5o@ 100baa80     d3dx9dt:cassembler.obj
 0002:0000aab0       ??_C@_0BO@MOIAKPAE@invalid?5complement?5expression?$AA@ 100baab0     d3dx9dt:cassembler.obj
 0002:0000aad0       ??_C@_0CP@DFLODLPG@negate?5and?5divide?5modifiers?5cann@ 100baad0     d3dx9dt:cassembler.obj
 0002:0000ab00       ??_C@_0CI@OBKELLM@not?5cannot?5be?5used?5with?5other?5mo@ 100bab00     d3dx9dt:cassembler.obj
 0002:0000ab28       ??_C@_0CC@GOEOADD@scalar?5registers?5cannot?5be?5maske@ 100bab28     d3dx9dt:cassembler.obj
 0002:0000ab50       ??_C@_0EA@OBEGANPP@instruction?5predication?5is?5not?5s@ 100bab50     d3dx9dt:cassembler.obj
 0002:0000ab90       ??_C@_0DM@PNIGIHLP@instruction?5coissue?5is?5not?5suppo@ 100bab90     d3dx9dt:cassembler.obj
 0002:0000abcc       ??_C@_0BP@IMMCKKEG@Direct3DShaderValidatorCreate9?$AA@ 100babcc     d3dx9dt:cassembler.obj
 0002:0000abf0       ??_C@_0EO@HKJOFKHI@only?5vs_1_1?0?5vs_2_0?0?5vs_2_x?0?5and@ 100babf0     d3dx9dt:cassembler.obj
 0002:0000ac40       ??_C@_0BM@ONDMKAHF@unrecognized?5shader?5version?$AA@ 100bac40     d3dx9dt:cassembler.obj
 0002:0000ac5c       ??_C@_0CM@ICEBBLON@ps_1_0?5is?5no?5longer?5supported?$DL?5u@ 100bac5c     d3dx9dt:cassembler.obj
 0002:0000ac88       ??_C@_0CM@BNGBLPJL@vs_1_0?5is?5no?5longer?5supported?$DL?5u@ 100bac88     d3dx9dt:cassembler.obj
 0002:0000acb4       ??_C@_0BI@FLANODHC@shader?5version?5expected?$AA@ 100bacb4     d3dx9dt:cassembler.obj
 0002:0000accc       ??_C@_0BM@IPFANDCP@ppShader?5pointer?5is?5invalid?$AA@ 100baccc     d3dx9dt:cassembler.obj
 0002:0000ace8       ??_C@_0BL@JMMMMHAF@Flags?5parameter?5is?5invalid?$AA@ 100bace8     d3dx9dt:cassembler.obj
 0002:0000ad04       ??_C@_0CI@POGFLCCH@internal?5error?3?5result?5register?5@ 100bad04     d3dx9dt:ccompiler.obj
 0002:0000ad2c       ??_C@_0CP@EGCODCM@internal?5error?3?5argument?5missing@ 100bad2c     d3dx9dt:ccompiler.obj
 0002:0000ad5c       ??_C@_0BN@MGNLPBPN@internal?5error?3?5unknown?5node?$AA@ 100bad5c     d3dx9dt:ccompiler.obj
 0002:0000ad80       __real@bfdffffffc06f3a6    100bad80     d3dx9dt:ccompiler.obj
 0002:0000ad88       __real@3fa555547fbaf47e    100bad88     d3dx9dt:ccompiler.obj
 0002:0000ad90       __real@bf56c13745d11568    100bad90     d3dx9dt:ccompiler.obj
 0002:0000ad98       __real@3ef9f6b4176d5bad    100bad98     d3dx9dt:ccompiler.obj
 0002:0000ada0       __real@be90f02c6b8de73b    100bada0     d3dx9dt:ccompiler.obj
 0002:0000ada8       __real@c00921fb60000000    100bada8     d3dx9dt:ccompiler.obj
 0002:0000adb0       __real@401921fb60000000    100badb0     d3dx9dt:ccompiler.obj
 0002:0000adb8       __real@3fd0000000000000    100badb8     d3dx9dt:ccompiler.obj
 0002:0000adc0       __real@3fc45f306446f9b4    100badc0     d3dx9dt:ccompiler.obj
 0002:0000adc8       __real@3ff921fb60000000    100badc8     d3dx9dt:ccompiler.obj
 0002:0000add0       __real@400921fb60000000    100badd0     d3dx9dt:ccompiler.obj
 0002:0000add8       __real@c000000000000000    100badd8     d3dx9dt:ccompiler.obj
 0002:0000ade0       __real@3ff921b485ae2a4a    100bade0     d3dx9dt:ccompiler.obj
 0002:0000ade8       __real@bfcb26908d815d63    100bade8     d3dx9dt:ccompiler.obj
 0002:0000adf0       __real@3fb302c4d65e4606    100badf0     d3dx9dt:ccompiler.obj
 0002:0000adf8       __real@bf932dc60be86b8f    100badf8     d3dx9dt:ccompiler.obj
 0002:0000ae00       __real@3feffee6fb4c3c19    100bae00     d3dx9dt:ccompiler.obj
 0002:0000ae08       __real@bfd523a08398a655    100bae08     d3dx9dt:ccompiler.obj
 0002:0000ae10       __real@3fc70edc3bd59924    100bae10     d3dx9dt:ccompiler.obj
 0002:0000ae18       __real@bfb5cb46bacf7447    100bae18     d3dx9dt:ccompiler.obj
 0002:0000ae20       __real@3f9555cbe46f80c1    100bae20     d3dx9dt:ccompiler.obj
 0002:0000ae28       ??_C@_0DJ@EPCLFKPH@asymetric?5returns?5from?5if?5statem@ 100bae28     d3dx9dt:ccompiler.obj
 0002:0000ae64       ??_C@_0CH@NENLLKAN@internal?5error?3?5unrecognized?5sta@ 100bae64     d3dx9dt:ccompiler.obj
 0002:0000ae8c       ??_C@_0DI@LAJEPILL@general?5for?1do?1while?5statements?5@ 100bae8c     d3dx9dt:ccompiler.obj
 0002:0000aec4       ??_C@_0CP@MHLCDFLN@intrinsic?5function?5?8?$CFs?8?5is?5not?5y@ 100baec4     d3dx9dt:ccompiler.obj
 0002:0000aef8       __real@406fe01000000000    100baef8     d3dx9dt:ccompiler.obj
 0002:0000af00       ??_C@_0FD@OKHFAJJB@tex1D?5will?5considered?5dependent?5@ 100baf00     d3dx9dt:ccompiler.obj
 0002:0000af58       __real@4008000000000000    100baf58     d3dx9dt:ccompiler.obj
 0002:0000af60       __real@3f91df46aaaaaaab    100baf60     d3dx9dt:ccompiler.obj
 0002:0000af68       __real@4024000000000000    100baf68     d3dx9dt:ccompiler.obj
 0002:0000af70       __real@404ca5dc0d03cf26    100baf70     d3dx9dt:ccompiler.obj
 0002:0000af78       ??_C@_0DD@FNLPAPMA@?8?$CFs?8?3?5output?5parameter?5?8?$CFs?8?5neve@ 100baf78     d3dx9dt:ccompiler.obj
 0002:0000afac       ??_C@_03MLHPLGLE@$?$CFs?$AA@ 100bafac     d3dx9dt:ccompiler.obj
 0002:0000afb0       ??_C@_0CO@ILGDJCAN@?8?$CFs?8?3?5output?5parameter?5?8?$CFs?8?5miss@ 100bafb0     d3dx9dt:ccompiler.obj
 0002:0000afe0       ??_C@_0CO@EHOLKGOE@?8?$CFs?8?3?5function?5return?5value?5miss@ 100bafe0     d3dx9dt:ccompiler.obj
 0002:0000b010       ??_C@_0CD@EJCGEILD@?8?$CFs?8?3?5function?5must?5return?5a?5val@ 100bb010     d3dx9dt:ccompiler.obj
 0002:0000b034       ??_C@_0CN@FMBKKIKE@?8?$CFs?8?3?5input?5parameter?5?8?$CFs?8?5missi@ 100bb034     d3dx9dt:ccompiler.obj
 0002:0000b064       ??_C@_0CO@NIJODJKG@?8?$CFs?8?3?5recursive?5functions?5not?5ye@ 100bb064     d3dx9dt:ccompiler.obj
 0002:0000b098       __real@bff0000000000000    100bb098     d3dx9dt:ccompiler.obj
 0002:0000b0a0       ??_C@_0CI@PPGICFHM@internal?5error?3?5unrecognized?5exp@ 100bb0a0     d3dx9dt:ccompiler.obj
 0002:0000b0c8       ??_C@_0CF@EFGJKLKI@function?5?8?$CFs?8?5missing?5implementa@ 100bb0c8     d3dx9dt:ccompiler.obj
 0002:0000b0f0       ??_C@_0DA@IMFPOHBF@non?9linear?5array?5references?5not?5@ 100bb0f0     d3dx9dt:ccompiler.obj
 0002:0000b120       ??_C@_0DP@OGPGLIEM@array?5references?5of?5intermediate@ 100bb120     d3dx9dt:ccompiler.obj
 0002:0000b160       ??_C@_0BK@GAMFFMJ@array?5index?5out?5of?5bounds?$AA@ 100bb160     d3dx9dt:ccompiler.obj
 0002:0000b17c       ??_C@_0CD@GEHDMLEI@internal?5error?3?5unrecognized?5val@ 100bb17c     d3dx9dt:ccompiler.obj
 0002:0000b1a0       ??_C@_0CF@MDAKHO@internal?5error?3?5leaking?5instruct@ 100bb1a0     d3dx9dt:ccompiler.obj
 0002:0000b1c8       ??_C@_0CC@EMJLCNNM@internal?5error?3?5leaking?5argument@ 100bb1c8     d3dx9dt:ccompiler.obj
 0002:0000b1ec       ??_C@_0BO@FEPALJEG@overloaded?5function?5not?5found?$AA@ 100bb1ec     d3dx9dt:ccompiler.obj
 0002:0000b20c       ??_C@_0BL@EJCABLJC@?8?$CFs?8?3?5entrypoint?5not?5found?$AA@ 100bb20c     d3dx9dt:ccompiler.obj
 0002:0000b228       ??_C@_0CC@BLANMFPI@unrecognized?5compiler?5target?5?8?$CFs@ 100bb228     d3dx9dt:ccompiler.obj
 0002:0000b24c       ??_C@_0BP@CFMIEHEH@pEntrypoint?5pointer?5is?5invalid?$AA@ 100bb24c     d3dx9dt:ccompiler.obj
 0002:0000b26c       ??_C@_0DD@EMLHHCB@non?9trivial?5object?5expressions?5n@ 100bb26c     d3dx9dt:ccompiler.obj
 0002:0000b2a0       ??_C@_0EI@GEHEONGK@expressions?5returning?5objects?5in@ 100bb2a0     d3dx9dt:ccompiler.obj
 0002:0000b2e8       ??_C@_0CE@KPECEOMG@internal?5error?3?5expression?5expec@ 100bb2e8     d3dx9dt:ccompiler.obj
 0002:0000b310       ??_7CConstantTable@D3DXShader@@6B@ 100bb310     d3dx9dt:cconstanttable.obj
 0002:0000b378       ??_C@_0CL@BAOLFGNN@ID3DXConstantTable?3?5invalid?5cons@ 100bb378     d3dx9dt:cconstanttable.obj
 0002:0000b3a4       ??_C@_0CD@OFPNHKHC@ID3DXConstantTable?3?5invalid?5hand@ 100bb3a4     d3dx9dt:cconstanttable.obj
 0002:0000b3c8       ??_C@_0DL@PHDOGPFN@ID3DXConstantTable?3?5invalid?5regi@ 100bb3c8     d3dx9dt:cconstanttable.obj
 0002:0000b404       ??_C@_0CK@GJMMKABP@ID3DXConstantTable?3?5unsupported?5@ 100bb404     d3dx9dt:cconstanttable.obj
 0002:0000b430       ??_C@_0EC@KOOOMFCA@ID3DXConstantTable?3?5unrecognized@ 100bb430     d3dx9dt:cconstanttable.obj
 0002:0000b474       ??_C@_0DD@FPIJPKPF@ID3DXConstantTable?3?5Data?5pointer@ 100bb474     d3dx9dt:cconstanttable.obj
 0002:0000b4a8       ??_C@_0CO@MLMGNIPJ@ID3DXConstantTable?3?5pDevice?5para@ 100bb4a8     d3dx9dt:cconstanttable.obj
 0002:0000b4d8       ??_C@_0CM@KOBCPANA@ID3DXConstantTable?3?5pDesc?5parame@ 100bb4d8     d3dx9dt:cconstanttable.obj
 0002:0000b504       ??_C@_0DE@GNCFJNKP@ID3DXConstantTable?3?5pConstantDes@ 100bb504     d3dx9dt:cconstanttable.obj
 0002:0000b538       ??_C@_0DA@OMLGEDDM@ID3DXConstantTable?3?5constant?5ind@ 100bb538     d3dx9dt:cconstanttable.obj
 0002:0000b568       ??_C@_0CP@IOLHHLPE@ID3DXConstantTable?3?5structure?5me@ 100bb568     d3dx9dt:cconstanttable.obj
 0002:0000b598       ??_C@_0CM@EDOFPPPL@ID3DXConstantTable?3?5constant?5nam@ 100bb598     d3dx9dt:cconstanttable.obj
 0002:0000b5c4       ??_C@_0DN@GOIEBKLC@ID3DXConstantTable?3?5constant?5nam@ 100bb5c4     d3dx9dt:cconstanttable.obj
 0002:0000b604       ??_C@_0CK@LFIJPMFP@ID3DXConstantTable?3?5index?5must?5b@ 100bb604     d3dx9dt:cconstanttable.obj
 0002:0000b630       ??_C@_0EF@ONEDKOJD@ID3DXConstantTable?3?5annotations?5@ 100bb630     d3dx9dt:cconstanttable.obj
 0002:0000b678       ??_C@_0CM@DJEHAJG@ID3DXConstantTable?3?5pName?5parame@ 100bb678     d3dx9dt:cconstanttable.obj
 0002:0000b6a4       ??_C@_0CO@NKKIBIJN@ID3DXConstantTable?3?5array?5index?5@ 100bb6a4     d3dx9dt:cconstanttable.obj
 0002:0000b6d4       ??_C@_0BI@FJIJIIGK@pDevice?5pointer?5is?5NULL?$AA@ 100bb6d4     d3dx9dt:cconstanttable.obj
 0002:0000b6ec       ??_C@_0DG@NOJCGNDL@ID3DXConstantTable?3?5ppConstantTa@ 100bb6ec     d3dx9dt:cconstanttable.obj
 0002:0000b724       ??_7CBuffer@D3DXCore@@6B@  100bb724     d3dx9dt:cbuffer.obj
 0002:0000b740       ??_7CBufferA16@D3DXCore@@6B@ 100bb740     d3dx9dt:cbuffer.obj
 0002:0000b75c       __real@3f99999a            100bb75c     d3dx9dt:cbuffer.obj
 0002:0000b760       ??_C@_0BL@NMCNKKCB@ppBuffer?5parameter?5is?5NULL?$AA@ 100bb760     d3dx9dt:cbuffer.obj
 0002:0000b77c       ??_7CStringBuffer@D3DXCore@@6B@ 100bb77c     d3dx9dt:cbuffer.obj
 0002:0000bd04       ??_C@_0BK@BMMPFBBH@invalid?5bit?5length?5repeat?$AA@ 100bbd04     d3dx9dt:infblock.obj
 0002:0000bd20       ??_C@_0CE@GMIGFPBB@too?5many?5length?5or?5distance?5symb@ 100bbd20     d3dx9dt:infblock.obj
 0002:0000bd44       ??_C@_0BN@LGAADGOK@invalid?5stored?5block?5lengths?$AA@ 100bbd44     d3dx9dt:infblock.obj
 0002:0000bd64       ??_C@_0BD@PJCBIDD@invalid?5block?5type?$AA@ 100bbd64     d3dx9dt:infblock.obj
 0002:0000bd78       __real@4020000000000000    100bbd78     d3dx9dt:jcdctmgr.obj
 0002:0000be40       __real@46800100            100bbe40     d3dx9dt:jcdctmgr.obj
 0002:0000be70       ??_7CNode@D3DXShader@@6B@  100bbe70     d3dx9dt:cnode.obj
 0002:0000be80       ??_C@_07CIFAGBMG@unknown?$AA@ 100bbe80     d3dx9dt:cnode.obj
 0002:0000be88       ??_C@_04MLLLIHIP@null?$AA@ 100bbe88     d3dx9dt:cnode.obj
 0002:0000be90       ??_C@_01CLKCMJKC@?5?$AA@   100bbe90     d3dx9dt:cnode.obj
 0002:0000be94       ??_C@_01EEMJAFIK@?6?$AA@   100bbe94     d3dx9dt:cnode.obj
 0002:0000be98       ??_7CNodeList@D3DXShader@@6B@ 100bbe98     d3dx9dt:cnode.obj
 0002:0000bea8       ??_C@_03NJNOMAJF@?5?4?5?$AA@ 100bbea8     d3dx9dt:cnode.obj
 0002:0000beac       ??_C@_03ECLNAHEM@?$CFs?$CI?$AA@ 100bbeac     d3dx9dt:cnode.obj
 0002:0000beb0       ??_7CNodeToken@D3DXShader@@6B@ 100bbeb0     d3dx9dt:cnode.obj
 0002:0000bec0       ??_C@_06ILCLGBPB@_?$CC?$CFs?$CC_?$AA@ 100bbec0     d3dx9dt:cnode.obj
 0002:0000bec8       ??_C@_05KECCEOBD@_EOL_?$AA@ 100bbec8     d3dx9dt:cnode.obj
 0002:0000bed0       ??_C@_05KJLFMLMF@_EOF_?$AA@ 100bbed0     d3dx9dt:cnode.obj
 0002:0000bed8       ??_C@_04HPOGJIGG@_?$CFs_?$AA@ 100bbed8     d3dx9dt:cnode.obj
 0002:0000bee0       ??_C@_0L@DELLKKCD@_vs?4?$CFd?4?$CFd_?$AA@ 100bbee0     d3dx9dt:cnode.obj
 0002:0000beec       ??_C@_0L@DJKFNKGE@_ps?4?$CFd?4?$CFd_?$AA@ 100bbeec     d3dx9dt:cnode.obj
 0002:0000bef8       ??_C@_0N@CCLDLFAA@_?$CFc?$CFc?4?$CFd?4?$CFd_?$AA@ 100bbef8     d3dx9dt:cnode.obj
 0002:0000bf08       ??_C@_04HLGLOENE@_?$CFu_?$AA@ 100bbf08     d3dx9dt:cnode.obj
 0002:0000bf10       ??_C@_05GNEMHNLJ@_?$CFgf_?$AA@ 100bbf10     d3dx9dt:cnode.obj
 0002:0000bf18       ??_7CNodeProgram@D3DXShader@@6B@ 100bbf18     d3dx9dt:cnode.obj
 0002:0000bf28       ??_C@_01LBDDMOBJ@?$FN?$AA@ 100bbf28     d3dx9dt:cnode.obj
 0002:0000bf2c       ??_C@_08PEBGMAAB@Program?$FL?$AA@ 100bbf2c     d3dx9dt:cnode.obj
 0002:0000bf38       ??_7CNodeScope@D3DXShader@@6B@ 100bbf38     d3dx9dt:cnode.obj
 0002:0000bf48       ??_C@_0M@MFAANADG@StateBlock?5?$AA@ 100bbf48     d3dx9dt:cnode.obj
 0002:0000bf54       ??_C@_0L@LKIIPEHM@Technique?5?$AA@ 100bbf54     d3dx9dt:cnode.obj
 0002:0000bf60       ??_C@_0M@NEHIKCIK@Annotation?5?$AA@ 100bbf60     d3dx9dt:cnode.obj
 0002:0000bf6c       ??_C@_08HIKGDOF@ForLoop?5?$AA@ 100bbf6c     d3dx9dt:cnode.obj
 0002:0000bf78       ??_C@_0L@EAOFDKCO@StmtBlock?5?$AA@ 100bbf78     d3dx9dt:cnode.obj
 0002:0000bf84       ??_C@_0L@KJNIKOFN@ParamList?5?$AA@ 100bbf84     d3dx9dt:cnode.obj
 0002:0000bf90       ??_C@_07MBGEFPDN@Struct?5?$AA@ 100bbf90     d3dx9dt:cnode.obj
 0002:0000bf98       ??_C@_07LIBANCNB@Global?5?$AA@ 100bbf98     d3dx9dt:cnode.obj
 0002:0000bfa0       ??_C@_06JJMAGDAL@Scope?$FL?$AA@ 100bbfa0     d3dx9dt:cnode.obj
 0002:0000bfa8       ??_7CNodeDecl@D3DXShader@@6B@ 100bbfa8     d3dx9dt:cnode.obj
 0002:0000bfb8       ??_C@_01PPODPGHN@?$DO?$AA@ 100bbfb8     d3dx9dt:cnode.obj
 0002:0000bfbc       ??_C@_02ELAABJPC@?5?$DM?$AA@ 100bbfbc     d3dx9dt:cnode.obj
 0002:0000bfc0       ??_C@_02LMMGGCAJ@?3?5?$AA@ 100bbfc0     d3dx9dt:cnode.obj
 0002:0000bfc4       ??_C@_05LKDHAACN@Decl?$FL?$AA@ 100bbfc4     d3dx9dt:cnode.obj
 0002:0000bfcc       ??_7CNodeUsage@D3DXShader@@6B@ 100bbfcc     d3dx9dt:cnode.obj
 0002:0000bfdc       ??_C@_03KEJHNBPP@out?$AA@  100bbfdc     d3dx9dt:cnode.obj
 0002:0000bfe0       ??_C@_02LMMGJAGL@in?$AA@   100bbfe0     d3dx9dt:cnode.obj
 0002:0000bfe4       ??_C@_07HIAOBKCE@uniform?$AA@ 100bbfe4     d3dx9dt:cnode.obj
 0002:0000bfec       ??_C@_08PABEKFH@volatile?$AA@ 100bbfec     d3dx9dt:cnode.obj
 0002:0000bff8       ??_C@_06GGHJAEBN@static?$AA@ 100bbff8     d3dx9dt:cnode.obj
 0002:0000c000       ??_C@_06PAMNHHEG@extern?$AA@ 100bc000     d3dx9dt:cnode.obj
 0002:0000c008       ??_7CNodeArray@D3DXShader@@6B@ 100bc008     d3dx9dt:cnode.obj
 0002:0000c018       ??_C@_04DCNPPBEI@?5?$CFu?$FN?$AA@ 100bc018     d3dx9dt:cnode.obj
 0002:0000c020       ??_C@_06MEOCAGAP@Array?$FL?$AA@ 100bc020     d3dx9dt:cnode.obj
 0002:0000c028       ??_7CNodeType@D3DXShader@@6B@ 100bc028     d3dx9dt:cnode.obj
 0002:0000c038       ??_C@_04PBBAGMGB@?0?5?$CFu?$AA@ 100bc038     d3dx9dt:cnode.obj
 0002:0000c040       ??_C@_08IKOCBGHK@?0?5?$CFu?0?5?$CFu?$AA@ 100bc040     d3dx9dt:cnode.obj
 0002:0000c04c       ??_C@_0P@KAHBGHDF@vertexfragment?$AA@ 100bc04c     d3dx9dt:cnode.obj
 0002:0000c05c       ??_C@_0O@BICPDECA@pixelfragment?$AA@ 100bc05c     d3dx9dt:cnode.obj
 0002:0000c06c       ??_C@_0N@BAOCOKLF@vertexshader?$AA@ 100bc06c     d3dx9dt:cnode.obj
 0002:0000c07c       ??_C@_0M@IFPDMPDN@pixelshader?$AA@ 100bc07c     d3dx9dt:cnode.obj
 0002:0000c088       ??_C@_0M@JHKOCKOC@samplerCUBE?$AA@ 100bc088     d3dx9dt:cnode.obj
 0002:0000c094       ??_C@_09LAHPNHHH@sampler3D?$AA@ 100bc094     d3dx9dt:cnode.obj
 0002:0000c0a0       ??_C@_09LBLNLNEA@sampler2D?$AA@ 100bc0a0     d3dx9dt:cnode.obj
 0002:0000c0ac       ??_C@_09LDPLADBJ@sampler1D?$AA@ 100bc0ac     d3dx9dt:cnode.obj
 0002:0000c0b8       ??_C@_07PKJOFHPL@sampler?$AA@ 100bc0b8     d3dx9dt:cnode.obj
 0002:0000c0c0       ??_C@_0M@BANKBBCM@textureCUBE?$AA@ 100bc0c0     d3dx9dt:cnode.obj
 0002:0000c0cc       ??_C@_09PEIMPBLJ@texture3D?$AA@ 100bc0cc     d3dx9dt:cnode.obj
 0002:0000c0d8       ??_C@_09PFEOJLIO@texture2D?$AA@ 100bc0d8     d3dx9dt:cnode.obj
 0002:0000c0e4       ??_C@_09PHAICFNH@texture1D?$AA@ 100bc0e4     d3dx9dt:cnode.obj
 0002:0000c0f0       ??_C@_07JDHEGGGP@texture?$AA@ 100bc0f0     d3dx9dt:cnode.obj
 0002:0000c0f8       ??_C@_06ICGJLFIM@string?$AA@ 100bc0f8     d3dx9dt:cnode.obj
 0002:0000c100       ??_C@_04HIBGFPH@NULL?$AA@  100bc100     d3dx9dt:cnode.obj
 0002:0000c108       ??_C@_06BNJCAIGJ@double?$AA@ 100bc108     d3dx9dt:cnode.obj
 0002:0000c110       ??_C@_05KNFBNCOH@float?$AA@ 100bc110     d3dx9dt:cnode.obj
 0002:0000c118       ??_C@_04GBGPFKGN@half?$AA@ 100bc118     d3dx9dt:cnode.obj
 0002:0000c120       ??_C@_06EBGNBFIA@number?$AA@ 100bc120     d3dx9dt:cnode.obj
 0002:0000c128       ??_C@_0N@OFHMGPAL@unsigned?5int?$AA@ 100bc128     d3dx9dt:cnode.obj
 0002:0000c138       ??_C@_0P@IIMKEEHB@unsigned?5short?$AA@ 100bc138     d3dx9dt:cnode.obj
 0002:0000c148       ??_C@_0O@PPAIJIHF@unsigned?5char?$AA@ 100bc148     d3dx9dt:cnode.obj
 0002:0000c158       ??_C@_0BB@GDFGAOCJ@unsigned?5integer?$AA@ 100bc158     d3dx9dt:cnode.obj
 0002:0000c16c       ??_C@_03JBIPMCLC@int?$AA@  100bc16c     d3dx9dt:cnode.obj
 0002:0000c170       ??_C@_05BFKKPKCG@short?$AA@ 100bc170     d3dx9dt:cnode.obj
 0002:0000c178       ??_C@_04ENMBGAPA@char?$AA@ 100bc178     d3dx9dt:cnode.obj
 0002:0000c180       ??_C@_07LKHFMGFB@integer?$AA@ 100bc180     d3dx9dt:cnode.obj
 0002:0000c188       ??_C@_04DDKJGDCM@bool?$AA@ 100bc188     d3dx9dt:cnode.obj
 0002:0000c190       ??_C@_06LIJLOJAG@const?5?$AA@ 100bc190     d3dx9dt:cnode.obj
 0002:0000c198       ??_C@_01MNNFJEPP@?$DM?$AA@ 100bc198     d3dx9dt:cnode.obj
 0002:0000c19c       ??_C@_06NBFPPGEG@vector?$AA@ 100bc19c     d3dx9dt:cnode.obj
 0002:0000c1a4       ??_C@_06CGNOPMBC@matrix?$AA@ 100bc1a4     d3dx9dt:cnode.obj
 0002:0000c1ac       ??_C@_06IEOJBDIK@object?$AA@ 100bc1ac     d3dx9dt:cnode.obj
 0002:0000c1b4       ??_C@_0O@DCBHCJPK@column_major?5?$AA@ 100bc1b4     d3dx9dt:cnode.obj
 0002:0000c1c4       ??_C@_0L@FBOBFEFF@row_major?5?$AA@ 100bc1c4     d3dx9dt:cnode.obj
 0002:0000c1d0       ??_7CNodeFunction@D3DXShader@@6B@ 100bc1d0     d3dx9dt:cnode.obj
 0002:0000c1e0       ??_C@_04OHPAJBOO@?5?$DM?9?5?$AA@ 100bc1e0     d3dx9dt:cnode.obj
 0002:0000c1e8       ??_C@_03MCPBMLDJ@?5?3?5?$AA@ 100bc1e8     d3dx9dt:cnode.obj
 0002:0000c1ec       ??_C@_09DGAIFNAO@Function?$FL?$AA@ 100bc1ec     d3dx9dt:cnode.obj
 0002:0000c1f8       ??_7CNodeVariable@D3DXShader@@6B@ 100bc1f8     d3dx9dt:cnode.obj
 0002:0000c208       ??_C@_03MHLONNLM@?5?$DN?5?$AA@ 100bc208     d3dx9dt:cnode.obj
 0002:0000c20c       ??_C@_04EDGKFFPL@?5?$DN?$DN?5?$AA@ 100bc20c     d3dx9dt:cnode.obj
 0002:0000c214       ??_C@_09FFMFFGIH@Variable?$FL?$AA@ 100bc214     d3dx9dt:cnode.obj
 0002:0000c220       ??_7CNodeStatement@D3DXShader@@6B@ 100bc220     d3dx9dt:cnode.obj
 0002:0000c230       ??_C@_07BKFMFPMO@return?5?$AA@ 100bc230     d3dx9dt:cnode.obj
 0002:0000c238       ??_C@_03EBELALFK@if?5?$AA@ 100bc238     d3dx9dt:cnode.obj
 0002:0000c23c       ??_C@_04IOBLPFMG@for?5?$AA@ 100bc23c     d3dx9dt:cnode.obj
 0002:0000c244       ??_C@_05LIOAJMH@Stmt?$FL?$AA@ 100bc244     d3dx9dt:cnode.obj
 0002:0000c24c       ??_7CNodeExpression@D3DXShader@@6B@ 100bc24c     d3dx9dt:cnode.obj
 0002:0000c25c       ??_C@_03EEBNCBOD@?5?$CFs?$AA@ 100bc25c     d3dx9dt:cnode.obj
 0002:0000c260       ??_C@_03BBKEAIF@?$DP?$DP?$DP?$AA@ 100bc260     d3dx9dt:cnode.obj
 0002:0000c264       ??_C@_03MALNIIPC@X?9?9?$AA@ 100bc264     d3dx9dt:cnode.obj
 0002:0000c268       ??_C@_03JCGKFDMG@X?$CL?$CL?$AA@ 100bc268     d3dx9dt:cnode.obj
 0002:0000c26c       ??_C@_04CECMGLNF@X?9?$DNY?$AA@ 100bc26c     d3dx9dt:cnode.obj
 0002:0000c274       ??_C@_04BEHDEAJ@X?$CL?$DNY?$AA@ 100bc274     d3dx9dt:cnode.obj
 0002:0000c27c       ??_C@_04IOCFKDFO@X?1?$DNY?$AA@ 100bc27c     d3dx9dt:cnode.obj
 0002:0000c284       ??_C@_04LJPLFDGM@X?$CK?$DNY?$AA@ 100bc284     d3dx9dt:cnode.obj
 0002:0000c28c       ??_C@_05JIMOJAHD@$X?$CIY?$CJ?$AA@ 100bc28c     d3dx9dt:cnode.obj
 0002:0000c294       ??_C@_07OLJGFCKG@compile?$AA@ 100bc294     d3dx9dt:cnode.obj
 0002:0000c29c       ??_C@_04HDBDIBON@X?$CIY?$CJ?$AA@ 100bc29c     d3dx9dt:cnode.obj
 0002:0000c2a4       ??_C@_05FCDMGOCB@X?$DPY?3Z?$AA@ 100bc2a4     d3dx9dt:cnode.obj
 0002:0000c2ac       ??_C@_03IJKIIKFJ@X?4Y?$AA@ 100bc2ac     d3dx9dt:cnode.obj
 0002:0000c2b0       ??_C@_04EBMKDCGN@X?$FLY?$FN?$AA@ 100bc2b0     d3dx9dt:cnode.obj
 0002:0000c2b8       ??_C@_03JHMIJHHA@X?$DNY?$AA@ 100bc2b8     d3dx9dt:cnode.obj
 0002:0000c2bc       ??_C@_08CKHILAFB@init?5X?$DNY?$AA@ 100bc2bc     d3dx9dt:cnode.obj
 0002:0000c2c8       ??_C@_04CGMFOEOF@X?$HM?$HMY?$AA@ 100bc2c8     d3dx9dt:cnode.obj
 0002:0000c2d0       ??_C@_04ODFOKAEF@X?$CG?$CGY?$AA@ 100bc2d0     d3dx9dt:cnode.obj
 0002:0000c2d8       ??_C@_04GOPKNEGN@X?$CB?$DNY?$AA@ 100bc2d8     d3dx9dt:cnode.obj
 0002:0000c2e0       ??_C@_04HEDFDMEK@X?$DN?$DNY?$AA@ 100bc2e0     d3dx9dt:cnode.obj
 0002:0000c2e8       ??_C@_04GGIAJDKE@X?$DO?$DNY?$AA@ 100bc2e8     d3dx9dt:cnode.obj
 0002:0000c2f0       ??_C@_04MMIJFLCP@X?$DM?$DNY?$AA@ 100bc2f0     d3dx9dt:cnode.obj
 0002:0000c2f8       ??_C@_03JFIOCJCJ@X?$DOY?$AA@ 100bc2f8     d3dx9dt:cnode.obj
 0002:0000c2fc       ??_C@_03JGAKPNEH@X?$DMY?$AA@ 100bc2fc     d3dx9dt:cnode.obj
 0002:0000c300       ??_C@_03ILOODEAA@X?9Y?$AA@ 100bc300     d3dx9dt:cnode.obj
 0002:0000c304       ??_C@_03IPGDEILC@X?$CLY?$AA@ 100bc304     d3dx9dt:cnode.obj
 0002:0000c308       ??_C@_03IFPNGFLI@X?$CFY?$AA@ 100bc308     d3dx9dt:cnode.obj
 0002:0000c30c       ??_C@_03IIGKOAGO@X?1Y?$AA@ 100bc30c     d3dx9dt:cnode.obj
 0002:0000c310       ??_C@_03IOKBCCIF@X?$CKY?$AA@ 100bc310     d3dx9dt:cnode.obj
 0002:0000c314       ??_C@_02EGMEFILA@?$CLX?$AA@ 100bc314     d3dx9dt:cnode.obj
 0002:0000c318       ??_C@_02ECEJCEAC@?9X?$AA@  100bc318     d3dx9dt:cnode.obj
 0002:0000c31c       ??_C@_02ELFDNNGG@?$CBX?$AA@ 100bc31c     d3dx9dt:cnode.obj
 0002:0000c320       ??_C@_03MOBEFFOP@?9?9X?$AA@ 100bc320     d3dx9dt:cnode.obj
 0002:0000c324       ??_C@_03OPPCHGIB@?$CL?$CLX?$AA@ 100bc324     d3dx9dt:cnode.obj
 0002:0000c328       ??_C@_03IKCMFODH@X?0Y?$AA@ 100bc328     d3dx9dt:cnode.obj
 0002:0000c32c       ??_C@_01MMEEDKFM@X?$AA@    100bc32c     d3dx9dt:cnode.obj
 0002:0000c330       ??_C@_05LNAPPGLA@Expr?$FL?$AA@ 100bc330     d3dx9dt:cnode.obj
 0002:0000c338       ??_7CNodeValue@D3DXShader@@6B@ 100bc338     d3dx9dt:cnode.obj
 0002:0000c348       ??_C@_07GLGCLJLC@_false_?$AA@ 100bc348     d3dx9dt:cnode.obj
 0002:0000c350       ??_C@_06ILHBFNFJ@_true_?$AA@ 100bc350     d3dx9dt:cnode.obj
 0002:0000c358       ??_C@_04GGIPCNJD@_?$CFd_?$AA@ 100bc358     d3dx9dt:cnode.obj
 0002:0000c360       ??_C@_05IJDMPPIE@_?$CFuu_?$AA@ 100bc360     d3dx9dt:cnode.obj
 0002:0000c368       ??_C@_04GEMJJDMK@_?$CFg_?$AA@ 100bc368     d3dx9dt:cnode.obj
 0002:0000c370       ??_C@_02FJPJNKJF@?$FN_?$AA@ 100bc370     d3dx9dt:cnode.obj
 0002:0000c374       ??_C@_02DOBBMLPP@_?$FL?$AA@ 100bc374     d3dx9dt:cnode.obj
 0002:0000c378       ??_C@_0L@MODCJMMA@_?$CFu?5bytes_?$AA@ 100bc378     d3dx9dt:cnode.obj
 0002:0000c384       ??_C@_08IECOLIPN@_?$CFs?$CI?$CFd?$CJ_?$AA@ 100bc384     d3dx9dt:cnode.obj
 0002:0000c390       ??_C@_0O@JEEOPDD@unknown_value?$AA@ 100bc390     d3dx9dt:cnode.obj
 0002:0000c3a0       ??_7CNodeState@D3DXShader@@6B@ 100bc3a0     d3dx9dt:cnode.obj
 0002:0000c3b0       ??_C@_06LHEBHIBO@State?$FL?$AA@ 100bc3b0     d3dx9dt:cnode.obj
 0002:0000c3b8       ??_7CNodeBuffer@D3DXShader@@6B@ 100bc3b8     d3dx9dt:cnode.obj
 0002:0000c3c8       ??_C@_08OFDALCAP@?$CFu?5bytes?$AA@ 100bc3c8     d3dx9dt:cnode.obj
 0002:0000c3d4       ??_C@_07IFCIELLA@Buffer?$FL?$AA@ 100bc3d4     d3dx9dt:cnode.obj
 0002:0000c3dc       ??_7CNodeRegister@D3DXShader@@6B@ 100bc3dc     d3dx9dt:cnode.obj
 0002:0000c3ec       ??_C@_09PAEGKDHD@Register?$FL?$AA@ 100bc3ec     d3dx9dt:cnode.obj
 0002:0000c3f8       ??_C@_06ILDIIFON@Usage?$FL?$AA@ 100bc3f8     d3dx9dt:cnode.obj
 0002:0000c400       ??_C@_0CI@DEEHDBGO@Error?3?5Unhandled?5type?5found?5in?5f@ 100bc400     d3dx9dt:d3dx9fragment.obj
 0002:0000c428       ??_C@_0EN@HMGOCJEE@d?3?2builds?2nt32_chk?2multimedia?2di@ 100bc428     d3dx9dt:d3dx9fragment.obj
 0002:0000c478       ??_C@_0CF@FCJLENA@pNode?9?$DOm_pCar?9?$DOm_Type?5?$DN?$DN?5D3DXNT_@ 100bc478     d3dx9dt:d3dx9fragment.obj
 0002:0000c4a0       ??_C@_0FH@PHGMEDJN@integer?5constant?5register?5?8?$CFs?8?5m@ 100bc4a0     d3dx9dt:d3dx9fragment.obj
 0002:0000c4f8       ??_C@_0EP@PDBMPKMG@boolean?5constant?5register?5?8?$CFs?8?5m@ 100bc4f8     d3dx9dt:d3dx9fragment.obj
 0002:0000c548       ??_C@_0CH@JPMECHIK@pCurValue?9?$DOm_Value?4Type?5?$DN?$DN?5D3DXV@ 100bc548     d3dx9dt:d3dx9fragment.obj
 0002:0000c570       ??_C@_0HL@PKJIGFND@pCurValue?9?$DOm_Value?4Type?5?$DN?$DN?5D3DXV@ 100bc570     d3dx9dt:d3dx9fragment.obj
 0002:0000c5ec       ??_C@_0BB@CGAPLCPF@pCurList?5?$CB?$DN?5NULL?$AA@ 100bc5ec     d3dx9dt:d3dx9fragment.obj
 0002:0000c600       ??_C@_0O@JJEBLDOD@cColumns?5?$DM?$DN?54?$AA@ 100bc600     d3dx9dt:d3dx9fragment.obj
 0002:0000c610       ??_C@_01GBGANLPD@0?$AA@    100bc610     d3dx9dt:d3dx9fragment.obj
 0002:0000c618       ??_C@_0EK@OACHEGCL@Constant?5variable?5?8?$CFs?8?5bound?5to?5@ 100bc618     d3dx9dt:d3dx9fragment.obj
 0002:0000c664       ??_C@_06KDOAGMIH@bFound?$AA@ 100bc664     d3dx9dt:d3dx9fragment.obj
 0002:0000c66c       ??_C@_0BE@OLFFNEAO@strlen?$CIszName?$CJ?5?$DO?$DN?52?$AA@ 100bc66c     d3dx9dt:d3dx9fragment.obj
 0002:0000c680       ??_C@_0DM@IJBKGDHC@pdwCur?5?9?5?$CIDWORD?$CK?$CJ?$CI?$CKppShader?$CJ?9?$DOGe@ 100bc680     d3dx9dt:d3dx9fragment.obj
 0002:0000c6bc       ??_C@_0CD@CDABKLEN@iCompiledShader?5?$DM?5cCompiledShade@ 100bc6bc     d3dx9dt:d3dx9fragment.obj
 0002:0000c6e0       ??_C@_0CL@IDGCOEOM@Internal?5error?5compiling?5the?5fra@ 100bc6e0     d3dx9dt:d3dx9fragment.obj
 0002:0000c70c       ??_C@_0CP@GPKPDCEL@There?5was?5an?5error?5compiling?5the@ 100bc70c     d3dx9dt:d3dx9fragment.obj
 0002:0000c73c       ??_C@_0DM@CFMKHOBO@D3DXGatherFragments?3?5No?5fragment@ 100bc73c     d3dx9dt:d3dx9fragment.obj
 0002:0000c778       ??_C@_0N@DHCCEHDH@pCur?5?$CB?$DN?5NULL?$AA@ 100bc778     d3dx9dt:d3dx9fragment.obj
 0002:0000c788       ??_C@_0CD@KHHEFHIK@pVar?9?$DOm_ScopeType?5?$DN?$DN?5D3DXST_GLOB@ 100bc788     d3dx9dt:d3dx9fragment.obj
 0002:0000c7ac       ??_7CNodeAsmInstruction@D3DXShader@@6B@ 100bc7ac     d3dx9dt:cnodeasm.obj
 0002:0000c7bc       ??_7CNodeAsmRegister@D3DXShader@@6B@ 100bc7bc     d3dx9dt:cnodeasm.obj
 0002:0000c7cc       ??_7CBaseProgram@D3DXShader@@6B@ 100bc7cc     d3dx9dt:cbaseprogram.obj
 0002:0000c7d0       ??_C@_0DH@INPNNPBJ@internal?5error?3?5instruction?5size@ 100bc7d0     d3dx9dt:cinstruction.obj
 0002:0000c808       ??_C@_0EK@MFMEOKJM@internal?5error?3?5instruction?5size@ 100bc808     d3dx9dt:cinstruction.obj
 0002:0000c854       ??_7CProgram@D3DXShader@@6B@ 100bc854     d3dx9dt:cprogram.obj
 0002:0000c878       ??_C@_0EI@FFKLHAGD@d?3?2builds?2nt32_chk?2multimedia?2di@ 100bc878     d3dx9dt:cprogram.obj
 0002:0000c8c0       ??_C@_01NBENCBCI@?$CK?$AA@ 100bc8c0     d3dx9dt:cprogram.obj
 0002:0000c8c4       ??_C@_04HGBHCNMC@?$DN?$DN?$CFg?$AA@ 100bc8c4     d3dx9dt:cprogram.obj
 0002:0000c8cc       ??_C@_03MIMAHJPE@?$DN?$CFg?$AA@ 100bc8cc     d3dx9dt:cprogram.obj
 0002:0000c8d0       ??_C@_07GPDIGLGE@?$CFs?$CFu_?$CFu?$AA@ 100bc8d0     d3dx9dt:cprogram.obj
 0002:0000c8d8       ??_C@_03HDCFNBIM@?$CB?$CB?$CB?$AA@ 100bc8d8     d3dx9dt:cprogram.obj
 0002:0000c8dc       ??_C@_02BEIEFPIG@?$CFg?$AA@ 100bc8dc     d3dx9dt:cprogram.obj
 0002:0000c8e0       ??_C@_02KEGNLNML@?0?5?$AA@ 100bc8e0     d3dx9dt:cprogram.obj
 0002:0000c8e4       ??_C@_02HBFAPOIE@?$DN?$CI?$AA@ 100bc8e4     d3dx9dt:cprogram.obj
 0002:0000c8e8       ??_C@_01DCLJPIOD@?$CB?$AA@ 100bc8e8     d3dx9dt:cprogram.obj
 0002:0000c8ec       ??_C@_02HAOIJKIC@?$CFc?$AA@ 100bc8ec     d3dx9dt:cprogram.obj
 0002:0000c8f0       ??_C@_01LFCBOECM@?4?$AA@   100bc8f0     d3dx9dt:cprogram.obj
 0002:0000c8f4       ??_C@_01OHGJGJJP@?$FL?$AA@ 100bc8f4     d3dx9dt:cprogram.obj
 0002:0000c8f8       ??_C@_03DGBLCOLB@_pp?$AA@  100bc8f8     d3dx9dt:cprogram.obj
 0002:0000c8fc       ??_C@_04CFLIKOFM@?$CFs?$CFu?$AA@ 100bc8fc     d3dx9dt:cprogram.obj
 0002:0000c904       ??_C@_04NPFAEOEN@xyzw?$AA@ 100bc904     d3dx9dt:cprogram.obj
 0002:0000c90c       ??_C@_01FJMABOPO@x?$AA@    100bc90c     d3dx9dt:cprogram.obj
 0002:0000c910       ??_C@_0CA@JDHJMLBL@internal?5error?3?5corrupt?5program?$AA@ 100bc910     d3dx9dt:cprogram.obj
 0002:0000c930       ??_C@_0DI@HGIHFNKF@internal?5error?3?5non?9vectorized?5i@ 100bc930     d3dx9dt:cprogram.obj
 0002:0000c968       ??_C@_0DJ@GJPFKIFD@internal?5error?3?5non?9vectorized?5i@ 100bc968     d3dx9dt:cprogram.obj
 0002:0000c9a4       ??_C@_0CJ@BBCNOKBG@internal?5error?3?5duplicate?5argume@ 100bc9a4     d3dx9dt:cprogram.obj
 0002:0000c9d0       ??_C@_0CI@GDHNHJKP@internal?5error?3?5invalid?5componen@ 100bc9d0     d3dx9dt:cprogram.obj
 0002:0000c9f8       ??_C@_0CH@GDIOKEAG@internal?5error?3?5invalid?5register@ 100bc9f8     d3dx9dt:cprogram.obj
 0002:0000ca20       ??_C@_0CO@NOHIDLGN@internal?5error?3?5argument?5was?5nev@ 100bca20     d3dx9dt:cprogram.obj
 0002:0000ca50       ??_C@_0DF@MLHOOIE@internal?5error?3?5cannot?5read?5from@ 100bca50     d3dx9dt:cprogram.obj
 0002:0000ca88       ??_C@_0DE@JKAPFJNC@internal?5error?3?5cannot?5write?5to?5@ 100bca88     d3dx9dt:cprogram.obj
 0002:0000cabc       ??_C@_0DM@ICFJCPAO@internal?5error?3?5output?5argument?5@ 100bcabc     d3dx9dt:cprogram.obj
 0002:0000caf8       ??_C@_0EE@NLBDGOAP@internal?5error?3?5argument?5used?5wi@ 100bcaf8     d3dx9dt:cprogram.obj
 0002:0000cb3c       ??_C@_0DO@MKNNALDC@variable?5?8?$CFs?8?5used?5without?5havin@ 100bcb3c     d3dx9dt:cprogram.obj
 0002:0000cb7c       ??_C@_0DH@JFJOLHLB@internal?5error?3?5cannot?5write?5to?5@ 100bcb7c     d3dx9dt:cprogram.obj
 0002:0000cbb4       ??_C@_0DJ@EEDNOFFN@internal?5error?3?5argument?5written@ 100bcbb4     d3dx9dt:cprogram.obj
 0002:0000cbf0       ??_C@_0DB@OBEHKDAK@internal?5error?3?5invalid?5output?5a@ 100bcbf0     d3dx9dt:cprogram.obj
 0002:0000cc24       ??_C@_0DI@JDJBOGOE@internal?5error?3?5cannot?5read?5from@ 100bcc24     d3dx9dt:cprogram.obj
 0002:0000cc5c       ??_C@_0DA@CJHOJOIB@internal?5error?3?5invalid?5input?5ar@ 100bcc5c     d3dx9dt:cprogram.obj
 0002:0000cc8c       ??_C@_0DN@GMIDKNBA@internal?5error?3?5cannot?5use?5argum@ 100bcc8c     d3dx9dt:cprogram.obj
 0002:0000cccc       ??_C@_0CP@JDAPMLOG@internal?5error?3?5invalid?5address?5@ 100bcccc     d3dx9dt:cprogram.obj
 0002:0000ccfc       ??_C@_0DD@KDKMPKM@internal?5error?3?5cannot?5address?5a@ 100bccfc     d3dx9dt:cprogram.obj
 0002:0000cd30       ??_C@_0CD@OHHBHLJC@internal?5error?3?5invalid?5pool?5?$CIA?$CF@ 100bcd30     d3dx9dt:cprogram.obj
 0002:0000cd54       ??_C@_0DE@FLBKCNOP@internal?5error?3?5duplicate?5instru@ 100bcd54     d3dx9dt:cprogram.obj
 0002:0000cd88       ??_C@_0DB@DHGIAGJB@internal?5error?3?5duplicate?5argume@ 100bcd88     d3dx9dt:cprogram.obj
 0002:0000cdbc       ??_C@_0CN@GAGGNDMN@internal?5error?3?5duplicate?5pool?5p@ 100bcdbc     d3dx9dt:cprogram.obj
 0002:0000cdec       ??_C@_0DC@ONELKKLI@internal?5error?3?5instruction?5miss@ 100bcdec     d3dx9dt:cprogram.obj
 0002:0000ce20       ??_C@_0CH@BDICBGKF@internal?5error?3?5NULL?5instruction@ 100bce20     d3dx9dt:cprogram.obj
 0002:0000ce48       ??_C@_0CE@INHFBHCN@internal?5error?3?5NULL?5argument?5?$CIA@ 100bce48     d3dx9dt:cprogram.obj
 0002:0000ce6c       ??_C@_0CA@IGCJHBII@internal?5error?3?5NULL?5pool?5?$CIP?$CFu?$CJ?$AA@ 100bce6c     d3dx9dt:cprogram.obj
 0002:0000ce90       __real@40effc0000000000    100bce90     d3dx9dt:cprogram.obj
 0002:0000ce98       __real@c0effc0000000000    100bce98     d3dx9dt:cprogram.obj
 0002:0000cea0       ??_C@_0BD@JOAHIBJM@indefinite?5arcsine?$AA@ 100bcea0     d3dx9dt:cprogram.obj
 0002:0000ceb4       ??_C@_0BF@HOKJACDH@indefinite?5arccosine?$AA@ 100bceb4     d3dx9dt:cprogram.obj
 0002:0000cecc       ??_C@_0BF@DODCNEOM@indefinite?5logarithm?$AA@ 100bcecc     d3dx9dt:cprogram.obj
 0002:0000cee4       ??_C@_0BG@BHCABPPD@imaginary?5square?5root?$AA@ 100bcee4     d3dx9dt:cprogram.obj
 0002:0000cefc       ??_C@_0BB@OMEBCKB@division?5by?5zero?$AA@ 100bcefc     d3dx9dt:cprogram.obj
 0002:0000cf10       ??_C@_0BH@NJNMIAPK@expression?5too?5complex?$AA@ 100bcf10     d3dx9dt:cprogram.obj
 0002:0000cf28       ??_C@_02GMHACPFF@?$CFu?$AA@ 100bcf28     d3dx9dt:cprogram.obj
 0002:0000cf2c       ??_C@_07JBKIGMPF@texCUBE?$AA@ 100bcf2c     d3dx9dt:cprogram.obj
 0002:0000cf34       ??_C@_0L@HPGLGMHA@texCUBE_dd?$AA@ 100bcf34     d3dx9dt:cprogram.obj
 0002:0000cf40       ??_C@_0N@FHLABNNP@texCUBE_proj?$AA@ 100bcf40     d3dx9dt:cprogram.obj
 0002:0000cf50       ??_C@_0L@EJFPJKF@tex3D_proj?$AA@ 100bcf50     d3dx9dt:cprogram.obj
 0002:0000cf5c       ??_C@_08MKNFMDJP@tex2D_dd?$AA@ 100bcf5c     d3dx9dt:cprogram.obj
 0002:0000cf68       ??_C@_0L@MIDPPJDL@tex2D_proj?$AA@ 100bcf68     d3dx9dt:cprogram.obj
 0002:0000cf74       ??_C@_05JDOPLAAN@tex3D?$AA@ 100bcf74     d3dx9dt:cprogram.obj
 0002:0000cf7c       ??_C@_08BIJBADK@tex3D_dd?$AA@ 100bcf7c     d3dx9dt:cprogram.obj
 0002:0000cf88       ??_C@_05JCCNNKDK@tex2D?$AA@ 100bcf88     d3dx9dt:cprogram.obj
 0002:0000cf90       ??_C@_05GPLCCBII@noise?$AA@ 100bcf90     d3dx9dt:cprogram.obj
 0002:0000cf98       ??_C@_05JAGLGEGD@tex1D?$AA@ 100bcf98     d3dx9dt:cprogram.obj
 0002:0000cfa0       ??_C@_08EMEBLBDB@tex1D_dd?$AA@ 100bcfa0     d3dx9dt:cprogram.obj
 0002:0000cfac       ??_C@_0L@EGLAPONI@tex1D_proj?$AA@ 100bcfac     d3dx9dt:cprogram.obj
 0002:0000cfb8       ??_C@_04POIGMEJN@clip?$AA@ 100bcfb8     d3dx9dt:cprogram.obj
 0002:0000cfc0       ??_C@_05KNGEOGJB@atan2?$AA@ 100bcfc0     d3dx9dt:cprogram.obj
 0002:0000cfc8       ??_C@_03GCCHHAFI@dot?$AA@  100bcfc8     d3dx9dt:cprogram.obj
 0002:0000cfcc       ??_C@_04PDIFKINK@acos?$AA@ 100bcfcc     d3dx9dt:cprogram.obj
 0002:0000cfd4       ??_C@_04MLLJIGOK@atan?$AA@ 100bcfd4     d3dx9dt:cprogram.obj
 0002:0000cfdc       ??_C@_04FIHNOPOL@asin?$AA@ 100bcfdc     d3dx9dt:cprogram.obj
 0002:0000cfe4       ??_C@_04EIAKFFMI@sqrt?$AA@ 100bcfe4     d3dx9dt:cprogram.obj
 0002:0000cfec       ??_C@_03BLEJJJBH@sin?$AA@  100bcfec     d3dx9dt:cprogram.obj
 0002:0000cff0       ??_C@_03LALBNOCG@cos?$AA@  100bcff0     d3dx9dt:cprogram.obj
 0002:0000cff4       ??_C@_03GBOCFEHI@neg?$AA@  100bcff4     d3dx9dt:cprogram.obj
 0002:0000cff8       ??_C@_06MEKIIEOA@?$CF?43u?3?5?$AA@ 100bcff8     d3dx9dt:cprogram.obj
 0002:0000d000       ??_C@_05DLBHCFPD@?9?9?9?9?5?$AA@ 100bd000     d3dx9dt:cprogram.obj
 0002:0000d008       ??_C@_06DNGKEBJN@?$CF0?44u?5?$AA@ 100bd008     d3dx9dt:cprogram.obj
 0002:0000d010       ??_C@_03JDANDILB@?$CFd?5?$AA@ 100bd010     d3dx9dt:cprogram.obj
 0002:0000d014       ??_C@_0DA@DNEFJGPN@internal?5warning?3?5optimization?5d@ 100bd014     d3dx9dt:cprogram.obj
 0002:00010320       ??_C@_0BB@MBPKLAMF@D3DCOLORtoUBYTE4?$AA@ 100c0320     d3dx9dt:cparse.obj
 0002:00010334       ??_C@_09KDFGPPLL@transpose?$AA@ 100c0334     d3dx9dt:cparse.obj
 0002:00010340       ??_C@_0M@PJHIFGGE@texCUBEbias?$AA@ 100c0340     d3dx9dt:cparse.obj
 0002:0001034c       ??_C@_0M@PFNOMGAK@texCUBEproj?$AA@ 100c034c     d3dx9dt:cparse.obj
 0002:00010358       ??_C@_09GPAPBMJG@tex3Dbias?$AA@ 100c0358     d3dx9dt:cparse.obj
 0002:00010364       ??_C@_09GDKJIMPI@tex3Dproj?$AA@ 100c0364     d3dx9dt:cparse.obj
 0002:00010370       ??_C@_09MJHIBHCC@tex2Dbias?$AA@ 100c0370     d3dx9dt:cparse.obj
 0002:0001037c       ??_C@_09MFNOIHEM@tex2Dproj?$AA@ 100c037c     d3dx9dt:cparse.obj
 0002:00010388       ??_C@_09PIJAANLP@tex1Dbias?$AA@ 100c0388     d3dx9dt:cparse.obj
 0002:00010394       ??_C@_09PEDGJNNB@tex1Dproj?$AA@ 100c0394     d3dx9dt:cparse.obj
 0002:000103a0       ??_C@_04FJHINJAO@tanh?$AA@ 100c03a0     d3dx9dt:cparse.obj
 0002:000103a8       ??_C@_03IIINPABG@tan?$AA@  100c03a8     d3dx9dt:cparse.obj
 0002:000103ac       ??_C@_04CNBNFAL@step?$AA@  100c03ac     d3dx9dt:cparse.obj
 0002:000103b4       ??_C@_0L@JKDMKNKF@smoothstep?$AA@ 100c03b4     d3dx9dt:cparse.obj
 0002:000103c0       ??_C@_04COOMCNPB@sinh?$AA@ 100c03c0     d3dx9dt:cparse.obj
 0002:000103c8       ??_C@_04HHGHLBPI@sign?$AA@ 100c03c8     d3dx9dt:cparse.obj
 0002:000103d0       ??_C@_08MEKLKAIJ@saturate?$AA@ 100c03d0     d3dx9dt:cparse.obj
 0002:000103dc       ??_C@_05HJAAKPLM@rsqrt?$AA@ 100c03dc     d3dx9dt:cparse.obj
 0002:000103e4       ??_C@_05MIMAKCN@round?$AA@ 100c03e4     d3dx9dt:cparse.obj
 0002:000103ec       ??_C@_02ODPEEKDN@ri?$AA@   100c03ec     d3dx9dt:cparse.obj
 0002:000103f0       ??_C@_07HCMBNDDM@refract?$AA@ 100c03f0     d3dx9dt:cparse.obj
 0002:000103f8       ??_C@_01EFFIKLCJ@n?$AA@    100c03f8     d3dx9dt:cparse.obj
 0002:000103fc       ??_C@_07CCHDGNII@reflect?$AA@ 100c03fc     d3dx9dt:cparse.obj
 0002:00010404       ??_C@_07JLOPPFCD@radians?$AA@ 100c0404     d3dx9dt:cparse.obj
 0002:0001040c       ??_C@_09MMDNNKKJ@normalize?$AA@ 100c040c     d3dx9dt:cparse.obj
 0002:00010418       ??_C@_02GIIHKPLE@ip?$AA@   100c0418     d3dx9dt:cparse.obj
 0002:0001041c       ??_C@_04EHEDPDJG@modf?$AA@ 100c041c     d3dx9dt:cparse.obj
 0002:00010424       ??_C@_04KGLCPMCP@log2?$AA@ 100c0424     d3dx9dt:cparse.obj
 0002:0001042c       ??_C@_05HGHHAHAP@log10?$AA@ 100c042c     d3dx9dt:cparse.obj
 0002:00010434       ??_C@_01GOHFPIOK@m?$AA@    100c0434     d3dx9dt:cparse.obj
 0002:00010438       ??_C@_01BDACAMKP@h?$AA@    100c0438     d3dx9dt:cparse.obj
 0002:0001043c       ??_C@_04BBKNFAFH@lerp?$AA@ 100c043c     d3dx9dt:cparse.obj
 0002:00010444       ??_C@_06IJDLPEM@length?$AA@ 100c0444     d3dx9dt:cparse.obj
 0002:0001044c       ??_C@_05CEJMAHNP@ldexp?$AA@ 100c044c     d3dx9dt:cparse.obj
 0002:00010454       ??_C@_05LGCGPNNP@isnan?$AA@ 100c0454     d3dx9dt:cparse.obj
 0002:0001045c       ??_C@_05OIHEAIFD@isinf?$AA@ 100c045c     d3dx9dt:cparse.obj
 0002:00010464       ??_C@_08CHCKEDFL@isfinite?$AA@ 100c0464     d3dx9dt:cparse.obj
 0002:00010470       ??_C@_05GKKHEGJL@frexp?$AA@ 100c0470     d3dx9dt:cparse.obj
 0002:00010478       ??_C@_04OJFMHLGL@frac?$AA@ 100c0478     d3dx9dt:cparse.obj
 0002:00010480       ??_C@_04KEPJIHGP@fmod?$AA@ 100c0480     d3dx9dt:cparse.obj
 0002:00010488       ??_C@_05PBJFFIGL@floor?$AA@ 100c0488     d3dx9dt:cparse.obj
 0002:00010490       ??_C@_02FAAGHLEH@Ng?$AA@   100c0490     d3dx9dt:cparse.obj
 0002:00010494       ??_C@_01JPJNBJEM@I?$AA@    100c0494     d3dx9dt:cparse.obj
 0002:00010498       ??_C@_01NANMIPIL@N?$AA@    100c0498     d3dx9dt:cparse.obj
 0002:0001049c       ??_C@_0M@ENCHEFMG@faceforward?$AA@ 100c049c     d3dx9dt:cparse.obj
 0002:000104a8       ??_C@_04HPAFEEIN@exp2?$AA@ 100c04a8     d3dx9dt:cparse.obj
 0002:000104b0       ??_C@_08LHFODBFO@distance?$AA@ 100c04b0     d3dx9dt:cparse.obj
 0002:000104bc       ??_C@_0M@OAMGFDFM@determinant?$AA@ 100c04bc     d3dx9dt:cparse.obj
 0002:000104c8       ??_C@_07MHOHEFBH@degrees?$AA@ 100c04c8     d3dx9dt:cparse.obj
 0002:000104d0       ??_C@_05HCKPILGO@cross?$AA@ 100c04d0     d3dx9dt:cparse.obj
 0002:000104d8       ??_C@_04HPJJNFIM@cosh?$AA@ 100c04d8     d3dx9dt:cparse.obj
 0002:000104e0       ??_C@_05HADFAIAH@clamp?$AA@ 100c04e0     d3dx9dt:cparse.obj
 0002:000104e8       ??_C@_04GFPJNGEK@ceil?$AA@ 100c04e8     d3dx9dt:cparse.obj
 0002:000104f0       ??_C@_01EANLCPLP@y?$AA@    100c04f0     d3dx9dt:cparse.obj
 0002:000104f4       ??_C@_03OBJFJEBA@any?$AA@  100c04f4     d3dx9dt:cparse.obj
 0002:000104f8       ??_C@_03NFKEKGGK@all?$AA@  100c04f8     d3dx9dt:cparse.obj
 0002:000104fc       ??_C@_0BM@CCMPPEFL@syntax?5error?3?5unexpected?5?$CFs?$AA@ 100c04fc     d3dx9dt:cparse.obj
 0002:00010518       ??_C@_0BB@CPHEBMNK@integer?5constant?$AA@ 100c0518     d3dx9dt:cparse.obj
 0002:0001052c       ??_C@_0P@MJNKLFLA@float?5constant?$AA@ 100c052c     d3dx9dt:cparse.obj
 0002:0001053c       ??_C@_0CD@POFJJNAP@internal?5error?3?5production?5faile@ 100c053c     d3dx9dt:cparse.obj
 0002:00010560       ??_C@_0CA@NOFOHEHH@internal?5error?3?5scope?5underflow?$AA@ 100c0560     d3dx9dt:cparse.obj
 0002:00010580       ??_C@_0CG@FICPNKBH@redefinition?5of?5formal?5parameter@ 100c0580     d3dx9dt:cparse.obj
 0002:000105a8       ??_C@_0BF@IFLPIDJI@redefinition?5of?5?8?$CFs?8?$AA@ 100c05a8     d3dx9dt:cparse.obj
 0002:000105c0       ??_C@_05FGNDKHGN@Stmts?$AA@ 100c05c0     d3dx9dt:cparse.obj
 0002:000105c8       ??_C@_0BO@BDHEIAIP@internal?5error?3?5scope?5missing?$AA@ 100c05c8     d3dx9dt:cparse.obj
 0002:000105e8       ??_C@_0BL@FJMIGKBB@duplicate?5usages?5specified?$AA@ 100c05e8     d3dx9dt:cparse.obj
 0002:00010604       ??_C@_0BP@OFCJNHOA@D3DXNT_USAGE?5?$DN?$DN?5pNodeB?9?$DOm_Type?$AA@ 100c0604     d3dx9dt:cparse.obj
 0002:00010628       ??_C@_0EG@PIAEKFBM@d?3?2builds?2nt32_chk?2multimedia?2di@ 100c0628     d3dx9dt:cparse.obj
 0002:00010670       ??_C@_0BP@OBOGMOD@D3DXNT_USAGE?5?$DN?$DN?5pNodeA?9?$DOm_Type?$AA@ 100c0670     d3dx9dt:cparse.obj
 0002:00010690       ??_C@_0N@FECBENFF@?$CFsstruct?$HL?$CFu?$HN?$AA@ 100c0690     d3dx9dt:cparse.obj
 0002:000106a0       ??_C@_04LMNNCAJG@?$FL?$CFu?$FN?$AA@ 100c06a0     d3dx9dt:cparse.obj
 0002:000106a8       ??_C@_06GOMFOPGL@?$CFs?$CFs?$CFu?$AA@ 100c06a8     d3dx9dt:cparse.obj
 0002:000106b0       ??_C@_09LECPHMHI@?$CFs?$CFs?$CFux?$CFu?$AA@ 100c06b0     d3dx9dt:cparse.obj
 0002:000106bc       ??_C@_04GKJNKENE@void?$AA@ 100c06bc     d3dx9dt:cparse.obj
 0002:000107b0       ??_C@_0DB@HKFECFED@object?5literals?5are?5not?5allowed?5@ 100c07b0     d3dx9dt:cparse.obj
 0002:000107e4       ??_C@_0P@NNEAODJC@float?5expected?$AA@ 100c07e4     d3dx9dt:cparse.obj
 0002:000107f4       ??_C@_04FGIJFGAG@?$CFu?$CFs?$AA@ 100c07f4     d3dx9dt:cparse.obj
 0002:000107fc       ??_C@_06KLBDMJOP@Values?$AA@ 100c07fc     d3dx9dt:cparse.obj
 0002:00010804       ??_C@_05OHGKKOIH@Decls?$AA@ 100c0804     d3dx9dt:cparse.obj
 0002:00010810       ??_C@_0EC@BKDEPCGH@non?9matrix?5types?5cannot?5be?5decla@ 100c0810     d3dx9dt:cparse.obj
 0002:00010854       ??_C@_0CJ@LMNNJNCG@?8?$CFs?8?3?5cannot?5?$CFsconvert?5from?5?8?$CFs?8@ 100c0854     d3dx9dt:cparse.obj
 0002:00010880       ??_C@_0CD@IAJDPNBL@cannot?5?$CFsconvert?5from?5?8?$CFs?8?5to?5?8?$CF@ 100c0880     d3dx9dt:cparse.obj
 0002:000108a4       ??_C@_0M@PIIIJKN@implicitly?5?$AA@ 100c08a4     d3dx9dt:cparse.obj
 0002:000108b0       ??_C@_05LPIJGKJ@Value?$AA@ 100c08b0     d3dx9dt:cparse.obj
 0002:000108b8       ??_C@_05MNBBFGB@Types?$AA@ 100c08b8     d3dx9dt:cparse.obj
 0002:000108c0       ??_C@_07KJOHHBLE@Swizzle?$AA@ 100c08c0     d3dx9dt:cparse.obj
 0002:000108c8       ??_C@_0BH@NLGNCEAC@invalid?5subscript?5?8?$CFs?8?$AA@ 100c08c8     d3dx9dt:cparse.obj
 0002:000108e0       ??_C@_09BHNABIJN@UsageType?$AA@ 100c08e0     d3dx9dt:cparse.obj
 0002:000108ec       ??_C@_0BB@IGEFMELK@indefinite?5power?$AA@ 100c08ec     d3dx9dt:cparse.obj
 0002:00010900       ??_C@_0BI@NBDDNAKJ@infinite?1indefinite?5log?$AA@ 100c0900     d3dx9dt:cparse.obj
 0002:00010918       ??_C@_0BA@JKBOHPGE@indefinite?5asin?$AA@ 100c0918     d3dx9dt:cparse.obj
 0002:00010928       ??_C@_0BA@DBOGDIFF@indefinite?5acos?$AA@ 100c0928     d3dx9dt:cparse.obj
 0002:00010938       ??_C@_04BBDAIEHH@pass?$AA@ 100c0938     d3dx9dt:cparse.obj
 0002:00010940       ??_C@_09IDNELGEE@techinque?$AA@ 100c0940     d3dx9dt:cparse.obj
 0002:0001094c       ??_C@_08HFFPPCHF@function?$AA@ 100c094c     d3dx9dt:cparse.obj
 0002:00010958       ??_C@_08LODIKCGI@variable?$AA@ 100c0958     d3dx9dt:cparse.obj
 0002:00010964       ??_C@_04GPMDFGEJ@type?$AA@ 100c0964     d3dx9dt:cparse.obj
 0002:0001096c       ??_C@_0BL@IPAJHPPO@undeclared?5identifier?5?8?$CFs?8?$AA@ 100c096c     d3dx9dt:cparse.obj
 0002:00010988       ??_C@_05KDALNKAH@dword?$AA@ 100c0988     d3dx9dt:cparse.obj
 0002:00010990       ??_C@_0CL@KELEHCEJ@?8?$CFs?8?3?5identifier?5represents?5a?5?$CFs@ 100c0990     d3dx9dt:cparse.obj
 0002:000109d0       ??_C@_0BO@GDHIOAFG@?8?$CFs?8?3?5ambiguous?5function?5call?$AA@ 100c09d0     d3dx9dt:cparse.obj
 0002:000109f0       ??_C@_0IO@GOIFJIBG@?8?$CFs?8?3?5loop?5control?5variable?5used@ 100c09f0     d3dx9dt:cparse.obj
 0002:00010a80       ??_C@_0DK@EPICAKA@incorrect?5number?5of?5arguments?5to@ 100c0a80     d3dx9dt:cparse.obj
 0002:00010abc       ??_C@_0DE@EFOFNFMB@cannot?5convert?5from?5?8object?5type@ 100c0abc     d3dx9dt:cparse.obj
 0002:00010af0       ??_C@_0DB@DICCANKG@constructors?5only?5defined?5for?5nu@ 100c0af0     d3dx9dt:cparse.obj
 0002:00010b24       ??_C@_0CO@PNHNCEPC@dimension?5of?5conditional?5does?5no@ 100c0b24     d3dx9dt:cparse.obj
 0002:00010b54       ??_C@_0CJ@MAPINAOL@type?5mismatch?5between?5conditiona@ 100c0b54     d3dx9dt:cparse.obj
 0002:00010b80       ??_C@_0BM@PCCAHMPM@conditional?5must?5be?5numeric?$AA@ 100c0b80     d3dx9dt:cparse.obj
 0002:00010b9c       ??_C@_03NLMFHDGG@asm?$AA@  100c0b9c     d3dx9dt:cparse.obj
 0002:00010ba0       ??_C@_04NKEOIPIM@decl?$AA@ 100c0ba0     d3dx9dt:cparse.obj
 0002:00010ba8       ??_C@_05OODBEKIG@while?$AA@ 100c0ba8     d3dx9dt:cparse.obj
 0002:00010bb0       ??_C@_07HIMIIOGA@virtual?$AA@ 100c0bb0     d3dx9dt:cparse.obj
 0002:00010bb8       ??_C@_05IFHLPLPC@using?$AA@ 100c0bb8     d3dx9dt:cparse.obj
 0002:00010bc0       ??_C@_08CLLOMHGD@unsigned?$AA@ 100c0bc0     d3dx9dt:cparse.obj
 0002:00010bcc       ??_C@_05MNALHJLP@union?$AA@ 100c0bcc     d3dx9dt:cparse.obj
 0002:00010bd4       ??_C@_08EOOKCDCK@typename?$AA@ 100c0bd4     d3dx9dt:cparse.obj
 0002:00010be0       ??_C@_07FIDIHKEG@typedef?$AA@ 100c0be0     d3dx9dt:cparse.obj
 0002:00010be8       ??_C@_03JDGOGJKJ@try?$AA@  100c0be8     d3dx9dt:cparse.obj
 0002:00010bec       ??_C@_05JFAPCGDM@throw?$AA@ 100c0bec     d3dx9dt:cparse.obj
 0002:00010bf4       ??_C@_04IIAJELJL@this?$AA@ 100c0bf4     d3dx9dt:cparse.obj
 0002:00010bfc       ??_C@_08FJNLKCPH@template?$AA@ 100c0bfc     d3dx9dt:cparse.obj
 0002:00010c08       ??_C@_06DOPOGBGP@switch?$AA@ 100c0c08     d3dx9dt:cparse.obj
 0002:00010c10       ??_C@_06PBJBIPGK@struct?$AA@ 100c0c10     d3dx9dt:cparse.obj
 0002:00010c18       ??_C@_0M@MCKBBGLI@static_cast?$AA@ 100c0c18     d3dx9dt:cparse.obj
 0002:00010c24       ??_C@_06FPFOALMG@sizeof?$AA@ 100c0c24     d3dx9dt:cparse.obj
 0002:00010c2c       ??_C@_06CPIODIKA@signed?$AA@ 100c0c2c     d3dx9dt:cparse.obj
 0002:00010c34       ??_C@_06HBFNPGIC@shared?$AA@ 100c0c34     d3dx9dt:cparse.obj
 0002:00010c3c       ??_C@_0O@IMDLPFKG@sampler_state?$AA@ 100c0c3c     d3dx9dt:cparse.obj
 0002:00010c4c       ??_C@_06LNOFJDNM@return?$AA@ 100c0c4c     d3dx9dt:cparse.obj
 0002:00010c54       ??_C@_0BB@MPHMBHHE@reinterpret_cast?$AA@ 100c0c54     d3dx9dt:cparse.obj
 0002:00010c68       ??_C@_08DHHIDNEP@register?$AA@ 100c0c68     d3dx9dt:cparse.obj
 0002:00010c74       ??_C@_06EOMAMIIF@public?$AA@ 100c0c74     d3dx9dt:cparse.obj
 0002:00010c7c       ??_C@_09IPOLMLK@protected?$AA@ 100c0c7c     d3dx9dt:cparse.obj
 0002:00010c88       ??_C@_07NMPLPEPB@private?$AA@ 100c0c88     d3dx9dt:cparse.obj
 0002:00010c90       ??_C@_08LHJFAFGD@operator?$AA@ 100c0c90     d3dx9dt:cparse.obj
 0002:00010c9c       ??_C@_03CLCAEGCJ@new?$AA@  100c0c9c     d3dx9dt:cparse.obj
 0002:00010ca0       ??_C@_09KPMGAFNI@namespace?$AA@ 100c0ca0     d3dx9dt:cparse.obj
 0002:00010cac       ??_C@_07JDOKOJHE@mutable?$AA@ 100c0cac     d3dx9dt:cparse.obj
 0002:00010cb4       ??_C@_04GOKPGOLB@long?$AA@ 100c0cb4     d3dx9dt:cparse.obj
 0002:00010cbc       ??_C@_05DNOIDIPO@inout?$AA@ 100c0cbc     d3dx9dt:cparse.obj
 0002:00010cc4       ??_C@_06OGMBMJA@inline?$AA@ 100c0cc4     d3dx9dt:cparse.obj
 0002:00010ccc       ??_C@_04MABHPDAO@goto?$AA@ 100c0ccc     d3dx9dt:cparse.obj
 0002:00010cd4       ??_C@_06BHBNKPBA@friend?$AA@ 100c0cd4     d3dx9dt:cparse.obj
 0002:00010cdc       ??_C@_03JOHEBPFF@for?$AA@  100c0cdc     d3dx9dt:cparse.obj
 0002:00010ce0       ??_C@_08FCANLLBJ@explicit?$AA@ 100c0ce0     d3dx9dt:cparse.obj
 0002:00010cec       ??_C@_04DBJPMPLO@enum?$AA@ 100c0cec     d3dx9dt:cparse.obj
 0002:00010cf4       ??_C@_09CMPBFKOM@technique?$AA@ 100c0cf4     d3dx9dt:cparse.obj
 0002:00010d00       ??_C@_0N@NOEHKGJJ@dynamic_cast?$AA@ 100c0d00     d3dx9dt:cparse.obj
 0002:00010d10       ??_C@_02KNAFDCHJ@do?$AA@   100c0d10     d3dx9dt:cparse.obj
 0002:00010d14       ??_C@_06FOBLBEIN@delete?$AA@ 100c0d14     d3dx9dt:cparse.obj
 0002:00010d1c       ??_C@_08DLICDMBN@continue?$AA@ 100c0d1c     d3dx9dt:cparse.obj
 0002:00010d28       ??_C@_0L@GOMPJEII@const_cast?$AA@ 100c0d28     d3dx9dt:cparse.obj
 0002:00010d34       ??_C@_05BNCCCJPP@const?$AA@ 100c0d34     d3dx9dt:cparse.obj
 0002:00010d3c       ??_C@_0BB@KFEFICDK@compile_fragment?$AA@ 100c0d3c     d3dx9dt:cparse.obj
 0002:00010d50       ??_C@_05ENKANFLO@class?$AA@ 100c0d50     d3dx9dt:cparse.obj
 0002:00010d58       ??_C@_05GHOHNOEI@catch?$AA@ 100c0d58     d3dx9dt:cparse.obj
 0002:00010d60       ??_C@_04CKOINMPC@case?$AA@ 100c0d60     d3dx9dt:cparse.obj
 0002:00010d68       ??_C@_0N@DOBJBHDN@asm_fragment?$AA@ 100c0d68     d3dx9dt:cparse.obj
 0002:00010d78       ??_C@_04HAPDLBFF@auto?$AA@ 100c0d78     d3dx9dt:cparse.obj
 0002:00010d80       ??_C@_0DD@GIMEPL@?8?$CFs?8?3?5function?5return?5value?5diff@ 100c0d80     d3dx9dt:cparse.obj
 0002:00010db4       ??_C@_0CL@FJOFHDDJ@?8?$CFs?8?3?5void?5function?5cannot?5have?5@ 100c0db4     d3dx9dt:cparse.obj
 0002:00010de0       ??_C@_0CP@EIFHKBFD@?8?$CFs?8?3?5missing?5default?5value?5for?5@ 100c0de0     d3dx9dt:cparse.obj
 0002:00010e10       ??_C@_0CM@FAOCBIPP@?8?$CFs?8?3?5function?5return?5value?5must@ 100c0e10     d3dx9dt:cparse.obj
 0002:00010e3c       ??_C@_0CM@ENNDGELH@?8?$CFs?8?3?5functions?5cannot?5be?5declar@ 100c0e3c     d3dx9dt:cparse.obj
 0002:00010e68       ??_C@_0CN@OGLGABFB@?8?$CFs?8?3?5functions?5cannot?5be?5declar@ 100c0e68     d3dx9dt:cparse.obj
 0002:00010e98       ??_C@_0DK@MKCNJMOE@?8?$CFs?8?3?5array?5dimensions?5must?5be?5l@ 100c0e98     d3dx9dt:cparse.obj
 0002:00010ed4       ??_C@_0DA@BIHDIFPB@?8?$CFs?8?3?5array?5dimensions?5of?5type?5m@ 100c0ed4     d3dx9dt:cparse.obj
 0002:00010f04       ??_C@_0DC@LBNKEGFN@?8?$CFs?8?3?5array?5dimension?5must?5be?5be@ 100c0f04     d3dx9dt:cparse.obj
 0002:00010f38       ??_C@_03HDGLHOJN@Ids?$AA@  100c0f38     d3dx9dt:cparse.obj
 0002:00010f3c       ??_C@_0CK@MIGIDDBH@vector?5dimension?5must?5be?5between@ 100c0f3c     d3dx9dt:cparse.obj
 0002:00010f68       ??_C@_0DF@IAGBKDIH@vector?5dimension?5must?5be?5a?5liter@ 100c0f68     d3dx9dt:cparse.obj
 0002:00010fa0       ??_C@_0DF@EPOAMOMG@matrix?5dimensions?5must?5be?5litera@ 100c0fa0     d3dx9dt:cparse.obj
 0002:00010fd8       ??_C@_0CL@GAMNKEIG@matrix?5dimensions?5must?5be?5betwee@ 100c0fd8     d3dx9dt:cparse.obj
 0002:00011004       ??_C@_0DE@HOILKPGH@array?5dimensions?5must?5be?5literal@ 100c1004     d3dx9dt:cparse.obj
 0002:00011038       ??_C@_0P@NDNHAOMH@array?5expected?$AA@ 100c1038     d3dx9dt:cparse.obj
 0002:00011048       ??_C@_0BA@MBIEMEJG@scalar?5expected?$AA@ 100c1048     d3dx9dt:cparse.obj
 0002:00011058       ??_C@_0BP@HHJDMOHN@l?9value?5specifies?5const?5object?$AA@ 100c1058     d3dx9dt:cparse.obj
 0002:00011078       ??_C@_0O@GKKICOF@type?5mismatch?$AA@ 100c1078     d3dx9dt:cparse.obj
 0002:00011088       ??_C@_0DE@NPCAMLPK@object?5assignments?5are?5not?5allow@ 100c1088     d3dx9dt:cparse.obj
 0002:000110bc       ??_C@_0CD@PPPKGAEM@scalar?0?5vector?0?5or?5matrix?5expect@ 100c10bc     d3dx9dt:cparse.obj
 0002:000110e0       ??_C@_0CL@LMCBEPBM@?8?$CFs?8?3?5void?5functions?5cannot?5retu@ 100c10e0     d3dx9dt:cparse.obj
 0002:0001110c       ??_C@_0DC@GGAOOIHO@?8?$CFs?8?3?5secondary?5array?5dimensions@ 100c110c     d3dx9dt:cparse.obj
 0002:00011140       ??_C@_0CB@JGBOHIAG@?8?$CFs?8?3?5?$CFs?5cannot?5have?5annotations@ 100c1140     d3dx9dt:cparse.obj
 0002:00011164       ??_C@_0BP@PBFMJIMC@?8?$CFs?8?3?5?$CFs?5cannot?5have?5semantics?$AA@ 100c1164     d3dx9dt:cparse.obj
 0002:00011184       ??_C@_0BB@PPPIEAD@?8?$CFs?8?3?5missing?5?$CFs?$AA@ 100c1184     d3dx9dt:cparse.obj
 0002:00011198       ??_C@_0CG@PNMNOGDI@?8?$CFs?8?3?5?$CFs?5must?5be?5a?5literal?5expre@ 100c1198     d3dx9dt:cparse.obj
 0002:000111c0       ??_C@_0CF@MIFPKOMN@?8?$CFs?8?3?5output?5only?5?$CFs?5cannot?5have@ 100c11c0     d3dx9dt:cparse.obj
 0002:000111e8       ??_C@_0CN@HFKCEGJ@?8?$CFs?8?3?5non?9numeric?5uniform?5?$CFs?5can@ 100c11e8     d3dx9dt:cparse.obj
 0002:00011218       ??_C@_0BJ@NKGMKBKC@?8?$CFs?8?3?5?$CFs?5cannot?5have?5?$CFss?$AA@ 100c1218     d3dx9dt:cparse.obj
 0002:00011234       ??_C@_0CF@GOKEKNHP@?8?$CFs?8?3?5?$CFs?5cannot?5be?5declared?5?8sha@ 100c1234     d3dx9dt:cparse.obj
 0002:0001125c       ??_C@_0CH@KHGNJANK@?8?$CFs?8?3?5?$CFs?5cannot?5be?5declared?5?8vol@ 100c125c     d3dx9dt:cparse.obj
 0002:00011284       ??_C@_0CF@PCCMDLFH@?8?$CFs?8?3?5?$CFs?5cannot?5be?5declared?5?8ext@ 100c1284     d3dx9dt:cparse.obj
 0002:000112ac       ??_C@_0CK@DMEBOAFB@?8?$CFs?8?3?5?$CFs?5cannot?5be?5declared?5?8uni@ 100c12ac     d3dx9dt:cparse.obj
 0002:000112d8       ??_C@_0CG@EGADBMHG@?8?$CFs?8?3?5?$CFs?5cannot?5be?5declared?5?8uni@ 100c12d8     d3dx9dt:cparse.obj
 0002:00011300       ??_C@_0CF@OADAHFI@?8?$CFs?8?3?5?$CFs?5cannot?5be?5declared?5?8sta@ 100c1300     d3dx9dt:cparse.obj
 0002:00011328       ??_C@_0CN@FPPILMNN@?8?$CFs?8?3?5uniform?5?$CFs?5cannot?5be?5decla@ 100c1328     d3dx9dt:cparse.obj
 0002:00011358       ??_C@_0CM@HMIMHMFK@?8?$CFs?8?3?5extern?5?$CFs?5cannot?5be?5declar@ 100c1358     d3dx9dt:cparse.obj
 0002:00011384       ??_C@_0BJ@OLKMDEJF@?8?$CFs?8?3?5?$CFs?5must?5be?5numeric?$AA@ 100c1384     d3dx9dt:cparse.obj
 0002:000113a0       ??_C@_0DD@LEDFAGC@?8?$CFs?8?3?5output?5paramaters?5cannot?5b@ 100c13a0     d3dx9dt:cparse.obj
 0002:000113d4       ??_C@_0CE@OMCGKELP@?8?$CFs?8?3?5?$CFs?5cannot?5be?5declared?5?8con@ 100c13d4     d3dx9dt:cparse.obj
 0002:000113f8       ??_C@_0CF@JNGCONNN@?8?$CFs?8?3?5?$CFs?5cannot?5be?5declared?5?8inl@ 100c13f8     d3dx9dt:cparse.obj
 0002:00011420       ??_C@_0CD@BDIGOPGH@?8?$CFs?8?3?5?$CFs?5cannot?5be?5target?5specif@ 100c1420     d3dx9dt:cparse.obj
 0002:00011444       ??_C@_0CA@BJLICIBM@?8?$CFs?8?3?5implicit?5array?5missing?5?$CFs?$AA@ 100c1444     d3dx9dt:cparse.obj
 0002:00011464       ??_C@_0CM@PLPAFLMK@?8?$CFs?8?3?5implicit?5array?5type?5does?5n@ 100c1464     d3dx9dt:cparse.obj
 0002:00011490       ??_C@_0CO@NPIJIGJP@?8?$CFs?8?3?5array?5dimensions?5of?5?$CFs?5mus@ 100c1490     d3dx9dt:cparse.obj
 0002:000114c0       ??_C@_05MFEJDJP@value?$AA@ 100c14c0     d3dx9dt:cparse.obj
 0002:000114c8       ??_C@_0O@PBCFDIAO@default?5value?$AA@ 100c14c8     d3dx9dt:cparse.obj
 0002:000114d8       ??_C@_0M@ONCIBLMP@initializer?$AA@ 100c14d8     d3dx9dt:cparse.obj
 0002:000114e4       ??_C@_0BD@KEMFIJDG@annotation?5members?$AA@ 100c14e4     d3dx9dt:cparse.obj
 0002:000114f8       ??_C@_0BH@CNJLEAGK@loop?5control?5variables?$AA@ 100c14f8     d3dx9dt:cparse.obj
 0002:00011510       ??_C@_0BA@EIDMAHJI@local?5variables?$AA@ 100c1510     d3dx9dt:cparse.obj
 0002:00011520       ??_C@_0BE@CJCAHKIM@function?5parameters?$AA@ 100c1520     d3dx9dt:cparse.obj
 0002:00011534       ??_C@_0BC@HOKFPBGD@structure?5members?$AA@ 100c1534     d3dx9dt:cparse.obj
 0002:00011548       ??_C@_0BB@KDBAHHED@global?5variables?$AA@ 100c1548     d3dx9dt:cparse.obj
 0002:0001155c       ??_C@_0O@GPKAKMKB@initial?5value?$AA@ 100c155c     d3dx9dt:cparse.obj
 0002:0001156c       ??_C@_0DG@LPMAMFK@?8?$CFs?8?3?5intrinsic?5function?5does?5no@ 100c156c     d3dx9dt:cparse.obj
 0002:000115a4       ??_C@_0CM@PLDCOMJE@?8?$CFs?8?3?5function?5does?5not?5take?5?$CFu?5@ 100c15a4     d3dx9dt:cparse.obj
 0002:000115d0       ??_C@_0L@PBGCNDPG@Parameters?$AA@ 100c15d0     d3dx9dt:cparse.obj
 0002:000115dc       ??_C@_07LGFKBKFE@Outputs?$AA@ 100c15dc     d3dx9dt:cparse.obj
 0002:000115e4       ??_C@_06HDCHCENJ@Inputs?$AA@ 100c15e4     d3dx9dt:cparse.obj
 0002:000115ec       ??_C@_0CB@NPKDCMAA@unsupported?5compiler?5target?5?8?$CFs?8@ 100c15ec     d3dx9dt:cparse.obj
 0002:00011610       ??_C@_0CF@HOAALPAD@internal?5error?3?5unhandled?5produc@ 100c1610     d3dx9dt:cparse.obj
 0002:00011638       ??_C@_0EH@PAACHDCG@comma?5expression?5used?5where?5an?5i@ 100c1638     d3dx9dt:cparse.obj
 0002:00011680       ??_C@_09LOINMIFK@Arguments?$AA@ 100c1680     d3dx9dt:cparse.obj
 0002:0001168c       ??_C@_09IJNPIMHI@DwordExpr?$AA@ 100c168c     d3dx9dt:cparse.obj
 0002:00011698       ??_C@_06OKBMNGLE@States?$AA@ 100c1698     d3dx9dt:cparse.obj
 0002:000116a0       ??_C@_06PBIKDFK@Passes?$AA@ 100c16a0     d3dx9dt:cparse.obj
 0002:000116a8       ??_C@_0BI@DMAMCNBM@?8?$CFs?8?5already?5has?5a?5body?$AA@ 100c16a8     d3dx9dt:cparse.obj
 0002:000116c0       ??_C@_0M@GJOFANAE@VariableDim?$AA@ 100c16c0     d3dx9dt:cparse.obj
 0002:000116cc       ??_C@_09IIMFDPC@Semantics?$AA@ 100c16cc     d3dx9dt:cparse.obj
 0002:000116d8       ??_C@_0BE@IHHMIPLO@invalid?5use?5of?5?8?$CFs?8?$AA@ 100c16d8     d3dx9dt:cparse.obj
 0002:000116ec       ??_C@_08NIMFFLEN@TypeDefs?$AA@ 100c16ec     d3dx9dt:cparse.obj
 0002:000116f8       ??_C@_04NNKAIPAK@proj?$AA@ 100c16f8     d3dx9dt:cpslegacyprogram.obj
 0002:00011700       ??_C@_07JMFDKBIJ@texCube?$AA@ 100c1700     d3dx9dt:cpslegacyprogram.obj
 0002:00012368       ??_C@_07OJOPHEAL@SPECIAL?$AA@ 100c2368     d3dx9dt:cpslegacyprogram.obj
 0002:00012370       ??_C@_04KGKHEGKM@VOID?$AA@ 100c2370     d3dx9dt:cpslegacyprogram.obj
 0002:00012378       ??_7CPSLegacyProgram@D3DXShader@@6B@ 100c2378     d3dx9dt:cpslegacyprogram.obj
 0002:00012400       ??_C@_0IE@LMCIPBJA@texcoord?5inputs?5used?5directly?5?$CIt@ 100c2400     d3dx9dt:cpslegacyprogram.obj
 0002:00012484       ??_C@_0CF@LNEOFKIP@internal?5error?3?5malformed?5clip?5f@ 100c2484     d3dx9dt:cpslegacyprogram.obj
 0002:000124ac       ??_C@_0CI@BELJEKHH@Clip?5must?5be?5from?5a?53?5vector?5in?5@ 100c24ac     d3dx9dt:cpslegacyprogram.obj
 0002:000124d8       ??_C@_0FA@IHBGLOCO@d?3?2builds?2nt32_chk?2multimedia?2di@ 100c24d8     d3dx9dt:cpslegacyprogram.obj
 0002:00012528       ??_C@_0BI@HJMJNFHD@uMaskedOut?5?$CB?$DN?5?$CIUINT?$CJ?5?91?$AA@ 100c2528     d3dx9dt:cpslegacyprogram.obj
 0002:00012540       ??_C@_0DO@IFIOHKDP@cannot?5access?5w?5component?5from?5t@ 100c2540     d3dx9dt:cpslegacyprogram.obj
 0002:00012580       ??_C@_0CB@FOKOBKHD@?$CFs?$CFs?5is?5not?5supported?5on?5ps_1_?$CFi@ 100c2580     d3dx9dt:cpslegacyprogram.obj
 0002:000125a4       ??_C@_0CK@PAIIPIB@INST_TYPE?$CIpInst?9?$DOm_Opcode?$CJ?5?$DN?$DN?5IN@ 100c25a4     d3dx9dt:cpslegacyprogram.obj
 0002:000125d0       __real@3fc0000000000000    100c25d0     d3dx9dt:cpslegacyprogram.obj
 0002:000125d8       __real@4010000000000000    100c25d8     d3dx9dt:cpslegacyprogram.obj
 0002:000125e0       ??_C@_0DE@JEPCEDAJ@internal?5error?3?5InputRemap?5compo@ 100c25e0     d3dx9dt:cpslegacyprogram.obj
 0002:00012614       ??_C@_0DH@DPMPNEAO@cannot?5perform?5double?5dependent?5@ 100c2614     d3dx9dt:cpslegacyprogram.obj
 0002:00012650       ??_C@_0FA@NEMCDEJO@cannot?5perform?5dependent?5texture@ 100c2650     d3dx9dt:cpslegacyprogram.obj
 0002:000126a0       ??_C@_0EB@JCIOAGLL@cannot?5read?5from?5a?5texcoord?5whic@ 100c26a0     d3dx9dt:cpslegacyprogram.obj
 0002:000126e4       ??_C@_0CD@ECBFKOII@conflicting?5sampler?5array?5bindin@ 100c26e4     d3dx9dt:cpslegacyprogram.obj
 0002:00012708       ??_C@_0ID@EFIOGDLJ@conflicting?5user?5defined?5sampler@ 100c2708     d3dx9dt:cpslegacyprogram.obj
 0002:00012790       ??_C@_0FF@FOIEOFKI@cannot?5read?5from?5same?5texcoord?4?5@ 100c2790     d3dx9dt:cpslegacyprogram.obj
 0002:000127e8       ??_C@_0GN@IHLEDLI@cannot?5bind?5sampler?5to?5sampler?5a@ 100c27e8     d3dx9dt:cpslegacyprogram.obj
 0002:00012858       ??_C@_0BA@KFOANDAN@program?5too?5big?$AA@ 100c2858     d3dx9dt:cpslegacyprogram.obj
 0002:00012868       ??_C@_0DA@PHFIMONK@too?5many?5texture?5loads?5and?5reads@ 100c2868     d3dx9dt:cpslegacyprogram.obj
 0002:00012898       ??_C@_0P@GNIHGMOJ@dwTexStage?5?$DM?56?$AA@ 100c2898     d3dx9dt:cpslegacyprogram.obj
 0002:000128a8       ??_C@_0GB@ONLMFOH@cannot?5perform?5texture?5lookup?5tw@ 100c28a8     d3dx9dt:cpslegacyprogram.obj
 0002:00012910       ??_C@_0HE@INOJDJH@cannot?5bind?5sampler?5to?5user?5spec@ 100c2910     d3dx9dt:cpslegacyprogram.obj
 0002:00012984       ??_C@_0BN@LLBOMEJI@dwTexStage?5?$DM?5m_Caps?4Samplers?$AA@ 100c2984     d3dx9dt:cpslegacyprogram.obj
 0002:000129a8       ??_C@_0EK@BODDEHJB@can?5read?5from?5texcoord?5and?5use?5i@ 100c29a8     d3dx9dt:cpslegacyprogram.obj
 0002:000129f8       ??_C@_0EB@HKMADCHF@texture?5loads?5or?5clips?5cannot?5be@ 100c29f8     d3dx9dt:cpslegacyprogram.obj
 0002:00012a3c       ??_C@_0CJ@BLEBDLFA@internal?5error?3?5arguments?5not?5ve@ 100c2a3c     d3dx9dt:cpslegacyprogram.obj
 0002:00012a68       ??_C@_0DM@EKHOGPJH@program?5too?5complex?3?5exceeded?5av@ 100c2a68     d3dx9dt:cpslegacyprogram.obj
 0002:00012aa4       ??_C@_0BE@HIHAEJKI@uNewArg?5?$DO?$DN?5cCurArgs?$AA@ 100c2aa4     d3dx9dt:cpslegacyprogram.obj
 0002:00012ab8       ??_C@_0EO@HCBBMCFE@literal?5values?5outside?5range?5?91?5@ 100c2ab8     d3dx9dt:cpslegacyprogram.obj
 0002:00012b08       ??_C@_0CE@EMEGLEBA@exceeded?5maximum?5constant?5regist@ 100c2b08     d3dx9dt:cpslegacyprogram.obj
 0002:00012b2c       ??_C@_0CC@KKBBHOFH@internal?5error?3?5texld?5alias?5foun@ 100c2b2c     d3dx9dt:cpslegacyprogram.obj
 0002:00012b50       ??_C@_0DA@INMAFBEH@program?5too?5complex?3?5out?5of?5temp@ 100c2b50     d3dx9dt:cpslegacyprogram.obj
 0002:00012b80       ??_C@_0CF@CNBFOEGI@internal?5error?3?5uppropagation?5fa@ 100c2b80     d3dx9dt:cpslegacyprogram.obj
 0002:00012ba8       ??_C@_08LCNDHKFI@uReg?5?$DM?56?$AA@ 100c2ba8     d3dx9dt:cpslegacyprogram.obj
 0002:00012bb4       ??_C@_0BI@NGIBMNKF@iInst?5?$DM?5m_Caps?4Samplers?$AA@ 100c2bb4     d3dx9dt:cpslegacyprogram.obj
 0002:00012bcc       ??_C@_0CM@LNFFIPIG@internal?5error?3?5unvectorized?5reg@ 100c2bcc     d3dx9dt:cpslegacyprogram.obj
 0002:00012bf8       ??_C@_0DN@FHHJMLKJ@D3DX_PS_TEXCOORD?5?$DN?$DN?5D3DX_PS_SEMA@ 100c2bf8     d3dx9dt:cpslegacyprogram.obj
 0002:00012c38       ??_C@_0BO@PLKKFFJM@pArg?9?$DOm_uPool?5?$DN?$DN?5m_uPoolInput?$AA@ 100c2c38     d3dx9dt:cpslegacyprogram.obj
 0002:00012c58       ??_C@_0FH@PAHKLJKJ@cannot?5match?5to?5texreg2ar?5or?5tex@ 100c2c58     d3dx9dt:cpslegacyprogram.obj
 0002:00012cb0       ??_C@_0FI@GJPJBMMF@expression?5can?5only?5be?5map?5to?5te@ 100c2cb0     d3dx9dt:cpslegacyprogram.obj
 0002:00012d08       ??_C@_0FB@KHHKPDH@cannot?5match?5to?5texreg2rgb?5instr@ 100c2d08     d3dx9dt:cpslegacyprogram.obj
 0002:00012d60       ??_C@_0EC@NCHFGBKN@cannot?5bind?5sampler?5to?5sampler?5a@ 100c2d60     d3dx9dt:cpslegacyprogram.obj
 0002:00012da4       ??_C@_0CJ@EMBGBJMB@internal?5error?3?5unexpected?5argum@ 100c2da4     d3dx9dt:cpslegacyprogram.obj
 0002:00012dd0       ??_C@_0FA@DLOBAHFL@cannot?5match?5to?5texm?$CK?5because?5te@ 100c2dd0     d3dx9dt:cpslegacyprogram.obj
 0002:00012e20       ??_C@_0FD@NNPHJCCE@cannot?5match?5to?5texm?$CK?5because?5te@ 100c2e20     d3dx9dt:cpslegacyprogram.obj
 0002:00012e78       ??_C@_0IL@LHMKDFEE@unable?5to?5match?5texm?$CK?5because?5so@ 100c2e78     d3dx9dt:cpslegacyprogram.obj
 0002:00012f08       ??_C@_0EB@KKECGGJK@unable?5to?5match?5texm?5because?5com@ 100c2f08     d3dx9dt:cpslegacyprogram.obj
 0002:00012f50       ??_C@_0EJ@OFOKGOGL@cannot?5bind?5sampler?5to?5user?5spec@ 100c2f50     d3dx9dt:cpslegacyprogram.obj
 0002:00012fa0       ??_C@_0EH@PGHCJNID@accessing?5texture?5coordinate?5w?9c@ 100c2fa0     d3dx9dt:cpslegacyprogram.obj
 0002:00012fe8       ??_C@_0DI@GIHOKFA@cannot?5access?5texture?5coordinate@ 100c2fe8     d3dx9dt:cpslegacyprogram.obj
 0002:00013020       ??_C@_0EA@FKAHGICE@pixel?5shader?5must?5minimally?5writ@ 100c3020     d3dx9dt:cpslegacyprogram.obj
 0002:00013060       ??_C@_0BH@GNEIDLHD@DEPTH?5must?5be?5a?5scalar?$AA@ 100c3060     d3dx9dt:cpslegacyprogram.obj
 0002:00013078       ??_C@_0CM@LOGNKBJG@relative?5addressing?5not?5supporte@ 100c3078     d3dx9dt:cpslegacyprogram.obj
 0002:000130a4       ??_C@_0CL@FEHNIPII@internal?5error?3?5unexpected?5outpu@ 100c30a4     d3dx9dt:cpslegacyprogram.obj
 0002:000130d0       ??_C@_0BJ@FNLGBPOH@Type?5?$DN?$DN?5D3DX_PS_TEXCOORD?$AA@ 100c30d0     d3dx9dt:cpslegacyprogram.obj
 0002:000130f0       ??_C@_0EJ@FLOIPBIC@?8texcoord?8?5reference?5exceeds?5val@ 100c30f0     d3dx9dt:cpslegacyprogram.obj
 0002:0001313c       ??_C@_04OMFMADMO@spec?$AA@ 100c313c     d3dx9dt:cpslegacyprogram.obj
 0002:00013144       ??_C@_0DF@NLLLCGIA@output?5semantic?5?8?$CFs?$CFd?8?5not?5yet?5i@ 100c3144     d3dx9dt:cpslegacyprogram.obj
 0002:0001317c       ??_C@_0BP@DGMIELFP@invalid?5output?5semantic?5?8?$CFs?$CFd?8?$AA@ 100c317c     d3dx9dt:cpslegacyprogram.obj
 0002:0001319c       ??_C@_0DM@HMLOHBOP@input?5semantic?5?8?$CFs?8?5has?5been?5dep@ 100c319c     d3dx9dt:cpslegacyprogram.obj
 0002:000131d8       ??_C@_0BO@CEMFAMMN@invalid?5input?5semantic?5?8?$CFs?$CFd?8?$AA@ 100c31d8     d3dx9dt:cpslegacyprogram.obj
 0002:000131f8       ??_C@_08DPLIAGAA@specular?$AA@ 100c31f8     d3dx9dt:cpslegacyprogram.obj
 0002:00013204       ??_C@_07KFBPAAO@diffuse?$AA@ 100c3204     d3dx9dt:cpslegacyprogram.obj
 0002:0001320c       ??_C@_0CL@CCCJPAOM@invalid?5reference?5to?5input?5seman@ 100c320c     d3dx9dt:cpslegacyprogram.obj
 0002:00013238       ??_C@_0DO@NCGLAGCB@?$CI?$CICNodeToken?5?$CK?$CJ?5pArg?9?$DOm_pSemanti@ 100c3238     d3dx9dt:cpslegacyprogram.obj
 0002:00013278       ??_C@_0CK@CFDDDJJI@pArg?9?$DOm_pSemantic?9?$DOm_Type?5?$DN?$DN?5D3D@ 100c3278     d3dx9dt:cpslegacyprogram.obj
 0002:000132a4       ??_C@_0BN@NIIJHEIN@cannot?5map?5swizzle?5to?5ps_1_4?$AA@ 100c32a4     d3dx9dt:cpslegacyprogram.obj
 0002:000132c4       ??_C@_0CG@DLICHKGB@internal?5error?3?5illformed?5write?5@ 100c32c4     d3dx9dt:cpslegacyprogram.obj
 0002:000132ec       ??_C@_0DI@LNPPNCLA@unable?5to?5emmulate?5write?5masks?5f@ 100c32ec     d3dx9dt:cpslegacyprogram.obj
 0002:00013328       ??_C@_0IA@CMFLHMHN@shader?5cannot?5compile?5to?5a?5ps_1_@ 100c3328     d3dx9dt:cpslegacyprogram.obj
 0002:000133a8       ??_C@_0DC@OJONMLEO@cannot?5map?5this?5dependent?5textur@ 100c33a8     d3dx9dt:cpslegacyprogram.obj
 0002:000133dc       ??_C@_0DG@EILCDHBC@cannot?5map?5expression?5to?5pixel?5s@ 100c33dc     d3dx9dt:cpslegacyprogram.obj
 0002:00013414       ??_C@_0DC@CAHGCBPG@relative?5addressing?5not?5allowed?5@ 100c3414     d3dx9dt:cpslegacyprogram.obj
 0002:00013458       ??_7CPSProgram@D3DXShader@@6B@ 100c3458     d3dx9dt:cpsprogram.obj
 0002:000134dc       ??_C@_0CK@GNHNFMG@internal?5error?3?5overlapping?5outp@ 100c34dc     d3dx9dt:cpsprogram.obj
 0002:00013508       ??_C@_0CI@CMMCLOBJ@COLOR?$CFd?5must?5be?5a?5four?9component@ 100c3508     d3dx9dt:cpsprogram.obj
 0002:00013530       ??_C@_0DH@OGPLJLMC@COLOR?5outputs?5must?5be?5contiguous@ 100c3530     d3dx9dt:cpsprogram.obj
 0002:00013568       ??_C@_0EK@DHHMOJN@d?3?2builds?2nt32_chk?2multimedia?2di@ 100c3568     d3dx9dt:cpsprogram.obj
 0002:000135b4       ??_C@_0BO@ELMCMFPG@?$CIm_Version?5?$CG?50xffff?$CJ?5?$DM?50x0300?$AA@ 100c35b4     d3dx9dt:cpsprogram.obj
 0002:000135d4       ??_C@_0DI@IDPJLKHN@internal?5error?3?5unexpected?5Alias@ 100c35d4     d3dx9dt:cpsprogram.obj
 0002:0001360c       ??_C@_0CO@GKPCOCA@sampler?5mismatch?3?5sampler?5used?5i@ 100c360c     d3dx9dt:cpsprogram.obj
 0002:0001363c       ??_C@_0CM@DIEDJGOB@INST_TYPE?$CIm_pInst?9?$DOm_Opcode?$CJ?5?$DN?$DN?5@ 100c363c     d3dx9dt:cpsprogram.obj
 0002:00013668       ??_C@_0EE@PEENANG@internal?5error?3?5compiler?5emittim@ 100c3668     d3dx9dt:cpsprogram.obj
 0002:000136b0       ??_C@_0EA@CJDIHPHC@internal?5error?3?5write?5to?5output?5@ 100c36b0     d3dx9dt:cpsprogram.obj
 0002:000136f0       ??_C@_0CG@GBMBLEJA@internal?5error?3?5invalid?5swizzle?5@ 100c36f0     d3dx9dt:cpsprogram.obj
 0002:00013718       ??_C@_0ED@BLFAFALO@vertex?5shader?5must?5minimally?5wri@ 100c3718     d3dx9dt:cvsprogram.obj
 0002:0001375c       ??_C@_0BH@GIHPEPDB@PSIZE?5must?5be?5a?5scalar?$AA@ 100c375c     d3dx9dt:cvsprogram.obj
 0002:00013774       ??_C@_0BF@PGEPAHKB@FOG?5must?5be?5a?5scalar?$AA@ 100c3774     d3dx9dt:cvsprogram.obj
 0002:00013790       ??_C@_0EK@PLLFIFCL@d?3?2builds?2nt32_chk?2multimedia?2di@ 100c3790     d3dx9dt:cvsprogram.obj
 0002:000137dc       ??_C@_0DN@CMKDFKOI@output?5semantic?5?8?$CFs?8?5has?5been?5de@ 100c37dc     d3dx9dt:cvsprogram.obj
 0002:0001381c       ??_C@_0DL@FEPGDIJI@multi?9register?5semantics?5are?5not@ 100c381c     d3dx9dt:cvsprogram.obj
 0002:00013858       ??_C@_04LGCFHAAE@n_?$CFs?$AA@ 100c3858     d3dx9dt:cvsprogram.obj
 0002:00013860       ??_C@_06FPEPPKBM@v_?$CFs?$CFd?$AA@ 100c3860     d3dx9dt:cvsprogram.obj
 0002:00013868       ??_C@_0DM@NEJKOEJP@relative?5addressing?5not?5supporte@ 100c3868     d3dx9dt:cvsprogram.obj
 0002:000138a4       ??_C@_07FOOMLIO@c_$zz?$CFd?$AA@ 100c38a4     d3dx9dt:cvsprogram.obj
 0002:000138ac       ??_C@_08KFEIHDAM@r_$Int?$CFd?$AA@ 100c38ac     d3dx9dt:cvsprogram.obj
 0002:000138b8       ??_7CVSProgram@D3DXShader@@6B@ 100c38b8     d3dx9dt:cvsprogram.obj
 0002:0001393c       ??_C@_0CO@POMDMDLL@internal?5error?3?5multiple?5write?5t@ 100c393c     d3dx9dt:cvsprogram.obj
 0002:0001396c       ??_C@_0CB@IBIDALDH@internal?5error?3?5DST?5test?5failure@ 100c396c     d3dx9dt:cvsprogram.obj
 0002:00013990       ??_C@_0DH@CHEBAJGP@cannot?5map?5expression?5to?5vertex?5@ 100c3990     d3dx9dt:cvsprogram.obj
 0002:000139c8       ??_7CFXLProgram@D3DXShader@@6B@ 100c39c8     d3dx9dt:cfxlprogram.obj
 0002:00013a4c       ??_C@_0CM@HKKHLHPN@invalid?5reference?5to?5output?5sema@ 100c3a4c     d3dx9dt:cfxlprogram.obj
 0002:00013a78       ??_C@_0EL@IENBJONO@d?3?2builds?2nt32_chk?2multimedia?2di@ 100c3a78     d3dx9dt:cfxlprogram.obj
 0002:00013ac4       ??_C@_0CA@EAJPCFML@too?5many?5arguments?5to?5target?5TX?$AA@ 100c3ac4     d3dx9dt:cfxlprogram.obj
 0002:00013ae4       ??_C@_0CA@BDFNKKHF@pArg?9?$DOm_uPool?5?$CB?$DN?5m_uPoolAddress?$AA@ 100c3ae4     d3dx9dt:cfxlprogram.obj
 0002:00013b04       ??_C@_0CD@DBBMNPEF@m_Version?5?$DN?$DN?5D3DXFXL_VERSION?$CI2?0?5@ 100c3b04     d3dx9dt:cfxlprogram.obj
 0002:00013b28       ??_C@_0BO@MKAJKMOI@too?5many?5outputs?5to?5target?5TX?$AA@ 100c3b28     d3dx9dt:cfxlprogram.obj
 0002:00013b48       ??_C@_0CF@MCFPKODN@Too?5many?5temporary?5registers?5for@ 100c3b48     d3dx9dt:cfxlprogram.obj
 0002:00013b70       __real@3f8a8bd4            100c3b70     d3dx9dt:jidctflt.obj
 0002:00013b74       __real@40273d75            100c3b74     d3dx9dt:jidctflt.obj
 0002:00013b78       __real@3fec835e            100c3b78     d3dx9dt:jidctflt.obj
 0002:00013b7c       __real@3fb504f3            100c3b7c     d3dx9dt:jidctflt.obj
 0002:00013cb8       ??_C@_0BG@LBKINIKP@invalid?5distance?5code?$AA@ 100c3cb8     d3dx9dt:infcodes.obj
 0002:00013cd0       ??_C@_0BM@FFFLPBBC@invalid?5literal?1length?5code?$AA@ 100c3cd0     d3dx9dt:infcodes.obj
 0002:00013cf0       _d3dx_inflate_copyright    100c3cf0     d3dx9dt:inftrees.obj
 0002:00013f10       ??_C@_0CE@LOHAHEGK@incomplete?5dynamic?5bit?5lengths?5t@ 100c3f10     d3dx9dt:inftrees.obj
 0002:00013f34       ??_C@_0CI@CGMOPDPD@oversubscribed?5dynamic?5bit?5lengt@ 100c3f34     d3dx9dt:inftrees.obj
 0002:00013f5c       ??_C@_0BP@NEEEJJNA@incomplete?5literal?1length?5tree?$AA@ 100c3f5c     d3dx9dt:inftrees.obj
 0002:00013f7c       ??_C@_0CD@GJIDGCKE@oversubscribed?5literal?1length?5tr@ 100c3f7c     d3dx9dt:inftrees.obj
 0002:00013fa0       ??_C@_0CB@KPKKKLFO@empty?5distance?5tree?5with?5lengths@ 100c3fa0     d3dx9dt:inftrees.obj
 0002:00013fc4       ??_C@_0BJ@CBCPDPJF@incomplete?5distance?5tree?$AA@ 100c3fc4     d3dx9dt:inftrees.obj
 0002:00013fe0       ??_C@_0BN@KBLCDIAI@oversubscribed?5distance?5tree?$AA@ 100c3fe0     d3dx9dt:inftrees.obj
 0002:00014000       __real@3fa73d75            100c4000     d3dx9dt:jfdctflt.obj
 0002:00014004       __real@3f0a8bd4            100c4004     d3dx9dt:jfdctflt.obj
 0002:00014008       __real@3ec3ef15            100c4008     d3dx9dt:jfdctflt.obj
 0002:0001400c       __real@3f3504f3            100c400c     d3dx9dt:jfdctflt.obj
 0002:00014010       ??_C@_0BG@LMLMDOEO@D3DX9?5Shader?5Compiler?$AA@ 100c4010     d3dx9dt:cshaderprogram.obj
 0002:000144c8       ??_7CShaderProgram@D3DXShader@@6B@ 100c44c8     d3dx9dt:cshaderprogram.obj
 0002:00014550       ??_C@_0EO@HPEOHBMN@d?3?2builds?2nt32_chk?2multimedia?2di@ 100c4550     d3dx9dt:cshaderprogram.obj
 0002:000145a0       ??_C@_07KHFEPLMA@?$CBbMatch?$AA@ 100c45a0     d3dx9dt:cshaderprogram.obj
 0002:000145a8       ??_C@_0DE@DBCLAAPA@puArg?$FLi?$FN?5?$DN?$DN?50xFFFFFFFF?5?$HM?$HM?5MatchT@ 100c45a8     d3dx9dt:cshaderprogram.obj
 0002:000145dc       ??_C@_0BL@CFEDCFIC@puTempArg?$FLi?$FN?5?$DN?$DN?50xFFFFFFFF?$AA@ 100c45dc     d3dx9dt:cshaderprogram.obj
 0002:000145f8       ??_C@_0M@NLHODHND@uTable?5?$DM?510?$AA@ 100c45f8     d3dx9dt:cshaderprogram.obj
 0002:00014604       ??_C@_0BH@KFEBAIDH@MatchTable?9?$DOcArgs?5?$DN?$DN?52?$AA@ 100c4604     d3dx9dt:cshaderprogram.obj
 0002:0001461c       ??_C@_0CJ@EPNONLHC@maximum?5constant?5register?5index?5@ 100c461c     d3dx9dt:cshaderprogram.obj
 0002:00014648       ??_C@_0CG@JFIAAICD@maximum?5input?5register?5index?5exc@ 100c4648     d3dx9dt:cshaderprogram.obj
 0002:00014670       ??_C@_0CI@MFAPPDLE@maximum?5sampler?5register?5index?5e@ 100c4670     d3dx9dt:cshaderprogram.obj
 0002:00014698       ??_C@_0BP@KDAIMHMC@invalid?5register?5semantic?5?8?$CFs?8?$AA@ 100c4698     d3dx9dt:cshaderprogram.obj
 0002:000146b8       ??_C@_0DK@PGMPNCHM@overlapping?5register?5semantics?5n@ 100c46b8     d3dx9dt:cshaderprogram.obj
 0002:000146f4       ??_C@_0DE@GOGBAOIA@cannot?5match?5lerp?5because?5lerp?5f@ 100c46f4     d3dx9dt:cshaderprogram.obj
 0002:00014728       ??_C@_0DA@OHOAGFPA@internal?5error?3?5unexpected?5outpu@ 100c4728     d3dx9dt:cshaderprogram.obj
 0002:00014758       ??_C@_0CI@BONINBGM@maximum?5address?5register?5index?5e@ 100c4758     d3dx9dt:cshaderprogram.obj
 0002:00014780       ??_C@_0CF@LJBLPFEE@maximum?5temp?5register?5index?5exce@ 100c4780     d3dx9dt:cshaderprogram.obj
 0002:000147a8       ??_C@_0CP@LMIPEEOH@internal?5error?3?5unexpected?5input@ 100c47a8     d3dx9dt:cshaderprogram.obj
 0002:000147d8       ??_C@_0CM@FMIFLIMK@target?5does?5not?5support?5relative@ 100c47d8     d3dx9dt:cshaderprogram.obj
 0002:00014804       ??_C@_0BN@CGGIPDEM@?$CB?$CIpOut?9?$DOm_uAlias?5?$CG?5?$HOARG_SAT?$CJ?$AA@ 100c4804     d3dx9dt:cshaderprogram.obj
 0002:00014824       ??_C@_0DP@KGKAMION@_bias?5opportunity?5missed?5because@ 100c4824     d3dx9dt:cshaderprogram.obj
 0002:00014868       __real@bfe0000000000000    100c4868     d3dx9dt:cshaderprogram.obj
 0002:00014870       ??_C@_0EP@NPHNPFBA@complement?5opportunity?5missed?5be@ 100c4870     d3dx9dt:cshaderprogram.obj
 0002:000148c0       ??_C@_0DB@JOKBFFPD@constant?5table?5info?5exceeds?5maxi@ 100c48c0     d3dx9dt:cshaderprogram.obj
 0002:000148f4       ??_C@_04EOLFLELF@c_?$CFs?$AA@ 100c48f4     d3dx9dt:cshaderprogram.obj
 0002:000148fc       ??_C@_0BN@HIKDGLPI@overlapping?5output?5semantics?$AA@ 100c48fc     d3dx9dt:cshaderprogram.obj
 0002:0001491c       ??_C@_0CJ@DJCAOLPP@internal?5error?3?5duplicate?5input?5@ 100c491c     d3dx9dt:cshaderprogram.obj
 0002:00014948       ??_C@_0CC@KKIFHKEH@maximum?5number?5of?5inputs?5exceede@ 100c4948     d3dx9dt:cshaderprogram.obj
 0002:0001496c       ??_C@_0DA@HECBIPB@internal?5error?3?5input?5register?5m@ 100c496c     d3dx9dt:cshaderprogram.obj
 0002:0001499c       ??_C@_0DB@FJJKEODO@internal?5error?3?5output?5register?5@ 100c499c     d3dx9dt:cshaderprogram.obj
 0002:000149d0       ??_C@_0CL@DGIOLDCN@?$CFs?5target?5does?5not?5support?5textu@ 100c49d0     d3dx9dt:cshaderprogram.obj
 0002:00014a00       ??_C@_0FB@BMCGJJEA@maximum?5number?5of?5samplers?5excee@ 100c4a00     d3dx9dt:cshaderprogram.obj
 0002:00014a54       ??_C@_0DE@IHAEELJC@clip?5cannot?5be?5performed?5from?5a?5@ 100c4a54     d3dx9dt:cshaderprogram.obj
 0002:00014a88       ??_C@_0DO@KBOOBNKD@clip?5must?5be?5performed?5from?5a?5fl@ 100c4a88     d3dx9dt:cshaderprogram.obj
 0002:00014ac8       ??_C@_0CD@IINKIBFO@cannot?5clip?5from?5a?5swizzled?5vect@ 100c4ac8     d3dx9dt:cshaderprogram.obj
 0002:00014aec       ??_C@_0DO@IPJDJMDL@clip?5must?5be?5performed?5from?5a?5fl@ 100c4aec     d3dx9dt:cshaderprogram.obj
 0002:00014b2c       ??_C@_0DE@LNJPCKNM@internal?5error?3?5size?5mismatch?5in@ 100c4b2c     d3dx9dt:cshaderprogram.obj
 0002:00014b60       _KSDATAFORMAT_SUBTYPE_DIRECTMUSIC 100c4b60     dxguid:dxguid.obj
 0002:00014b70       _KSDATAFORMAT_SUBTYPE_MIDI 100c4b70     dxguid:dxguid.obj
 0002:00014b80       _IID_IKsControl            100c4b80     dxguid:dxguid.obj
 0002:00014b90       _IID_IDirectMusicAudioPath 100c4b90     dxguid:dxguid.obj
 0002:00014ba0       _IID_IDirectMusicContainer 100c4ba0     dxguid:dxguid.obj
 0002:00014bb0       _IID_IDirectMusicScript    100c4bb0     dxguid:dxguid.obj
 0002:00014bc0       _IID_IDirectMusicPatternTrack 100c4bc0     dxguid:dxguid.obj
 0002:00014bd0       _IID_IDirectMusicStyle8    100c4bd0     dxguid:dxguid.obj
 0002:00014be0       _IID_IDirectMusicSegmentState8 100c4be0     dxguid:dxguid.obj
 0002:00014bf0       _IID_IDirectMusicSegment8  100c4bf0     dxguid:dxguid.obj
 0002:00014c00       _IID_IDirectMusicPerformance8 100c4c00     dxguid:dxguid.obj
 0002:00014c10       _IID_IDirectMusicLoader8   100c4c10     dxguid:dxguid.obj
 0002:00014c20       _IID_IDirectMusicSegment2  100c4c20     dxguid:dxguid.obj
 0002:00014c30       _IID_IDirectMusicPerformance2 100c4c30     dxguid:dxguid.obj
 0002:00014c40       _IID_IDirectMusicBand      100c4c40     dxguid:dxguid.obj
 0002:00014c50       _IID_IDirectMusicComposer  100c4c50     dxguid:dxguid.obj
 0002:00014c60       _IID_IDirectMusicChordMap  100c4c60     dxguid:dxguid.obj
 0002:00014c70       _IID_IDirectMusicStyle     100c4c70     dxguid:dxguid.obj
 0002:00014c80       _IID_IDirectMusicGraph     100c4c80     dxguid:dxguid.obj
 0002:00014c90       _IID_IDirectMusicPerformance 100c4c90     dxguid:dxguid.obj
 0002:00014ca0       _IID_IDirectMusicSegmentState 100c4ca0     dxguid:dxguid.obj
 0002:00014cb0       _IID_IDirectMusicSegment   100c4cb0     dxguid:dxguid.obj
 0002:00014cc0       _IID_IDirectMusicObject    100c4cc0     dxguid:dxguid.obj
 0002:00014cd0       _IID_IDirectMusicGetLoader 100c4cd0     dxguid:dxguid.obj
 0002:00014ce0       _IID_IDirectMusicLoader    100c4ce0     dxguid:dxguid.obj
 0002:00014cf0       _GUID_Buffer_Mono          100c4cf0     dxguid:dxguid.obj
 0002:00014d00       _GUID_Buffer_3D_Dry        100c4d00     dxguid:dxguid.obj
 0002:00014d10       _GUID_Buffer_Stereo        100c4d10     dxguid:dxguid.obj
 0002:00014d20       _GUID_Buffer_EnvReverb     100c4d20     dxguid:dxguid.obj
 0002:00014d30       _GUID_Buffer_Reverb        100c4d30     dxguid:dxguid.obj
 0002:00014d40       _GUID_Synth_Default        100c4d40     dxguid:dxguid.obj
 0002:00014d50       _GUID_DefaultGMCollection  100c4d50     dxguid:dxguid.obj
 0002:00014d60       _GUID_PerfAutoDownload     100c4d60     dxguid:dxguid.obj
 0002:00014d70       _GUID_PerfMasterGrooveLevel 100c4d70     dxguid:dxguid.obj
 0002:00014d80       _GUID_PerfMasterVolume     100c4d80     dxguid:dxguid.obj
 0002:00014d90       _GUID_PerfMasterTempo      100c4d90     dxguid:dxguid.obj
 0002:00014da0       _GUID_UnloadFromAudioPath  100c4da0     dxguid:dxguid.obj
 0002:00014db0       _GUID_DownloadToAudioPath  100c4db0     dxguid:dxguid.obj
 0002:00014dc0       _GUID_Variations           100c4dc0     dxguid:dxguid.obj
 0002:00014dd0       _GUID_SeedVariations       100c4dd0     dxguid:dxguid.obj
 0002:00014de0       _GUID_EnableTempo          100c4de0     dxguid:dxguid.obj
 0002:00014df0       _GUID_DisableTempo         100c4df0     dxguid:dxguid.obj
 0002:00014e00       _GUID_EnableTimeSig        100c4e00     dxguid:dxguid.obj
 0002:00014e10       _GUID_DisableTimeSig       100c4e10     dxguid:dxguid.obj
 0002:00014e20       _GUID_StandardMIDIFile     100c4e20     dxguid:dxguid.obj
 0002:00014e30       _GUID_Clear_All_Bands      100c4e30     dxguid:dxguid.obj
 0002:00014e40       _GUID_Disable_Auto_Download 100c4e40     dxguid:dxguid.obj
 0002:00014e50       _GUID_Enable_Auto_Download 100c4e50     dxguid:dxguid.obj
 0002:00014e60       _GUID_ConnectToDLSCollection 100c4e60     dxguid:dxguid.obj
 0002:00014e70       _GUID_Unload               100c4e70     dxguid:dxguid.obj
 0002:00014e80       _GUID_Download             100c4e80     dxguid:dxguid.obj
 0002:00014e90       _GUID_MuteParam            100c4e90     dxguid:dxguid.obj
 0002:00014ea0       _GUID_IDirectMusicChordMap 100c4ea0     dxguid:dxguid.obj
 0002:00014eb0       _GUID_IDirectMusicBand     100c4eb0     dxguid:dxguid.obj
 0002:00014ec0       _GUID_BandParam            100c4ec0     dxguid:dxguid.obj
 0002:00014ed0       _GUID_Play_Marker          100c4ed0     dxguid:dxguid.obj
 0002:00014ee0       _GUID_Valid_Start_Time     100c4ee0     dxguid:dxguid.obj
 0002:00014ef0       _GUID_TempoParam           100c4ef0     dxguid:dxguid.obj
 0002:00014f00       _GUID_TimeSignature        100c4f00     dxguid:dxguid.obj
 0002:00014f10       _GUID_IDirectMusicStyle    100c4f10     dxguid:dxguid.obj
 0002:00014f20       _GUID_RhythmParam          100c4f20     dxguid:dxguid.obj
 0002:00014f30       _GUID_ChordParam           100c4f30     dxguid:dxguid.obj
 0002:00014f40       _GUID_CommandParamNext     100c4f40     dxguid:dxguid.obj
 0002:00014f50       _GUID_CommandParam2        100c4f50     dxguid:dxguid.obj
 0002:00014f60       _GUID_CommandParam         100c4f60     dxguid:dxguid.obj
 0002:00014f70       _GUID_NOTIFICATION_RECOMPOSE 100c4f70     dxguid:dxguid.obj
 0002:00014f80       _GUID_NOTIFICATION_COMMAND 100c4f80     dxguid:dxguid.obj
 0002:00014f90       _GUID_NOTIFICATION_CHORD   100c4f90     dxguid:dxguid.obj
 0002:00014fa0       _GUID_NOTIFICATION_MEASUREANDBEAT 100c4fa0     dxguid:dxguid.obj
 0002:00014fb0       _GUID_NOTIFICATION_PERFORMANCE 100c4fb0     dxguid:dxguid.obj
 0002:00014fc0       _GUID_NOTIFICATION_SEGMENT 100c4fc0     dxguid:dxguid.obj
 0002:00014fd0       _GUID_DirectMusicAllTypes  100c4fd0     dxguid:dxguid.obj
 0002:00014fe0       _CLSID_DirectMusicAudioPathConfig 100c4fe0     dxguid:dxguid.obj
 0002:00014ff0       _CLSID_DirectSoundWave     100c4ff0     dxguid:dxguid.obj
 0002:00015000       _CLSID_DirectMusicContainer 100c5000     dxguid:dxguid.obj
 0002:00015010       _CLSID_DirectMusicScript   100c5010     dxguid:dxguid.obj
 0002:00015020       _CLSID_DirectMusicPatternTrack 100c5020     dxguid:dxguid.obj
 0002:00015030       _CLSID_DirectMusicBand     100c5030     dxguid:dxguid.obj
 0002:00015040       _CLSID_DirectMusicLoader   100c5040     dxguid:dxguid.obj
 0002:00015050       _CLSID_DirectMusicComposer 100c5050     dxguid:dxguid.obj
 0002:00015060       _CLSID_DirectMusicChordMap 100c5060     dxguid:dxguid.obj
 0002:00015070       _CLSID_DirectMusicStyle    100c5070     dxguid:dxguid.obj
 0002:00015080       _CLSID_DirectMusicGraph    100c5080     dxguid:dxguid.obj
 0002:00015090       _CLSID_DirectMusicSegmentState 100c5090     dxguid:dxguid.obj
 0002:000150a0       _CLSID_DirectMusicSegment  100c50a0     dxguid:dxguid.obj
 0002:000150b0       _CLSID_DirectMusicPerformance 100c50b0     dxguid:dxguid.obj
 0002:000150c0       _IID_IDirectMusicTrack8    100c50c0     dxguid:dxguid.obj
 0002:000150d0       _IID_IDirectMusicTool8     100c50d0     dxguid:dxguid.obj
 0002:000150e0       _IID_IDirectMusicTool      100c50e0     dxguid:dxguid.obj
 0002:000150f0       _IID_IDirectMusicTrack     100c50f0     dxguid:dxguid.obj
 0002:00015100       _CLSID_DirectMusicWaveTrack 100c5100     dxguid:dxguid.obj
 0002:00015110       _CLSID_DirectMusicParamControlTrack 100c5110     dxguid:dxguid.obj
 0002:00015120       _CLSID_DirectMusicLyricsTrack 100c5120     dxguid:dxguid.obj
 0002:00015130       _CLSID_DirectMusicSegmentTriggerTrack 100c5130     dxguid:dxguid.obj
 0002:00015140       _CLSID_DirectMusicMarkerTrack 100c5140     dxguid:dxguid.obj
 0002:00015150       _CLSID_DirectMusicScriptTrack 100c5150     dxguid:dxguid.obj
 0002:00015160       _CLSID_DirectMusicMuteTrack 100c5160     dxguid:dxguid.obj
 0002:00015170       _CLSID_DirectMusicChordMapTrack 100c5170     dxguid:dxguid.obj
 0002:00015180       _CLSID_DirectMusicBandTrack 100c5180     dxguid:dxguid.obj
 0002:00015190       _CLSID_DirectMusicSignPostTrack 100c5190     dxguid:dxguid.obj
 0002:000151a0       _CLSID_DirectMusicMotifTrack 100c51a0     dxguid:dxguid.obj
 0002:000151b0       _CLSID_DirectMusicStyleTrack 100c51b0     dxguid:dxguid.obj
 0002:000151c0       _CLSID_DirectMusicCommandTrack 100c51c0     dxguid:dxguid.obj
 0002:000151d0       _CLSID_DirectMusicChordTrack 100c51d0     dxguid:dxguid.obj
 0002:000151e0       _CLSID_DirectMusicTimeSigTrack 100c51e0     dxguid:dxguid.obj
 0002:000151f0       _CLSID_DirectMusicSysExTrack 100c51f0     dxguid:dxguid.obj
 0002:00015200       _CLSID_DirectMusicSeqTrack 100c5200     dxguid:dxguid.obj
 0002:00015210       _CLSID_DirectMusicTempoTrack 100c5210     dxguid:dxguid.obj
 0002:00015220       _GUID_DMUS_PROP_Volume     100c5220     dxguid:dxguid.obj
 0002:00015230       _GUID_DMUS_PROP_LegacyCaps 100c5230     dxguid:dxguid.obj
 0002:00015240       _GUID_DMUS_PROP_Effects    100c5240     dxguid:dxguid.obj
 0002:00015250       _GUID_DMUS_PROP_WavesReverb 100c5250     dxguid:dxguid.obj
 0002:00015260       _GUID_DMUS_PROP_MemorySize 100c5260     dxguid:dxguid.obj
 0002:00015270       _GUID_DMUS_PROP_WritePeriod 100c5270     dxguid:dxguid.obj
 0002:00015280       _GUID_DMUS_PROP_WriteLatency 100c5280     dxguid:dxguid.obj
 0002:00015290       _GUID_DMUS_PROP_SamplePlaybackRate 100c5290     dxguid:dxguid.obj
 0002:000152a0       _GUID_DMUS_PROP_SampleMemorySize 100c52a0     dxguid:dxguid.obj
 0002:000152b0       _GUID_DMUS_PROP_SynthSink_WAVE 100c52b0     dxguid:dxguid.obj
 0002:000152c0       _GUID_DMUS_PROP_SynthSink_DSOUND 100c52c0     dxguid:dxguid.obj
 0002:000152d0       _GUID_DMUS_PROP_INSTRUMENT2 100c52d0     dxguid:dxguid.obj
 0002:000152e0       _GUID_DMUS_PROP_DLS2       100c52e0     dxguid:dxguid.obj
 0002:000152f0       _GUID_DMUS_PROP_DLS1       100c52f0     dxguid:dxguid.obj
 0002:00015300       _GUID_DMUS_PROP_GS_Capable 100c5300     dxguid:dxguid.obj
 0002:00015310       _GUID_DMUS_PROP_XG_Capable 100c5310     dxguid:dxguid.obj
 0002:00015320       _GUID_DMUS_PROP_XG_Hardware 100c5320     dxguid:dxguid.obj
 0002:00015330       _GUID_DMUS_PROP_GS_Hardware 100c5330     dxguid:dxguid.obj
 0002:00015340       _GUID_DMUS_PROP_GM_Hardware 100c5340     dxguid:dxguid.obj
 0002:00015350       _IID_IDirectMusic8         100c5350     dxguid:dxguid.obj
 0002:00015360       _IID_IDirectMusic2         100c5360     dxguid:dxguid.obj
 0002:00015370       _IID_IDirectMusicDownloadedInstrument 100c5370     dxguid:dxguid.obj
 0002:00015380       _IID_IDirectMusicInstrument 100c5380     dxguid:dxguid.obj
 0002:00015390       _IID_IDirectMusicCollection 100c5390     dxguid:dxguid.obj
 0002:000153a0       _IID_IDirectMusicDownload  100c53a0     dxguid:dxguid.obj
 0002:000153b0       _IID_IDirectMusicPortDownload 100c53b0     dxguid:dxguid.obj
 0002:000153c0       _IID_IDirectMusicThru      100c53c0     dxguid:dxguid.obj
 0002:000153d0       _IID_IDirectMusicPort      100c53d0     dxguid:dxguid.obj
 0002:000153e0       _IID_IDirectMusicBuffer    100c53e0     dxguid:dxguid.obj
 0002:000153f0       _IID_IDirectMusic          100c53f0     dxguid:dxguid.obj
 0002:00015400       _CLSID_DirectMusicSynth    100c5400     dxguid:dxguid.obj
 0002:00015410       _CLSID_DirectMusicCollection 100c5410     dxguid:dxguid.obj
 0002:00015420       _CLSID_DirectMusic         100c5420     dxguid:dxguid.obj
 0002:00015430       _IID_IDirectPlay8LobbyClient 100c5430     dxguid:dxguid.obj
 0002:00015440       _IID_IDirectPlay8LobbiedApplication 100c5440     dxguid:dxguid.obj
 0002:00015450       _CLSID_DirectPlay8LobbyClient 100c5450     dxguid:dxguid.obj
 0002:00015460       _CLSID_DirectPlay8LobbiedApplication 100c5460     dxguid:dxguid.obj
 0002:00015470       _CLSID_DP8SP_BLUETOOTH     100c5470     dxguid:dxguid.obj
 0002:00015480       _CLSID_DP8SP_TCPIP         100c5480     dxguid:dxguid.obj
 0002:00015490       _CLSID_DP8SP_SERIAL        100c5490     dxguid:dxguid.obj
 0002:000154a0       _CLSID_DP8SP_MODEM         100c54a0     dxguid:dxguid.obj
 0002:000154b0       _CLSID_DP8SP_IPX           100c54b0     dxguid:dxguid.obj
 0002:000154c0       _IID_IDirectPlay8NATResolver 100c54c0     dxguid:dxguid.obj
 0002:000154d0       _IID_IDirectPlay8ThreadPool 100c54d0     dxguid:dxguid.obj
 0002:000154e0       _IID_IDirectPlay8Peer      100c54e0     dxguid:dxguid.obj
 0002:000154f0       _IID_IDirectPlay8Server    100c54f0     dxguid:dxguid.obj
 0002:00015500       _IID_IDirectPlay8Client    100c5500     dxguid:dxguid.obj
 0002:00015510       _CLSID_DirectPlay8NATResolver 100c5510     dxguid:dxguid.obj
 0002:00015520       _CLSID_DirectPlay8ThreadPool 100c5520     dxguid:dxguid.obj
 0002:00015530       _CLSID_DirectPlay8Peer     100c5530     dxguid:dxguid.obj
 0002:00015540       _CLSID_DirectPlay8Server   100c5540     dxguid:dxguid.obj
 0002:00015550       _CLSID_DirectPlay8Client   100c5550     dxguid:dxguid.obj
 0002:00015560       _IID_IDirectPlay8AddressIP 100c5560     dxguid:dxguid.obj
 0002:00015570       _IID_IDirectPlay8Address   100c5570     dxguid:dxguid.obj
 0002:00015580       _CLSID_DirectPlay8Address  100c5580     dxguid:dxguid.obj
 0002:00015590       _DPVCTGUID_VR12            100c5590     dxguid:dxguid.obj
 0002:000155a0       _DPVCTGUID_TRUESPEECH      100c55a0     dxguid:dxguid.obj
 0002:000155b0       _DPVCTGUID_SC06            100c55b0     dxguid:dxguid.obj
 0002:000155c0       _DPVCTGUID_SC03            100c55c0     dxguid:dxguid.obj
 0002:000155d0       _DPVCTGUID_NONE            100c55d0     dxguid:dxguid.obj
 0002:000155e0       _DPVCTGUID_GSM             100c55e0     dxguid:dxguid.obj
 0002:000155f0       _DPVCTGUID_ADPCM           100c55f0     dxguid:dxguid.obj
 0002:00015600       _IID_IDirectPlayVoiceTest  100c5600     dxguid:dxguid.obj
 0002:00015610       _IID_IDirectPlayVoiceServer 100c5610     dxguid:dxguid.obj
 0002:00015620       _IID_IDirectPlayVoiceClient 100c5620     dxguid:dxguid.obj
 0002:00015630       _CLSID_DirectPlayVoiceTest 100c5630     dxguid:dxguid.obj
 0002:00015640       _CLSID_DirectPlayVoiceServer 100c5640     dxguid:dxguid.obj
 0002:00015650       _CLSID_DirectPlayVoiceClient 100c5650     dxguid:dxguid.obj
 0002:00015660       _GUID_DSCFX_SYSTEM_NS      100c5660     dxguid:dxguid.obj
 0002:00015670       _GUID_DSCFX_MS_NS          100c5670     dxguid:dxguid.obj
 0002:00015680       _GUID_DSCFX_CLASS_NS       100c5680     dxguid:dxguid.obj
 0002:00015690       _GUID_DSCFX_SYSTEM_AEC     100c5690     dxguid:dxguid.obj
 0002:000156a0       _GUID_DSCFX_MS_AEC         100c56a0     dxguid:dxguid.obj
 0002:000156b0       _GUID_DSCFX_CLASS_AEC      100c56b0     dxguid:dxguid.obj
 0002:000156c0       _GUID_DSFX_WAVES_REVERB    100c56c0     dxguid:dxguid.obj
 0002:000156d0       _GUID_DSFX_STANDARD_I3DL2REVERB 100c56d0     dxguid:dxguid.obj
 0002:000156e0       _GUID_DSFX_STANDARD_PARAMEQ 100c56e0     dxguid:dxguid.obj
 0002:000156f0       _GUID_DSFX_STANDARD_COMPRESSOR 100c56f0     dxguid:dxguid.obj
 0002:00015700       _GUID_DSFX_STANDARD_DISTORTION 100c5700     dxguid:dxguid.obj
 0002:00015710       _GUID_DSFX_STANDARD_ECHO   100c5710     dxguid:dxguid.obj
 0002:00015720       _GUID_DSFX_STANDARD_FLANGER 100c5720     dxguid:dxguid.obj
 0002:00015730       _GUID_DSFX_STANDARD_CHORUS 100c5730     dxguid:dxguid.obj
 0002:00015740       _GUID_DSFX_STANDARD_GARGLE 100c5740     dxguid:dxguid.obj
 0002:00015750       _DS3DALG_HRTF_LIGHT        100c5750     dxguid:dxguid.obj
 0002:00015760       _DS3DALG_HRTF_FULL         100c5760     dxguid:dxguid.obj
 0002:00015770       _DS3DALG_NO_VIRTUALIZATION 100c5770     dxguid:dxguid.obj
 0002:00015780       _IID_IDirectSoundFullDuplex 100c5780     dxguid:dxguid.obj
 0002:00015790       _IID_IDirectSoundCaptureFXNoiseSuppress 100c5790     dxguid:dxguid.obj
 0002:000157a0       _IID_IDirectSoundCaptureFXAec 100c57a0     dxguid:dxguid.obj
 0002:000157b0       _IID_IDirectSoundFXWavesReverb 100c57b0     dxguid:dxguid.obj
 0002:000157c0       _IID_IDirectSoundFXI3DL2Reverb 100c57c0     dxguid:dxguid.obj
 0002:000157d0       _IID_IDirectSoundFXParamEq 100c57d0     dxguid:dxguid.obj
 0002:000157e0       _IID_IDirectSoundFXCompressor 100c57e0     dxguid:dxguid.obj
 0002:000157f0       _IID_IDirectSoundFXDistortion 100c57f0     dxguid:dxguid.obj
 0002:00015800       _IID_IDirectSoundFXEcho    100c5800     dxguid:dxguid.obj
 0002:00015810       _IID_IDirectSoundFXFlanger 100c5810     dxguid:dxguid.obj
 0002:00015820       _IID_IDirectSoundFXChorus  100c5820     dxguid:dxguid.obj
 0002:00015830       _IID_IDirectSoundFXGargle  100c5830     dxguid:dxguid.obj
 0002:00015840       _IID_IKsPropertySet        100c5840     dxguid:dxguid.obj
 0002:00015850       _IID_IDirectSoundNotify    100c5850     dxguid:dxguid.obj
 0002:00015860       _IID_IDirectSoundCaptureBuffer8 100c5860     dxguid:dxguid.obj
 0002:00015870       _IID_IDirectSoundCaptureBuffer 100c5870     dxguid:dxguid.obj
 0002:00015880       _IID_IDirectSoundCapture   100c5880     dxguid:dxguid.obj
 0002:00015890       _IID_IDirectSound3DBuffer  100c5890     dxguid:dxguid.obj
 0002:000158a0       _IID_IDirectSound3DListener 100c58a0     dxguid:dxguid.obj
 0002:000158b0       _GUID_All_Objects          100c58b0     dxguid:dxguid.obj
 0002:000158c0       _IID_IDirectSoundBuffer8   100c58c0     dxguid:dxguid.obj
 0002:000158d0       _IID_IDirectSoundBuffer    100c58d0     dxguid:dxguid.obj
 0002:000158e0       _IID_IDirectSound8         100c58e0     dxguid:dxguid.obj
 0002:000158f0       _IID_IDirectSound          100c58f0     dxguid:dxguid.obj
 0002:00015900       _IID_IReferenceClock       100c5900     dxguid:dxguid.obj
 0002:00015910       _DSDEVID_DefaultVoiceCapture 100c5910     dxguid:dxguid.obj
 0002:00015920       _DSDEVID_DefaultVoicePlayback 100c5920     dxguid:dxguid.obj
 0002:00015930       _DSDEVID_DefaultCapture    100c5930     dxguid:dxguid.obj
 0002:00015940       _DSDEVID_DefaultPlayback   100c5940     dxguid:dxguid.obj
 0002:00015950       _CLSID_DirectSoundFullDuplex 100c5950     dxguid:dxguid.obj
 0002:00015960       _CLSID_DirectSoundCapture8 100c5960     dxguid:dxguid.obj
 0002:00015970       _CLSID_DirectSoundCapture  100c5970     dxguid:dxguid.obj
 0002:00015980       _CLSID_DirectSound8        100c5980     dxguid:dxguid.obj
 0002:00015990       _CLSID_DirectSound         100c5990     dxguid:dxguid.obj
 0002:000159a0       _DPAID_ComPort             100c59a0     dxguid:dxguid.obj
 0002:000159b0       _DPAID_INetPort            100c59b0     dxguid:dxguid.obj
 0002:000159c0       _DPAID_INetW               100c59c0     dxguid:dxguid.obj
 0002:000159d0       _DPAID_INet                100c59d0     dxguid:dxguid.obj
 0002:000159e0       _DPAID_ModemW              100c59e0     dxguid:dxguid.obj
 0002:000159f0       _DPAID_Modem               100c59f0     dxguid:dxguid.obj
 0002:00015a00       _DPAID_PhoneW              100c5a00     dxguid:dxguid.obj
 0002:00015a10       _DPAID_Phone               100c5a10     dxguid:dxguid.obj
 0002:00015a20       _DPAID_LobbyProvider       100c5a20     dxguid:dxguid.obj
 0002:00015a30       _DPAID_ServiceProvider     100c5a30     dxguid:dxguid.obj
 0002:00015a40       _DPAID_TotalSize           100c5a40     dxguid:dxguid.obj
 0002:00015a50       _DPLPROPERTY_PlayerScore   100c5a50     dxguid:dxguid.obj
 0002:00015a60       _DPLPROPERTY_PlayerGuid    100c5a60     dxguid:dxguid.obj
 0002:00015a70       _DPLPROPERTY_LobbyGuid     100c5a70     dxguid:dxguid.obj
 0002:00015a80       _DPLPROPERTY_MessagesSupported 100c5a80     dxguid:dxguid.obj
 0002:00015a90       _CLSID_DirectPlayLobby     100c5a90     dxguid:dxguid.obj
 0002:00015aa0       _IID_IDirectPlayLobby3A    100c5aa0     dxguid:dxguid.obj
 0002:00015ab0       _IID_IDirectPlayLobby3     100c5ab0     dxguid:dxguid.obj
 0002:00015ac0       _IID_IDirectPlayLobby2A    100c5ac0     dxguid:dxguid.obj
 0002:00015ad0       _IID_IDirectPlayLobby2     100c5ad0     dxguid:dxguid.obj
 0002:00015ae0       _IID_IDirectPlayLobbyA     100c5ae0     dxguid:dxguid.obj
 0002:00015af0       _IID_IDirectPlayLobby      100c5af0     dxguid:dxguid.obj
 0002:00015b00       _IID_IDirectPlay           100c5b00     dxguid:dxguid.obj
 0002:00015b10       _DPSPGUID_MODEM            100c5b10     dxguid:dxguid.obj
 0002:00015b20       _DPSPGUID_SERIAL           100c5b20     dxguid:dxguid.obj
 0002:00015b30       _DPSPGUID_TCPIP            100c5b30     dxguid:dxguid.obj
 0002:00015b40       _DPSPGUID_IPX              100c5b40     dxguid:dxguid.obj
 0002:00015b50       _CLSID_DirectPlay          100c5b50     dxguid:dxguid.obj
 0002:00015b60       _IID_IDirectPlay4A         100c5b60     dxguid:dxguid.obj
 0002:00015b70       _IID_IDirectPlay4          100c5b70     dxguid:dxguid.obj
 0002:00015b80       _IID_IDirectPlay3A         100c5b80     dxguid:dxguid.obj
 0002:00015b90       _IID_IDirectPlay3          100c5b90     dxguid:dxguid.obj
 0002:00015ba0       _IID_IDirectPlay2A         100c5ba0     dxguid:dxguid.obj
 0002:00015bb0       _IID_IDirectPlay2          100c5bb0     dxguid:dxguid.obj
 0002:00015bc0       _GUID_HIDClass             100c5bc0     dxguid:dxguid.obj
 0002:00015bd0       _GUID_MouseClass           100c5bd0     dxguid:dxguid.obj
 0002:00015be0       _GUID_MediaClass           100c5be0     dxguid:dxguid.obj
 0002:00015bf0       _GUID_KeyboardClass        100c5bf0     dxguid:dxguid.obj
 0002:00015c00       _IID_IDirectInputJoyConfig8 100c5c00     dxguid:dxguid.obj
 0002:00015c10       _IID_IDirectInputPIDDriver 100c5c10     dxguid:dxguid.obj
 0002:00015c20       _IID_IDirectInputJoyConfig 100c5c20     dxguid:dxguid.obj
 0002:00015c30       _IID_IDirectInputEffectDriver 100c5c30     dxguid:dxguid.obj
 0002:00015c40       _GUID_CustomForce          100c5c40     dxguid:dxguid.obj
 0002:00015c50       _GUID_Friction             100c5c50     dxguid:dxguid.obj
 0002:00015c60       _GUID_Inertia              100c5c60     dxguid:dxguid.obj
 0002:00015c70       _GUID_Damper               100c5c70     dxguid:dxguid.obj
 0002:00015c80       _GUID_Spring               100c5c80     dxguid:dxguid.obj
 0002:00015c90       _GUID_SawtoothDown         100c5c90     dxguid:dxguid.obj
 0002:00015ca0       _GUID_SawtoothUp           100c5ca0     dxguid:dxguid.obj
 0002:00015cb0       _GUID_Triangle             100c5cb0     dxguid:dxguid.obj
 0002:00015cc0       _GUID_Sine                 100c5cc0     dxguid:dxguid.obj
 0002:00015cd0       _GUID_Square               100c5cd0     dxguid:dxguid.obj
 0002:00015ce0       _GUID_RampForce            100c5ce0     dxguid:dxguid.obj
 0002:00015cf0       _GUID_ConstantForce        100c5cf0     dxguid:dxguid.obj
 0002:00015d00       _GUID_SysKeyboardEm2       100c5d00     dxguid:dxguid.obj
 0002:00015d10       _GUID_SysKeyboardEm        100c5d10     dxguid:dxguid.obj
 0002:00015d20       _GUID_SysMouseEm2          100c5d20     dxguid:dxguid.obj
 0002:00015d30       _GUID_SysMouseEm           100c5d30     dxguid:dxguid.obj
 0002:00015d40       _GUID_Joystick             100c5d40     dxguid:dxguid.obj
 0002:00015d50       _GUID_SysKeyboard          100c5d50     dxguid:dxguid.obj
 0002:00015d60       _GUID_SysMouse             100c5d60     dxguid:dxguid.obj
 0002:00015d70       _GUID_Unknown              100c5d70     dxguid:dxguid.obj
 0002:00015d80       _GUID_POV                  100c5d80     dxguid:dxguid.obj
 0002:00015d90       _GUID_Key                  100c5d90     dxguid:dxguid.obj
 0002:00015da0       _GUID_Button               100c5da0     dxguid:dxguid.obj
 0002:00015db0       _GUID_Slider               100c5db0     dxguid:dxguid.obj
 0002:00015dc0       _GUID_RzAxis               100c5dc0     dxguid:dxguid.obj
 0002:00015dd0       _GUID_RyAxis               100c5dd0     dxguid:dxguid.obj
 0002:00015de0       _GUID_RxAxis               100c5de0     dxguid:dxguid.obj
 0002:00015df0       _GUID_ZAxis                100c5df0     dxguid:dxguid.obj
 0002:00015e00       _GUID_YAxis                100c5e00     dxguid:dxguid.obj
 0002:00015e10       _GUID_XAxis                100c5e10     dxguid:dxguid.obj
 0002:00015e20       _IID_IDirectInputEffect    100c5e20     dxguid:dxguid.obj
 0002:00015e30       _IID_IDirectInputDevice8W  100c5e30     dxguid:dxguid.obj
 0002:00015e40       _IID_IDirectInputDevice8A  100c5e40     dxguid:dxguid.obj
 0002:00015e50       _IID_IDirectInputDevice7W  100c5e50     dxguid:dxguid.obj
 0002:00015e60       _IID_IDirectInputDevice7A  100c5e60     dxguid:dxguid.obj
 0002:00015e70       _IID_IDirectInputDevice2W  100c5e70     dxguid:dxguid.obj
 0002:00015e80       _IID_IDirectInputDevice2A  100c5e80     dxguid:dxguid.obj
 0002:00015e90       _IID_IDirectInputDeviceW   100c5e90     dxguid:dxguid.obj
 0002:00015ea0       _IID_IDirectInputDeviceA   100c5ea0     dxguid:dxguid.obj
 0002:00015eb0       _IID_IDirectInput8W        100c5eb0     dxguid:dxguid.obj
 0002:00015ec0       _IID_IDirectInput8A        100c5ec0     dxguid:dxguid.obj
 0002:00015ed0       _IID_IDirectInput7W        100c5ed0     dxguid:dxguid.obj
 0002:00015ee0       _IID_IDirectInput7A        100c5ee0     dxguid:dxguid.obj
 0002:00015ef0       _IID_IDirectInput2W        100c5ef0     dxguid:dxguid.obj
 0002:00015f00       _IID_IDirectInput2A        100c5f00     dxguid:dxguid.obj
 0002:00015f10       _IID_IDirectInputW         100c5f10     dxguid:dxguid.obj
 0002:00015f20       _IID_IDirectInputA         100c5f20     dxguid:dxguid.obj
 0002:00015f30       _CLSID_DirectInputDevice8  100c5f30     dxguid:dxguid.obj
 0002:00015f40       _CLSID_DirectInput8        100c5f40     dxguid:dxguid.obj
 0002:00015f50       _CLSID_DirectInputDevice   100c5f50     dxguid:dxguid.obj
 0002:00015f60       _CLSID_DirectInput         100c5f60     dxguid:dxguid.obj
 0002:00015f70       _TID_D3DRMRightHanded      100c5f70     dxguid:dxguid.obj
 0002:00015f80       _TID_D3DRMPropertyBag      100c5f80     dxguid:dxguid.obj
 0002:00015f90       _TID_D3DRMStringProperty   100c5f90     dxguid:dxguid.obj
 0002:00015fa0       _TID_D3DRMExternalVisual   100c5fa0     dxguid:dxguid.obj
 0002:00015fb0       _TID_D3DRMProgressiveMesh  100c5fb0     dxguid:dxguid.obj
 0002:00015fc0       _TID_D3DRMUrl              100c5fc0     dxguid:dxguid.obj
 0002:00015fd0       _TID_D3DRMInlineData       100c5fd0     dxguid:dxguid.obj
 0002:00015fe0       _TID_D3DRMLightAttenuation 100c5fe0     dxguid:dxguid.obj
 0002:00015ff0       _TID_D3DRMLightPenumbra    100c5ff0     dxguid:dxguid.obj
 0002:00016000       _TID_D3DRMLightRange       100c6000     dxguid:dxguid.obj
 0002:00016010       _TID_D3DRMLightUmbra       100c6010     dxguid:dxguid.obj
 0002:00016020       _TID_D3DRMAppData          100c6020     dxguid:dxguid.obj
 0002:00016030       _TID_D3DRMCamera           100c6030     dxguid:dxguid.obj
 0002:00016040       _TID_D3DRMLight            100c6040     dxguid:dxguid.obj
 0002:00016050       _TID_D3DRMFrameRotation    100c6050     dxguid:dxguid.obj
 0002:00016060       _TID_D3DRMFrameVelocity    100c6060     dxguid:dxguid.obj
 0002:00016070       _TID_D3DRMFramePosition    100c6070     dxguid:dxguid.obj
 0002:00016080       _TID_D3DRMAnimationOptions 100c6080     dxguid:dxguid.obj
 0002:00016090       _TID_D3DRMTimedFloatKeys   100c6090     dxguid:dxguid.obj
 0002:000160a0       _TID_D3DRMBoolean2d        100c60a0     dxguid:dxguid.obj
 0002:000160b0       _TID_D3DRMMeshFaceWraps    100c60b0     dxguid:dxguid.obj
 0002:000160c0       _TID_D3DRMBoolean          100c60c0     dxguid:dxguid.obj
 0002:000160d0       _TID_D3DRMMaterialWrap     100c60d0     dxguid:dxguid.obj
 0002:000160e0       _TID_D3DRMMeshVertexColors 100c60e0     dxguid:dxguid.obj
 0002:000160f0       _TID_D3DRMIndexedColor     100c60f0     dxguid:dxguid.obj
 0002:00016100       _TID_D3DRMTextureReference 100c6100     dxguid:dxguid.obj
 0002:00016110       _TID_D3DRMTextureFilename  100c6110     dxguid:dxguid.obj
 0002:00016120       _TID_D3DRMGuid             100c6120     dxguid:dxguid.obj
 0002:00016130       _TID_D3DRMColorRGB         100c6130     dxguid:dxguid.obj
 0002:00016140       _TID_D3DRMColorRGBA        100c6140     dxguid:dxguid.obj
 0002:00016150       _TID_D3DRMMaterialPower    100c6150     dxguid:dxguid.obj
 0002:00016160       _TID_D3DRMMaterialEmissiveColor 100c6160     dxguid:dxguid.obj
 0002:00016170       _TID_D3DRMMaterialSpecularColor 100c6170     dxguid:dxguid.obj
 0002:00016180       _TID_D3DRMMaterialDiffuseColor 100c6180     dxguid:dxguid.obj
 0002:00016190       _TID_D3DRMMaterialAmbientColor 100c6190     dxguid:dxguid.obj
 0002:000161a0       _TID_D3DRMFloatKeys        100c61a0     dxguid:dxguid.obj
 0002:000161b0       _TID_D3DRMAnimationKey     100c61b0     dxguid:dxguid.obj
 0002:000161c0       _TID_D3DRMAnimationSet     100c61c0     dxguid:dxguid.obj
 0002:000161d0       _TID_D3DRMAnimation        100c61d0     dxguid:dxguid.obj
 0002:000161e0       _TID_D3DRMMatrix4x4        100c61e0     dxguid:dxguid.obj
 0002:000161f0       _TID_D3DRMCoords2d         100c61f0     dxguid:dxguid.obj
 0002:00016200       _TID_D3DRMMeshNormals      100c6200     dxguid:dxguid.obj
 0002:00016210       _TID_D3DRMMeshTextureCoords 100c6210     dxguid:dxguid.obj
 0002:00016220       _TID_D3DRMMeshMaterialList 100c6220     dxguid:dxguid.obj
 0002:00016230       _TID_D3DRMFrameTransformMatrix 100c6230     dxguid:dxguid.obj
 0002:00016240       _TID_D3DRMFrame            100c6240     dxguid:dxguid.obj
 0002:00016250       _TID_D3DRMMaterialArray    100c6250     dxguid:dxguid.obj
 0002:00016260       _TID_D3DRMMaterial         100c6260     dxguid:dxguid.obj
 0002:00016270       _TID_D3DRMMeshFace         100c6270     dxguid:dxguid.obj
 0002:00016280       _TID_D3DRMVector           100c6280     dxguid:dxguid.obj
 0002:00016290       _TID_D3DRMMesh             100c6290     dxguid:dxguid.obj
 0002:000162a0       _TID_D3DRMInfo             100c62a0     dxguid:dxguid.obj
 0002:000162b0       _IID_IDirect3DRMWinDevice  100c62b0     dxguid:dxguid.obj
 0002:000162c0       _CLSID_CDirect3DRM         100c62c0     dxguid:dxguid.obj
 0002:000162d0       _IID_IDirect3DRM3          100c62d0     dxguid:dxguid.obj
 0002:000162e0       _IID_IDirect3DRM2          100c62e0     dxguid:dxguid.obj
 0002:000162f0       _IID_IDirect3DRM           100c62f0     dxguid:dxguid.obj
 0002:00016300       _IID_IDirect3DRMClippedVisual 100c6300     dxguid:dxguid.obj
 0002:00016310       _IID_IDirect3DRMPicked2Array 100c6310     dxguid:dxguid.obj
 0002:00016320       _IID_IDirect3DRMProgressiveMesh 100c6320     dxguid:dxguid.obj
 0002:00016330       _IID_IDirect3DRMInterpolator 100c6330     dxguid:dxguid.obj
 0002:00016340       _IID_IDirect3DRMShadow2    100c6340     dxguid:dxguid.obj
 0002:00016350       _IID_IDirect3DRMShadow     100c6350     dxguid:dxguid.obj
 0002:00016360       _IID_IDirect3DRMUserVisual 100c6360     dxguid:dxguid.obj
 0002:00016370       _IID_IDirect3DRMAnimationArray 100c6370     dxguid:dxguid.obj
 0002:00016380       _IID_IDirect3DRMFaceArray  100c6380     dxguid:dxguid.obj
 0002:00016390       _IID_IDirect3DRMPickedArray 100c6390     dxguid:dxguid.obj
 0002:000163a0       _IID_IDirect3DRMLightArray 100c63a0     dxguid:dxguid.obj
 0002:000163b0       _IID_IDirect3DRMVisualArray 100c63b0     dxguid:dxguid.obj
 0002:000163c0       _IID_IDirect3DRMFrameArray 100c63c0     dxguid:dxguid.obj
 0002:000163d0       _IID_IDirect3DRMViewportArray 100c63d0     dxguid:dxguid.obj
 0002:000163e0       _IID_IDirect3DRMDeviceArray 100c63e0     dxguid:dxguid.obj
 0002:000163f0       _IID_IDirect3DRMObjectArray 100c63f0     dxguid:dxguid.obj
 0002:00016400       _IID_IDirect3DRMAnimationSet2 100c6400     dxguid:dxguid.obj
 0002:00016410       _IID_IDirect3DRMAnimationSet 100c6410     dxguid:dxguid.obj
 0002:00016420       _IID_IDirect3DRMAnimation2 100c6420     dxguid:dxguid.obj
 0002:00016430       _IID_IDirect3DRMAnimation  100c6430     dxguid:dxguid.obj
 0002:00016440       _IID_IDirect3DRMMaterial2  100c6440     dxguid:dxguid.obj
 0002:00016450       _IID_IDirect3DRMMaterial   100c6450     dxguid:dxguid.obj
 0002:00016460       _IID_IDirect3DRMWrap       100c6460     dxguid:dxguid.obj
 0002:00016470       _IID_IDirect3DRMTexture3   100c6470     dxguid:dxguid.obj
 0002:00016480       _IID_IDirect3DRMTexture2   100c6480     dxguid:dxguid.obj
 0002:00016490       _IID_IDirect3DRMTexture    100c6490     dxguid:dxguid.obj
 0002:000164a0       _IID_IDirect3DRMLight      100c64a0     dxguid:dxguid.obj
 0002:000164b0       _IID_IDirect3DRMFace2      100c64b0     dxguid:dxguid.obj
 0002:000164c0       _IID_IDirect3DRMFace       100c64c0     dxguid:dxguid.obj
 0002:000164d0       _IID_IDirect3DRMMeshBuilder3 100c64d0     dxguid:dxguid.obj
 0002:000164e0       _IID_IDirect3DRMMeshBuilder2 100c64e0     dxguid:dxguid.obj
 0002:000164f0       _IID_IDirect3DRMMeshBuilder 100c64f0     dxguid:dxguid.obj
 0002:00016500       _IID_IDirect3DRMMesh       100c6500     dxguid:dxguid.obj
 0002:00016510       _IID_IDirect3DRMVisual     100c6510     dxguid:dxguid.obj
 0002:00016520       _IID_IDirect3DRMFrame3     100c6520     dxguid:dxguid.obj
 0002:00016530       _IID_IDirect3DRMFrame2     100c6530     dxguid:dxguid.obj
 0002:00016540       _IID_IDirect3DRMFrame      100c6540     dxguid:dxguid.obj
 0002:00016550       _IID_IDirect3DRMViewport2  100c6550     dxguid:dxguid.obj
 0002:00016560       _IID_IDirect3DRMViewport   100c6560     dxguid:dxguid.obj
 0002:00016570       _IID_IDirect3DRMDevice3    100c6570     dxguid:dxguid.obj
 0002:00016580       _IID_IDirect3DRMDevice2    100c6580     dxguid:dxguid.obj
 0002:00016590       _IID_IDirect3DRMDevice     100c6590     dxguid:dxguid.obj
 0002:000165a0       _IID_IDirect3DRMObject2    100c65a0     dxguid:dxguid.obj
 0002:000165b0       _IID_IDirect3DRMObject     100c65b0     dxguid:dxguid.obj
 0002:000165c0       _CLSID_CDirect3DRMClippedVisual 100c65c0     dxguid:dxguid.obj
 0002:000165d0       _CLSID_CDirect3DRMProgressiveMesh 100c65d0     dxguid:dxguid.obj
 0002:000165e0       _CLSID_CDirect3DRMTextureInterpolator 100c65e0     dxguid:dxguid.obj
 0002:000165f0       _CLSID_CDirect3DRMMaterialInterpolator 100c65f0     dxguid:dxguid.obj
 0002:00016600       _CLSID_CDirect3DRMLightInterpolator 100c6600     dxguid:dxguid.obj
 0002:00016610       _CLSID_CDirect3DRMMeshInterpolator 100c6610     dxguid:dxguid.obj
 0002:00016620       _CLSID_CDirect3DRMFrameInterpolator 100c6620     dxguid:dxguid.obj
 0002:00016630       _CLSID_CDirect3DRMViewportInterpolator 100c6630     dxguid:dxguid.obj
 0002:00016640       _CLSID_CDirect3DRMShadow   100c6640     dxguid:dxguid.obj
 0002:00016650       _CLSID_CDirect3DRMUserVisual 100c6650     dxguid:dxguid.obj
 0002:00016660       _CLSID_CDirect3DRMAnimationSet 100c6660     dxguid:dxguid.obj
 0002:00016670       _CLSID_CDirect3DRMAnimation 100c6670     dxguid:dxguid.obj
 0002:00016680       _CLSID_CDirect3DRMMaterial 100c6680     dxguid:dxguid.obj
 0002:00016690       _CLSID_CDirect3DRMWrap     100c6690     dxguid:dxguid.obj
 0002:000166a0       _CLSID_CDirect3DRMTexture  100c66a0     dxguid:dxguid.obj
 0002:000166b0       _CLSID_CDirect3DRMLight    100c66b0     dxguid:dxguid.obj
 0002:000166c0       _CLSID_CDirect3DRMFace     100c66c0     dxguid:dxguid.obj
 0002:000166d0       _CLSID_CDirect3DRMMeshBuilder 100c66d0     dxguid:dxguid.obj
 0002:000166e0       _CLSID_CDirect3DRMMesh     100c66e0     dxguid:dxguid.obj
 0002:000166f0       _CLSID_CDirect3DRMFrame    100c66f0     dxguid:dxguid.obj
 0002:00016700       _CLSID_CDirect3DRMViewport 100c6700     dxguid:dxguid.obj
 0002:00016710       _CLSID_CDirect3DRMDevice   100c6710     dxguid:dxguid.obj
 0002:00016720       _IID_ID3DXAnimationMixer   100c6720     dxguid:dxguid.obj
 0002:00016730       _IID_ID3DXTechnique        100c6730     dxguid:dxguid.obj
 0002:00016740       _IID_ID3DXSkinMesh         100c6740     dxguid:dxguid.obj
 0002:00016750       _IID_IDirect3DSwapChain8   100c6750     dxguid:dxguid.obj
 0002:00016760       _IID_IDirect3DVolume8      100c6760     dxguid:dxguid.obj
 0002:00016770       _IID_IDirect3DSurface8     100c6770     dxguid:dxguid.obj
 0002:00016780       _IID_IDirect3DIndexBuffer8 100c6780     dxguid:dxguid.obj
 0002:00016790       _IID_IDirect3DVertexBuffer8 100c6790     dxguid:dxguid.obj
 0002:000167a0       _IID_IDirect3DVolumeTexture8 100c67a0     dxguid:dxguid.obj
 0002:000167b0       _IID_IDirect3DCubeTexture8 100c67b0     dxguid:dxguid.obj
 0002:000167c0       _IID_IDirect3DTexture8     100c67c0     dxguid:dxguid.obj
 0002:000167d0       _IID_IDirect3DBaseTexture8 100c67d0     dxguid:dxguid.obj
 0002:000167e0       _IID_IDirect3DResource8    100c67e0     dxguid:dxguid.obj
 0002:000167f0       _IID_IDirect3DDevice8      100c67f0     dxguid:dxguid.obj
 0002:00016800       _IID_IDirect3D8            100c6800     dxguid:dxguid.obj
 0002:00016810       _IID_IDirect3DVertexBuffer7 100c6810     dxguid:dxguid.obj
 0002:00016820       _IID_IDirect3DVertexBuffer 100c6820     dxguid:dxguid.obj
 0002:00016830       _IID_IDirect3DViewport3    100c6830     dxguid:dxguid.obj
 0002:00016840       _IID_IDirect3DViewport2    100c6840     dxguid:dxguid.obj
 0002:00016850       _IID_IDirect3DViewport     100c6850     dxguid:dxguid.obj
 0002:00016860       _IID_IDirect3DExecuteBuffer 100c6860     dxguid:dxguid.obj
 0002:00016870       _IID_IDirect3DMaterial3    100c6870     dxguid:dxguid.obj
 0002:00016880       _IID_IDirect3DMaterial2    100c6880     dxguid:dxguid.obj
 0002:00016890       _IID_IDirect3DMaterial     100c6890     dxguid:dxguid.obj
 0002:000168a0       _IID_IDirect3DLight        100c68a0     dxguid:dxguid.obj
 0002:000168b0       _IID_IDirect3DTexture2     100c68b0     dxguid:dxguid.obj
 0002:000168c0       _IID_IDirect3DTexture      100c68c0     dxguid:dxguid.obj
 0002:000168d0       _IID_IDirect3DDevice7      100c68d0     dxguid:dxguid.obj
 0002:000168e0       _IID_IDirect3DDevice3      100c68e0     dxguid:dxguid.obj
 0002:000168f0       _IID_IDirect3DDevice2      100c68f0     dxguid:dxguid.obj
 0002:00016900       _IID_IDirect3DDevice       100c6900     dxguid:dxguid.obj
 0002:00016910       _IID_IDirect3DTnLHalDevice 100c6910     dxguid:dxguid.obj
 0002:00016920       _IID_IDirect3DNullDevice   100c6920     dxguid:dxguid.obj
 0002:00016930       _IID_IDirect3DRefDevice    100c6930     dxguid:dxguid.obj
 0002:00016940       _IID_IDirect3DMMXDevice    100c6940     dxguid:dxguid.obj
 0002:00016950       _IID_IDirect3DHALDevice    100c6950     dxguid:dxguid.obj
 0002:00016960       _IID_IDirect3DRGBDevice    100c6960     dxguid:dxguid.obj
 0002:00016970       _IID_IDirect3DRampDevice   100c6970     dxguid:dxguid.obj
 0002:00016980       _IID_IDirect3D7            100c6980     dxguid:dxguid.obj
 0002:00016990       _IID_IDirect3D3            100c6990     dxguid:dxguid.obj
 0002:000169a0       _IID_IDirect3D2            100c69a0     dxguid:dxguid.obj
 0002:000169b0       _IID_IDirect3D             100c69b0     dxguid:dxguid.obj
 0002:000169c0       _DDVPTYPE_PHILIPS          100c69c0     dxguid:dxguid.obj
 0002:000169d0       _DDVPTYPE_BROOKTREE        100c69d0     dxguid:dxguid.obj
 0002:000169e0       _DDVPTYPE_CCIR656          100c69e0     dxguid:dxguid.obj
 0002:000169f0       _DDVPTYPE_E_HREFL_VREFL    100c69f0     dxguid:dxguid.obj
 0002:00016a00       _DDVPTYPE_E_HREFL_VREFH    100c6a00     dxguid:dxguid.obj
 0002:00016a10       _DDVPTYPE_E_HREFH_VREFL    100c6a10     dxguid:dxguid.obj
 0002:00016a20       _DDVPTYPE_E_HREFH_VREFH    100c6a20     dxguid:dxguid.obj
 0002:00016a30       _IID_IDirectDrawVideoPortNotify 100c6a30     dxguid:dxguid.obj
 0002:00016a40       _IID_IDirectDrawVideoPort  100c6a40     dxguid:dxguid.obj
 0002:00016a50       _IID_IDDVideoPortContainer 100c6a50     dxguid:dxguid.obj
 0002:00016a60       _GUID_DDMoreCaps           100c6a60     dxguid:dxguid.obj
 0002:00016a70       _GUID_Miscellaneous2Callbacks 100c6a70     dxguid:dxguid.obj
 0002:00016a80       _GUID_NTCallbacks          100c6a80     dxguid:dxguid.obj
 0002:00016a90       _GUID_MotionCompCallbacks  100c6a90     dxguid:dxguid.obj
 0002:00016aa0       _GUID_D3DParseUnknownCommandCallback 100c6aa0     dxguid:dxguid.obj
 0002:00016ab0       _GUID_UserModeDriverPassword 100c6ab0     dxguid:dxguid.obj
 0002:00016ac0       _GUID_UserModeDriverInfo   100c6ac0     dxguid:dxguid.obj
 0002:00016ad0       _GUID_OptSurfaceUmodeInfo  100c6ad0     dxguid:dxguid.obj
 0002:00016ae0       _GUID_OptSurfaceKmodeInfo  100c6ae0     dxguid:dxguid.obj
 0002:00016af0       _GUID_DDStereoMode         100c6af0     dxguid:dxguid.obj
 0002:00016b00       _GUID_DDMoreSurfaceCaps    100c6b00     dxguid:dxguid.obj
 0002:00016b10       _GUID_ZPixelFormats        100c6b10     dxguid:dxguid.obj
 0002:00016b20       _GUID_D3DExtendedCaps      100c6b20     dxguid:dxguid.obj
 0002:00016b30       _GUID_KernelCaps           100c6b30     dxguid:dxguid.obj
 0002:00016b40       _GUID_KernelCallbacks      100c6b40     dxguid:dxguid.obj
 0002:00016b50       _GUID_NonLocalVidMemCaps   100c6b50     dxguid:dxguid.obj
 0002:00016b60       _GUID_D3DCallbacks3        100c6b60     dxguid:dxguid.obj
 0002:00016b70       _GUID_D3DCallbacks2        100c6b70     dxguid:dxguid.obj
 0002:00016b80       _GUID_VideoPortCaps        100c6b80     dxguid:dxguid.obj
 0002:00016b90       _GUID_ColorControlCallbacks 100c6b90     dxguid:dxguid.obj
 0002:00016ba0       _GUID_VideoPortCallbacks   100c6ba0     dxguid:dxguid.obj
 0002:00016bb0       _GUID_MiscellaneousCallbacks 100c6bb0     dxguid:dxguid.obj
 0002:00016bc0       _IID_IDirectDrawGammaControl 100c6bc0     dxguid:dxguid.obj
 0002:00016bd0       _IID_IDirectDrawColorControl 100c6bd0     dxguid:dxguid.obj
 0002:00016be0       _IID_IDirectDrawClipper    100c6be0     dxguid:dxguid.obj
 0002:00016bf0       _IID_IDirectDrawPalette    100c6bf0     dxguid:dxguid.obj
 0002:00016c00       _IID_IDirectDrawPalette2   100c6c00     dxguid:dxguid.obj
 0002:00016c10       _IID_IDirectDrawOptSurface 100c6c10     dxguid:dxguid.obj
 0002:00016c20       _GUID_DirectDrawPaletteStream 100c6c20     dxguid:dxguid.obj
 0002:00016c30       _GUID_DirectDrawSurfaceStream 100c6c30     dxguid:dxguid.obj
 0002:00016c40       _IID_IDirectDrawFactory2   100c6c40     dxguid:dxguid.obj
 0002:00016c50       _CLSID_DirectDrawFactory2  100c6c50     dxguid:dxguid.obj
 0002:00016c60       _IID_IDirectDrawSurfaceNew 100c6c60     dxguid:dxguid.obj
 0002:00016c70       _IID_IDirectDrawSurface7   100c6c70     dxguid:dxguid.obj
 0002:00016c80       _IID_IDirectDrawSurface4   100c6c80     dxguid:dxguid.obj
 0002:00016c90       _IID_IDirectDrawSurface3   100c6c90     dxguid:dxguid.obj
 0002:00016ca0       _IID_IDirectDrawSurface2   100c6ca0     dxguid:dxguid.obj
 0002:00016cb0       _IID_IDirectDrawSurface    100c6cb0     dxguid:dxguid.obj
 0002:00016cc0       _IID_IDirectDraw7          100c6cc0     dxguid:dxguid.obj
 0002:00016cd0       _IID_IDirectDraw4          100c6cd0     dxguid:dxguid.obj
 0002:00016ce0       _IID_IDirectDraw2          100c6ce0     dxguid:dxguid.obj
 0002:00016cf0       _IID_IDirectDraw           100c6cf0     dxguid:dxguid.obj
 0002:00016d00       _CLSID_DirectDrawClipper   100c6d00     dxguid:dxguid.obj
 0002:00016d10       _CLSID_DirectDraw7         100c6d10     dxguid:dxguid.obj
 0002:00016d20       _CLSID_DirectDraw          100c6d20     dxguid:dxguid.obj
 0002:00016d30       _CodecIImageBytes          100c6d30     GdiPlus:imagingguds.obj
 0002:00016d40       _EncoderSaveFlag           100c6d40     GdiPlus:imagingguds.obj
 0002:00016d50       _EncoderChrominanceTable   100c6d50     GdiPlus:imagingguds.obj
 0002:00016d60       _EncoderLuminanceTable     100c6d60     GdiPlus:imagingguds.obj
 0002:00016d70       _EncoderTransformation     100c6d70     GdiPlus:imagingguds.obj
 0002:00016d80       _EncoderQuality            100c6d80     GdiPlus:imagingguds.obj
 0002:00016d90       _EncoderRenderMethod       100c6d90     GdiPlus:imagingguds.obj
 0002:00016da0       _EncoderVersion            100c6da0     GdiPlus:imagingguds.obj
 0002:00016db0       _EncoderScanMethod         100c6db0     GdiPlus:imagingguds.obj
 0002:00016dc0       _EncoderColorDepth         100c6dc0     GdiPlus:imagingguds.obj
 0002:00016dd0       _EncoderCompression        100c6dd0     GdiPlus:imagingguds.obj
 0002:00016de0       _FormatIDJpegAppHeaders    100c6de0     GdiPlus:imagingguds.obj
 0002:00016df0       _FormatIDImageInformation  100c6df0     GdiPlus:imagingguds.obj
 0002:00016e00       _FrameDimensionPage        100c6e00     GdiPlus:imagingguds.obj
 0002:00016e10       _FrameDimensionResolution  100c6e10     GdiPlus:imagingguds.obj
 0002:00016e20       _FrameDimensionTime        100c6e20     GdiPlus:imagingguds.obj
 0002:00016e30       _ImageFormatIcon           100c6e30     GdiPlus:imagingguds.obj
 0002:00016e40       _ImageFormatEXIF           100c6e40     GdiPlus:imagingguds.obj
 0002:00016e50       _ImageFormatTIFF           100c6e50     GdiPlus:imagingguds.obj
 0002:00016e60       _ImageFormatGIF            100c6e60     GdiPlus:imagingguds.obj
 0002:00016e70       _ImageFormatPNG            100c6e70     GdiPlus:imagingguds.obj
 0002:00016e80       _ImageFormatJPEG           100c6e80     GdiPlus:imagingguds.obj
 0002:00016e90       _ImageFormatWMF            100c6e90     GdiPlus:imagingguds.obj
 0002:00016ea0       _ImageFormatEMF            100c6ea0     GdiPlus:imagingguds.obj
 0002:00016eb0       _ImageFormatBMP            100c6eb0     GdiPlus:imagingguds.obj
 0002:00016ec0       _ImageFormatMemoryBMP      100c6ec0     GdiPlus:imagingguds.obj
 0002:00016ed0       _ImageFormatUndefined      100c6ed0     GdiPlus:imagingguds.obj
 0002:00016ee0       ??_C@_08JKC@crtdll?4c?$AA@ 100c6ee0     MSVCRTD:crtdll.obj
 0002:00016ef0       _IID_IUnknown              100c6ef0     uuid:unknwn_i_guid0.obj
 0002:00017498       __IMPORT_DESCRIPTOR_KERNEL32 100c7498     kernel32:KERNEL32.dll
 0002:000174ac       __IMPORT_DESCRIPTOR_USER32 100c74ac     user32:USER32.dll
 0002:000174c0       __IMPORT_DESCRIPTOR_ole32  100c74c0     ole32:ole32.dll
 0002:000174d4       __IMPORT_DESCRIPTOR_d3d9   100c74d4     d3d9:d3d9.dll
 0002:000174e8       __IMPORT_DESCRIPTOR_WINMM  100c74e8     winmm:WINMM.dll
 0002:000174fc       __IMPORT_DESCRIPTOR_DDRAW  100c74fc     ddraw:DDRAW.dll
 0002:00017510       __IMPORT_DESCRIPTOR_gdiplus 100c7510     GdiPlus:gdiplus.dll
 0002:00017524       __IMPORT_DESCRIPTOR_Engine 100c7524     engine:Engine.dll
 0002:00017538       __IMPORT_DESCRIPTOR_MSVCRTD 100c7538     MSVCRTD:MSVCRTD.dll
 0002:0001754c       __IMPORT_DESCRIPTOR_GDI32  100c754c     gdi32:GDI32.dll
 0002:00017560       __IMPORT_DESCRIPTOR_ADVAPI32 100c7560     advapi32:ADVAPI32.dll
 0002:00017574       __NULL_IMPORT_DESCRIPTOR   100c7574     kernel32:KERNEL32.dll
 0003:00000000       ___xc_a                    100c9000     MSVCRTD:cinitexe.obj
 0003:0000000c       ___xc_z                    100c900c     MSVCRTD:cinitexe.obj
 0003:00000010       ___xi_a                    100c9010     MSVCRTD:cinitexe.obj
 0003:00000014       ___xi_z                    100c9014     MSVCRTD:cinitexe.obj
 0003:00000350       ?g_PixelFormat@@3PAW4_D3DFORMAT@@A 100c9350     D3D_Shell.obj
 0003:000003d4       ?ms_AlphaCmpMethod@KFont3@@0IA 100c93d4     KFont3.obj
 0003:000003d8       ?ms_RenderText@KFont3@@0P6AXPAUKFontVertex@@I@ZA 100c93d8     KFont3.obj
 0003:000003dc       ?ms_uBorderColor@KFont3@@0IA 100c93dc     KFont3.obj
 0003:000003e0       ?m_bEnableTextBorder@KFontRes@@0HA 100c93e0     KFontRes.obj
 0003:000003e4       ?g_16BitFormat@@3W4_D3DFORMAT@@A 100c93e4     KRepresentShell3.obj
 0003:000003e8       ?g_bRunWindowed@@3_NA      100c93e8     KRepresentShell3.obj
 0003:000003ec       ?g_nScreenWidth@@3HA       100c93ec     KRepresentShell3.obj
 0003:000003f0       ?g_nScreenHeight@@3HA      100c93f0     KRepresentShell3.obj
 0003:000003f4       ?g_nBackBufferCount@@3IA   100c93f4     KRepresentShell3.obj
 0003:000003f8       ?g_bForce32Bit@@3_NA       100c93f8     KRepresentShell3.obj
 0003:000003fc       ?g_renderModel@@3W4RenderModel@@A 100c93fc     KRepresentShell3.obj
 0003:00000400       ?g_bUse4444Texture@@3_NA   100c9400     KRepresentShell3.obj
 0003:00001028       ?g_D3DXFastTable@@3UD3DXFASTTABLE@@A 100ca028     d3dx9dt:d3dxmath.obj
 0003:00001148       ?g_D3DXFastTableC@@3UD3DXFASTTABLE@@A 100ca148     d3dx9dt:d3dxmath.obj
 0003:0000126c       ?g_CpuOptimization@@3W4_D3DX_CPU_OPTIMIZATION@@A 100ca26c     d3dx9dt:cpudetect.obj
 0003:00001a98       ?g_pBoxFilter2D_A8R8G8B8@D3DXTex@@3P6GJPAI0IIII@ZA 100caa98     d3dx9dt:cblt.obj
 0003:00001a9c       ?g_pBoxFilter2D_X8R8G8B8@D3DXTex@@3P6GJPAI0IIII@ZA 100caa9c     d3dx9dt:cblt.obj
 0003:00003170       ?d3dxtok_lhs@D3DXShader@@3PAFA 100cc170     d3dx9dt:cpreprocessor.obj
 0003:000031d0       ?d3dxtok_len@D3DXShader@@3PAFA 100cc1d0     d3dx9dt:cpreprocessor.obj
 0003:00003230       ?d3dxtok_defred@D3DXShader@@3PAFA 100cc230     d3dx9dt:cpreprocessor.obj
 0003:000032d0       ?d3dxtok_dgoto@D3DXShader@@3PAFA 100cc2d0     d3dx9dt:cpreprocessor.obj
 0003:000032f0       ?d3dxtok_sindex@D3DXShader@@3PAFA 100cc2f0     d3dx9dt:cpreprocessor.obj
 0003:00003390       ?d3dxtok_rindex@D3DXShader@@3PAFA 100cc390     d3dx9dt:cpreprocessor.obj
 0003:00003430       ?d3dxtok_gindex@D3DXShader@@3PAFA 100cc430     d3dx9dt:cpreprocessor.obj
 0003:00003450       ?d3dxtok_table@D3DXShader@@3PAFA 100cc450     d3dx9dt:cpreprocessor.obj
 0003:00003738       ?d3dxtok_check@D3DXShader@@3PAFA 100cc738     d3dx9dt:cpreprocessor.obj
 0003:00003a20       ?d3dxasm_lhs@D3DXShader@@3PAFA 100cca20     d3dx9dt:cassembler.obj
 0003:00003aa0       ?d3dxasm_len@D3DXShader@@3PAFA 100ccaa0     d3dx9dt:cassembler.obj
 0003:00003b20       ?d3dxasm_defred@D3DXShader@@3PAFA 100ccb20     d3dx9dt:cassembler.obj
 0003:00003c28       ?d3dxasm_dgoto@D3DXShader@@3PAFA 100ccc28     d3dx9dt:cassembler.obj
 0003:00003c68       ?d3dxasm_sindex@D3DXShader@@3PAFA 100ccc68     d3dx9dt:cassembler.obj
 0003:00003d70       ?d3dxasm_rindex@D3DXShader@@3PAFA 100ccd70     d3dx9dt:cassembler.obj
 0003:00003e78       ?d3dxasm_gindex@D3DXShader@@3PAFA 100cce78     d3dx9dt:cassembler.obj
 0003:00003eb8       ?d3dxasm_table@D3DXShader@@3PAFA 100cceb8     d3dx9dt:cassembler.obj
 0003:00004108       ?d3dxasm_check@D3DXShader@@3PAFA 100cd108     d3dx9dt:cassembler.obj
 0003:00004358       ?s_szVersionString@CAssembler@D3DXShader@@1PBDB 100cd358     d3dx9dt:cassembler.obj
 0003:00004360       ?s_dbPi@@3NA               100cd360     d3dx9dt:d3dxtrigsse.obj
 0003:000049d8       ?d3dxshader_lhs@D3DXShader@@3PAFA 100cd9d8     d3dx9dt:cparse.obj
 0003:00004c20       ?d3dxshader_len@D3DXShader@@3PAFA 100cdc20     d3dx9dt:cparse.obj
 0003:00004e68       ?d3dxshader_defred@D3DXShader@@3PAFA 100cde68     d3dx9dt:cparse.obj
 0003:00005228       ?d3dxshader_dgoto@D3DXShader@@3PAFA 100ce228     d3dx9dt:cparse.obj
 0003:00005310       ?d3dxshader_sindex@D3DXShader@@3PAFA 100ce310     d3dx9dt:cparse.obj
 0003:000056d0       ?d3dxshader_rindex@D3DXShader@@3PAFA 100ce6d0     d3dx9dt:cparse.obj
 0003:00005a90       ?d3dxshader_gindex@D3DXShader@@3PAFA 100cea90     d3dx9dt:cparse.obj
 0003:00005b78       ?d3dxshader_table@D3DXShader@@3PAFA 100ceb78     d3dx9dt:cparse.obj
 0003:000075c0       ?d3dxshader_check@D3DXShader@@3PAFA 100d05c0     d3dx9dt:cparse.obj
 0003:00009050       ?g_LegacySwizzle@D3DXShader@@3PAIA 100d2050     d3dx9dt:cpslegacyprogram.obj
 0003:000090a0       ?g_SwizzleL@D3DXShader@@3PAIA 100d20a0     d3dx9dt:cpslegacyprogram.obj
 0003:00009120       ?g_Swizzle@D3DXShader@@3PAIA 100d2120     d3dx9dt:cpsprogram.obj
 0003:0000a2f8       _d3dx_inflate_mask         100d32f8     d3dx9dt:infutil.obj
 0003:0000a33c       ?s_szVersionString@CShaderProgram@D3DXShader@@1PBDB 100d333c     d3dx9dt:cshaderprogram.obj
 0003:0000a340       ?g_Device@@3VCD3D_Device@@A 100d3340     D3D_Device.obj
 0003:0000a4e8       ?g_D3DShell@@3VCD3D_Shell@@A 100d34e8     D3D_Shell.obj
 0003:0000a50c       ?ms_pd3dDevice@KFont3@@0PAUIDirect3DDevice9@@A 100d350c     KFont3.obj
