 S3Relay

 Timestamp is 65dfd23c (Thu Feb 29 07:39:24 2024)

 Preferred load address is 00400000

 Start         Length     Name                   Class
 0001:00000000 000ce5e0H .text                   CODE
 0001:000ce5e0 0000453aH .text$x                 CODE
 0002:00000000 0000028cH .idata$5                DATA
 0002:00000290 00003d74H .rdata                  DATA
 0002:00004008 0000017cH .rdata$r                DATA
 0002:00004188 00005f90H .xdata$x                DATA
 0002:0000a118 00000064H .idata$2                DATA
 0002:0000a17c 00000014H .idata$3                DATA
 0002:0000a190 0000028cH .idata$4                DATA
 0002:0000a41c 00000b94H .idata$6                DATA
 0002:0000afb0 00000000H .edata                  DATA
 0003:00000000 00000004H .CRT$XCA                DATA
 0003:00000004 00000110H .CRT$XCU                DATA
 0003:00000114 00000004H .CRT$XCZ                DATA
 0003:00000118 00000004H .CRT$XIA                DATA
 0003:0000011c 0000000cH .CRT$XIC                DATA
 0003:00000128 00000004H .CRT$XIY                DATA
 0003:0000012c 00000004H .CRT$XIZ                DATA
 0003:00000130 00000004H .CRT$XPA                DATA
 0003:00000134 00000004H .CRT$XPX                DATA
 0003:00000138 00000004H .CRT$XPZ                DATA
 0003:0000013c 00000004H .CRT$XTA                DATA
 0003:00000140 00000004H .CRT$XTB                DATA
 0003:00000144 00000004H .CRT$XTZ                DATA
 0003:00000150 0000af4cH .data                   DATA
 0003:0000b0a0 0025a6e8H .bss                    DATA
 0004:00000000 00000280H .rsrc$01                DATA
 0004:00000280 00000bc0H .rsrc$02                DATA

  Address         Publics by Value              Rva+Base     Lib:Object

 0001:00000000       ??0CChannelMgr@@QAE@XZ     00401000 f   ChannelMgr.obj
 0001:0000016d       ??1CChannelMgr@@UAE@XZ     0040116d f   ChannelMgr.obj
 0001:000001f7       ?Initialize@CChannelMgr@@QAEHXZ 004011f7 f   ChannelMgr.obj
 0001:000007a3       ?Uninitialize@CChannelMgr@@QAEHXZ 004017a3 f   ChannelMgr.obj
 0001:00000885       ?GenChannID@CChannelMgr@@AAEKXZ 00401885 f   ChannelMgr.obj
 0001:00000920       ?GetChannelName@CChannelMgr@@QAE?AV?$basic_string@DU?$char_traits@D@std@@V?$allocator@D@2@@std@@KH@Z 00401920 f   ChannelMgr.obj
 0001:00000a50       ?GetChannelID@CChannelMgr@@QAEKABV?$basic_string@DU?$char_traits@D@std@@V?$allocator@D@2@@std@@K@Z 00401a50 f   ChannelMgr.obj
 0001:00000b95       ?IsSubscribed@CChannelMgr@@QAEHKKK@Z 00401b95 f   ChannelMgr.obj
 0001:00000c88       ?GmSubscribe@CChannelMgr@@QAEHK@Z 00401c88 f   ChannelMgr.obj
 0001:00000d1a       ?GmUnsubscribe@CChannelMgr@@QAEHK@Z 00401d1a f   ChannelMgr.obj
 0001:00000d9f       ?IsGmSubscribed@CChannelMgr@@QAEHK@Z 00401d9f f   ChannelMgr.obj
 0001:00000e11       ?GmQueryChannelID@CChannelMgr@@QAEHABV?$basic_string@DU?$char_traits@D@std@@V?$allocator@D@2@@std@@H@Z 00401e11 f   ChannelMgr.obj
 0001:00001015       ?GmFreeChannID@CChannelMgr@@QAEHK@Z 00402015 f   ChannelMgr.obj
 0001:000010ea       ?IsUsed@CChannelMgr@@QAEHKKK@Z 004020ea f   ChannelMgr.obj
 0001:000011c1       ?IsGmUsed@CChannelMgr@@QAEHK@Z 004021c1 f   ChannelMgr.obj
 0001:00001221       ?MakeChannelName@CChannelMgr@@QAE?AV?$basic_string@DU?$char_traits@D@std@@V?$allocator@D@2@@std@@ABV23@K@Z 00402221 f   ChannelMgr.obj
 0001:0000179d       ?ReduceChannelName@CChannelMgr@@QAE?AV?$basic_string@DU?$char_traits@D@std@@V?$allocator@D@2@@std@@ABV23@@Z 0040279d f   ChannelMgr.obj
 0001:00001a07       ?ParseChannelName@CChannelMgr@@QAEKABV?$basic_string@DU?$char_traits@D@std@@V?$allocator@D@2@@std@@PAK@Z 00402a07 f   ChannelMgr.obj
 0001:00001cda       ?GainPreCost@CChannelMgr@@QAEEABV?$basic_string@DU?$char_traits@D@std@@V?$allocator@D@2@@std@@@Z 00402cda f   ChannelMgr.obj
 0001:00001de0       ?GetGMChannID@CChannelMgr@@QAEKXZ 00402de0 f   ChannelMgr.obj
 0001:00001df1       ?IsGodChannel@CChannelMgr@@QAEHK@Z 00402df1 f   ChannelMgr.obj
 0001:00001e54       ?IsStockChannel@CChannelMgr@@QAEHK@Z 00402e54 f   ChannelMgr.obj
 0001:00001eb8       ?PassToSpecMan@CChannelMgr@@AAEHKKKPBXI@Z 00402eb8 f   ChannelMgr.obj
 0001:00001fc1       ?PassToGroupMan@CChannelMgr@@AAEHKHABV?$list@UtagPlusSrcInfo@@V?$allocator@UtagPlusSrcInfo@@@std@@@std@@PBXI@Z 00402fc1 f   ChannelMgr.obj
 0001:0000222a       ?PassToGM@CChannelMgr@@AAEHPBXI@Z 0040322a f   ChannelMgr.obj
 0001:000022d7       ?IsValidTeamID@CChannelMgr@@AAEHK@Z 004032d7 f   ChannelMgr.obj
 0001:00002324       ?IsValidKimID@CChannelMgr@@AAEHK@Z 00403324 f   ChannelMgr.obj
 0001:00002371       ?IsValidFacID@CChannelMgr@@AAEHK@Z 00403371 f   ChannelMgr.obj
 0001:000023be       ?IsValidTongID@CChannelMgr@@AAEHK@Z 004033be f   ChannelMgr.obj
 0001:0000240b       ?SomeoneChat@CChannelMgr@@QAEHKABUtagPlusSrcInfo@@PBUCHAT_SOMEONECHAT_CMD@@@Z 0040340b f   ChannelMgr.obj
 0001:00002720       ?ChannelChat@CChannelMgr@@QAEHKABUtagPlusSrcInfo@@PBUCHAT_CHANNELCHAT_CMD@@@Z 00403720 f   ChannelMgr.obj
 0001:000031bb       ?IsNeedRelegate@CChannelMgr@@AAEHABV?$basic_string@DU?$char_traits@D@std@@V?$allocator@D@2@@std@@H@Z 004041bb f   ChannelMgr.obj
 0001:0000320c       ?QueryChannelID@CChannelMgr@@QAEHABV?$basic_string@DU?$char_traits@D@std@@V?$allocator@D@2@@std@@KKK@Z 0040420c f   ChannelMgr.obj
 0001:0000321d       ?Subscribe@CChannelMgr@@QAEHKKK@Z 0040421d f   ChannelMgr.obj
 0001:0000322e       ?Unsubscribe@CChannelMgr@@QAEHKKK@Z 0040422e f   ChannelMgr.obj
 0001:0000323f       ?FreeChannID@CChannelMgr@@QAEHKKK@Z 0040423f f   ChannelMgr.obj
 0001:00003250       ?ClearPlayer@CChannelMgr@@QAEHKK@Z 00404250 f   ChannelMgr.obj
 0001:00003261       ?DoBlockOp@CChannelMgr@@QAEKK@Z 00404261 f   ChannelMgr.obj
 0001:00003474       ?Block_QueryChannelID@CChannelMgr@@AAEHABV?$basic_string@DU?$char_traits@D@std@@V?$allocator@D@2@@std@@KKK@Z 00404474 f   ChannelMgr.obj
 0001:000038af       ?Block_Subscribe@CChannelMgr@@AAEHKKK@Z 004048af f   ChannelMgr.obj
 0001:000039c6       ?Block_Unsubscribe@CChannelMgr@@AAEHKKK@Z 004049c6 f   ChannelMgr.obj
 0001:00003aed       ?Block_FreeChannID@CChannelMgr@@AAEHKKK@Z 00404aed f   ChannelMgr.obj
 0001:00003c82       ?Block_ClearPlayer@CChannelMgr@@AAEHKK@Z 00404c82 f   ChannelMgr.obj
 0001:00003e15       ?B_QueryChannelID@CChannelMgr@@QAEHABV?$basic_string@DU?$char_traits@D@std@@V?$allocator@D@2@@std@@KKK@Z 00404e15 f   ChannelMgr.obj
 0001:00003e3a       ?B_Subscribe@CChannelMgr@@QAEHKKK@Z 00404e3a f   ChannelMgr.obj
 0001:00003e5b       ?B_Unsubscribe@CChannelMgr@@QAEHKKK@Z 00404e5b f   ChannelMgr.obj
 0001:00003e7c       ?B_FreeChannID@CChannelMgr@@QAEHKKK@Z 00404e7c f   ChannelMgr.obj
 0001:00003e9d       ?B_ClearPlayer@CChannelMgr@@QAEHKK@Z 00404e9d f   ChannelMgr.obj
 0001:00003eba       ?GetChannelCount@CChannelMgr@@QAEIXZ 00404eba f   ChannelMgr.obj
 0001:00003ed0       ?SayOnSomeone@CChannelMgr@@QAEHKKKABV?$basic_string@DU?$char_traits@D@std@@V?$allocator@D@2@@std@@0@Z 00404ed0 f   ChannelMgr.obj
 0001:00004031       ?SayOnChannel@CChannelMgr@@QAEHKHABV?$basic_string@DU?$char_traits@D@std@@V?$allocator@D@2@@std@@00@Z 00405031 f   ChannelMgr.obj
 0001:00004810       ??_GCChannelMgr@@UAEPAXI@Z 00405810 f i ChannelMgr.obj
 0001:00004810       ??_ECChannelMgr@@UAEPAXI@Z 00405810 f i ChannelMgr.obj
 0001:00004840       ??1?$map@KUCHANNINFO@CChannelMgr@@U?$less@K@std@@V?$allocator@UCHANNINFO@CChannelMgr@@@4@@std@@QAE@XZ 00405840 f i ChannelMgr.obj
 0001:00004860       ??1?$map@V?$basic_string@DU?$char_traits@D@std@@V?$allocator@D@2@@std@@KU_tstring_less@@V?$allocator@K@2@@std@@QAE@XZ 00405860 f i ChannelMgr.obj
 0001:00004880       ??1?$map@KV?$list@PAU_BLOCKCHANNELOP@CChannelMgr@@V?$allocator@PAU_BLOCKCHANNELOP@CChannelMgr@@@std@@@std@@U?$less@K@2@V?$allocator@V?$list@PAU_BLOCKCHANNELOP@CChannelMgr@@V?$allocator@PAU_BLOCKCHANNELOP@CChannelMgr@@@std@@@std@@@2@@std@@QAE@XZ 00405880 f i ChannelMgr.obj
 0001:000048a0       ??R_tstring_equal@@QBE_NABV?$basic_string@DU?$char_traits@D@std@@V?$allocator@D@2@@std@@0@Z 004058a0 f i ChannelMgr.obj
 0001:000048f0       __tcscmp                   004058f0 f i ChannelMgr.obj
 0001:00004910       ??1CNetConnectDup@@UAE@XZ  00405910 f i ChannelMgr.obj
 0001:00004940       ?IsValid@CNetConnectDup@@QBEHXZ 00405940 f i ChannelMgr.obj
 0001:00004960       ??_ECNetConnectDup@@UAEPAXI@Z 00405960 f i ChannelMgr.obj
 0001:00004960       ??_GCNetConnectDup@@UAEPAXI@Z 00405960 f i ChannelMgr.obj
 0001:00004990       ??0CNetConnectDup@@QAE@XZ  00405990 f i ChannelMgr.obj
 0001:000049d0       ?GetIP@CNetConnectDup@@QBEKXZ 004059d0 f i ChannelMgr.obj
 0001:000049f0       ?IsReady@CNetClient@@QBEHXZ 004059f0 f i ChannelMgr.obj
 0001:00004a30       ??0?$basic_string@DU?$char_traits@D@std@@V?$allocator@D@2@@std@@QAE@ABV?$allocator@D@1@@Z 00405a30 f i ChannelMgr.obj
 0001:00004a60       ??0?$basic_string@DU?$char_traits@D@std@@V?$allocator@D@2@@std@@QAE@ABV01@@Z 00405a60 f i ChannelMgr.obj
 0001:00004aa0       ??0?$basic_string@DU?$char_traits@D@std@@V?$allocator@D@2@@std@@QAE@PBDIABV?$allocator@D@1@@Z 00405aa0 f i ChannelMgr.obj
 0001:00004ae0       ??0?$basic_string@DU?$char_traits@D@std@@V?$allocator@D@2@@std@@QAE@PBDABV?$allocator@D@1@@Z 00405ae0 f i ChannelMgr.obj
 0001:00004b10       ??1?$basic_string@DU?$char_traits@D@std@@V?$allocator@D@2@@std@@QAE@XZ 00405b10 f i ChannelMgr.obj
 0001:00004b30       ??4?$basic_string@DU?$char_traits@D@std@@V?$allocator@D@2@@std@@QAEAAV01@ABV01@@Z 00405b30 f i ChannelMgr.obj
 0001:00004b50       ??Y?$basic_string@DU?$char_traits@D@std@@V?$allocator@D@2@@std@@QAEAAV01@PBD@Z 00405b50 f i ChannelMgr.obj
 0001:00004b70       ??Y?$basic_string@DU?$char_traits@D@std@@V?$allocator@D@2@@std@@QAEAAV01@D@Z 00405b70 f i ChannelMgr.obj
 0001:00004b90       ??A?$basic_string@DU?$char_traits@D@std@@V?$allocator@D@2@@std@@QAEAADI@Z 00405b90 f i ChannelMgr.obj
 0001:00004bd0       ??A?$basic_string@DU?$char_traits@D@std@@V?$allocator@D@2@@std@@QBEABDI@Z 00405bd0 f i ChannelMgr.obj
 0001:00004c00       ?c_str@?$basic_string@DU?$char_traits@D@std@@V?$allocator@D@2@@std@@QBEPBDXZ 00405c00 f i ChannelMgr.obj
 0001:00004c30       ?data@?$basic_string@DU?$char_traits@D@std@@V?$allocator@D@2@@std@@QBEPBDXZ 00405c30 f i ChannelMgr.obj
 0001:00004c50       ?size@?$basic_string@DU?$char_traits@D@std@@V?$allocator@D@2@@std@@QBEIXZ 00405c50 f i ChannelMgr.obj
 0001:00004c70       ?empty@?$basic_string@DU?$char_traits@D@std@@V?$allocator@D@2@@std@@QBE_NXZ 00405c70 f i ChannelMgr.obj
 0001:00004c90       ?find_last_of@?$basic_string@DU?$char_traits@D@std@@V?$allocator@D@2@@std@@QBEIDI@Z 00405c90 f i ChannelMgr.obj
 0001:00004cb0       ?find_last_not_of@?$basic_string@DU?$char_traits@D@std@@V?$allocator@D@2@@std@@QBEIPBDI@Z 00405cb0 f i ChannelMgr.obj
 0001:00004ce0       ?length@?$char_traits@D@std@@SAIPBD@Z 00405ce0 f i ChannelMgr.obj
 0001:00004d00       ?begin@?$map@KV?$map@KUPLAYERINFO@CChannelMgr@@U?$less@K@std@@V?$allocator@UPLAYERINFO@CChannelMgr@@@4@@std@@U?$less@K@2@V?$allocator@V?$map@KUPLAYERINFO@CChannelMgr@@U?$less@K@std@@V?$allocator@UPLAYERINFO@CChannelMgr@@@4@@std@@@2@@std@@QAE?AViterator@?$_Tree@KU?$pair@$$CBKV?$map@KUPLAYERINFO@CChannelMgr@@U?$less@K@std@@V?$allocator@UPLAYERINFO@CChannelMgr@@@4@@std@@@std@@U_Kfn@?$map@KV?$map@KUPLAYERINFO@CChannelMgr@@U?$less@K@std@@V?$allocator@UPLAYERINFO@CChannelMgr@@@4@@std@@U?$less@K@2@V?$allocator@V?$map@KUPLAYERINFO@CChannelMgr@@U?$less@K@std@@V?$allocator@UPLAYERINFO@CChannelMgr@@@4@@std@@@2@@2@U?$less@K@2@V?$allocator@V?$map@KUPLAYERINFO@CChannelMgr@@U?$less@K@std@@V?$allocator@UPLAYERINFO@CChannelMgr@@@4@@std@@@2@@2@XZ 00405d00 f i ChannelMgr.obj
 0001:00004d30       ?end@?$map@KV?$map@KUPLAYERINFO@CChannelMgr@@U?$less@K@std@@V?$allocator@UPLAYERINFO@CChannelMgr@@@4@@std@@U?$less@K@2@V?$allocator@V?$map@KUPLAYERINFO@CChannelMgr@@U?$less@K@std@@V?$allocator@UPLAYERINFO@CChannelMgr@@@4@@std@@@2@@std@@QAE?AViterator@?$_Tree@KU?$pair@$$CBKV?$map@KUPLAYERINFO@CChannelMgr@@U?$less@K@std@@V?$allocator@UPLAYERINFO@CChannelMgr@@@4@@std@@@std@@U_Kfn@?$map@KV?$map@KUPLAYERINFO@CChannelMgr@@U?$less@K@std@@V?$allocator@UPLAYERINFO@CChannelMgr@@@4@@std@@U?$less@K@2@V?$allocator@V?$map@KUPLAYERINFO@CChannelMgr@@U?$less@K@std@@V?$allocator@UPLAYERINFO@CChannelMgr@@@4@@std@@@2@@2@U?$less@K@2@V?$allocator@V?$map@KUPLAYERINFO@CChannelMgr@@U?$less@K@std@@V?$allocator@UPLAYERINFO@CChannelMgr@@@4@@std@@@2@@2@XZ 00405d30 f i ChannelMgr.obj
 0001:00004d60       ?empty@?$map@KV?$map@KUPLAYERINFO@CChannelMgr@@U?$less@K@std@@V?$allocator@UPLAYERINFO@CChannelMgr@@@4@@std@@U?$less@K@2@V?$allocator@V?$map@KUPLAYERINFO@CChannelMgr@@U?$less@K@std@@V?$allocator@UPLAYERINFO@CChannelMgr@@@4@@std@@@2@@std@@QBE_NXZ 00405d60 f i ChannelMgr.obj
 0001:00004d80       ??A?$map@KV?$map@KUPLAYERINFO@CChannelMgr@@U?$less@K@std@@V?$allocator@UPLAYERINFO@CChannelMgr@@@4@@std@@U?$less@K@2@V?$allocator@V?$map@KUPLAYERINFO@CChannelMgr@@U?$less@K@std@@V?$allocator@UPLAYERINFO@CChannelMgr@@@4@@std@@@2@@std@@QAEAAV?$map@KUPLAYERINFO@CChannelMgr@@U?$less@K@std@@V?$allocator@UPLAYERINFO@CChannelMgr@@@4@@1@ABK@Z 00405d80 f i ChannelMgr.obj
 0001:00004e30       ?erase@?$map@KV?$map@KUPLAYERINFO@CChannelMgr@@U?$less@K@std@@V?$allocator@UPLAYERINFO@CChannelMgr@@@4@@std@@U?$less@K@2@V?$allocator@V?$map@KUPLAYERINFO@CChannelMgr@@U?$less@K@std@@V?$allocator@UPLAYERINFO@CChannelMgr@@@4@@std@@@2@@std@@QAE?AViterator@?$_Tree@KU?$pair@$$CBKV?$map@KUPLAYERINFO@CChannelMgr@@U?$less@K@std@@V?$allocator@UPLAYERINFO@CChannelMgr@@@4@@std@@@std@@U_Kfn@?$map@KV?$map@KUPLAYERINFO@CChannelMgr@@U?$less@K@std@@V?$allocator@UPLAYERINFO@CChannelMgr@@@4@@std@@U?$less@K@2@V?$allocator@V?$map@KUPLAYERINFO@CChannelMgr@@U?$less@K@std@@V?$allocator@UPLAYERINFO@CChannelMgr@@@4@@std@@@2@@2@U?$less@K@2@V?$allocator@V?$map@KUPLAYERINFO@CChannelMgr@@U?$less@K@std@@V?$allocator@UPLAYERINFO@CChannelMgr@@@4@@std@@@2@@2@V342@@Z 00405e30 f i ChannelMgr.obj
 0001:00004e60       ?find@?$map@KV?$map@KUPLAYERINFO@CChannelMgr@@U?$less@K@std@@V?$allocator@UPLAYERINFO@CChannelMgr@@@4@@std@@U?$less@K@2@V?$allocator@V?$map@KUPLAYERINFO@CChannelMgr@@U?$less@K@std@@V?$allocator@UPLAYERINFO@CChannelMgr@@@4@@std@@@2@@std@@QAE?AViterator@?$_Tree@KU?$pair@$$CBKV?$map@KUPLAYERINFO@CChannelMgr@@U?$less@K@std@@V?$allocator@UPLAYERINFO@CChannelMgr@@@4@@std@@@std@@U_Kfn@?$map@KV?$map@KUPLAYERINFO@CChannelMgr@@U?$less@K@std@@V?$allocator@UPLAYERINFO@CChannelMgr@@@4@@std@@U?$less@K@2@V?$allocator@V?$map@KUPLAYERINFO@CChannelMgr@@U?$less@K@std@@V?$allocator@UPLAYERINFO@CChannelMgr@@@4@@std@@@2@@2@U?$less@K@2@V?$allocator@V?$map@KUPLAYERINFO@CChannelMgr@@U?$less@K@std@@V?$allocator@UPLAYERINFO@CChannelMgr@@@4@@std@@@2@@2@ABK@Z 00405e60 f i ChannelMgr.obj
 0001:00004e90       ?begin@?$map@KUPLAYERINFO@CChannelMgr@@U?$less@K@std@@V?$allocator@UPLAYERINFO@CChannelMgr@@@4@@std@@QAE?AViterator@?$_Tree@KU?$pair@$$CBKUPLAYERINFO@CChannelMgr@@@std@@U_Kfn@?$map@KUPLAYERINFO@CChannelMgr@@U?$less@K@std@@V?$allocator@UPLAYERINFO@CChannelMgr@@@4@@2@U?$less@K@2@V?$allocator@UPLAYERINFO@CChannelMgr@@@2@@2@XZ 00405e90 f i ChannelMgr.obj
 0001:00004ec0       ?end@?$map@KUPLAYERINFO@CChannelMgr@@U?$less@K@std@@V?$allocator@UPLAYERINFO@CChannelMgr@@@4@@std@@QAE?AViterator@?$_Tree@KU?$pair@$$CBKUPLAYERINFO@CChannelMgr@@@std@@U_Kfn@?$map@KUPLAYERINFO@CChannelMgr@@U?$less@K@std@@V?$allocator@UPLAYERINFO@CChannelMgr@@@4@@2@U?$less@K@2@V?$allocator@UPLAYERINFO@CChannelMgr@@@2@@2@XZ 00405ec0 f i ChannelMgr.obj
 0001:00004ef0       ?empty@?$map@KUPLAYERINFO@CChannelMgr@@U?$less@K@std@@V?$allocator@UPLAYERINFO@CChannelMgr@@@4@@std@@QBE_NXZ 00405ef0 f i ChannelMgr.obj
 0001:00004f10       ??A?$map@KUPLAYERINFO@CChannelMgr@@U?$less@K@std@@V?$allocator@UPLAYERINFO@CChannelMgr@@@4@@std@@QAEAAUPLAYERINFO@CChannelMgr@@ABK@Z 00405f10 f i ChannelMgr.obj
 0001:00004f50       ?erase@?$map@KUPLAYERINFO@CChannelMgr@@U?$less@K@std@@V?$allocator@UPLAYERINFO@CChannelMgr@@@4@@std@@QAEIABK@Z 00405f50 f i ChannelMgr.obj
 0001:00004f70       ?find@?$map@KUPLAYERINFO@CChannelMgr@@U?$less@K@std@@V?$allocator@UPLAYERINFO@CChannelMgr@@@4@@std@@QAE?AViterator@?$_Tree@KU?$pair@$$CBKUPLAYERINFO@CChannelMgr@@@std@@U_Kfn@?$map@KUPLAYERINFO@CChannelMgr@@U?$less@K@std@@V?$allocator@UPLAYERINFO@CChannelMgr@@@4@@2@U?$less@K@2@V?$allocator@UPLAYERINFO@CChannelMgr@@@2@@2@ABK@Z 00405f70 f i ChannelMgr.obj
 0001:00004fa0       ??Diterator@?$_Tree@KU?$pair@$$CBKUPLAYERINFO@CChannelMgr@@@std@@U_Kfn@?$map@KUPLAYERINFO@CChannelMgr@@U?$less@K@std@@V?$allocator@UPLAYERINFO@CChannelMgr@@@4@@2@U?$less@K@2@V?$allocator@UPLAYERINFO@CChannelMgr@@@2@@std@@QBEAAU?$pair@$$CBKUPLAYERINFO@CChannelMgr@@@2@XZ 00405fa0 f i ChannelMgr.obj
 0001:00004fc0       ??Eiterator@?$_Tree@KU?$pair@$$CBKUPLAYERINFO@CChannelMgr@@@std@@U_Kfn@?$map@KUPLAYERINFO@CChannelMgr@@U?$less@K@std@@V?$allocator@UPLAYERINFO@CChannelMgr@@@4@@2@U?$less@K@2@V?$allocator@UPLAYERINFO@CChannelMgr@@@2@@std@@QAE?AV012@H@Z 00405fc0 f i ChannelMgr.obj
 0001:00004ff0       ??8iterator@?$_Tree@KU?$pair@$$CBKUPLAYERINFO@CChannelMgr@@@std@@U_Kfn@?$map@KUPLAYERINFO@CChannelMgr@@U?$less@K@std@@V?$allocator@UPLAYERINFO@CChannelMgr@@@4@@2@U?$less@K@2@V?$allocator@UPLAYERINFO@CChannelMgr@@@2@@std@@QBE_NABV012@@Z 00405ff0 f i ChannelMgr.obj
 0001:00005010       ??9iterator@?$_Tree@KU?$pair@$$CBKUPLAYERINFO@CChannelMgr@@@std@@U_Kfn@?$map@KUPLAYERINFO@CChannelMgr@@U?$less@K@std@@V?$allocator@UPLAYERINFO@CChannelMgr@@@4@@2@U?$less@K@2@V?$allocator@UPLAYERINFO@CChannelMgr@@@2@@std@@QBE_NABV012@@Z 00406010 f i ChannelMgr.obj
 0001:00005040       ??Diterator@?$_Tree@KU?$pair@$$CBKV?$map@KUPLAYERINFO@CChannelMgr@@U?$less@K@std@@V?$allocator@UPLAYERINFO@CChannelMgr@@@4@@std@@@std@@U_Kfn@?$map@KV?$map@KUPLAYERINFO@CChannelMgr@@U?$less@K@std@@V?$allocator@UPLAYERINFO@CChannelMgr@@@4@@std@@U?$less@K@2@V?$allocator@V?$map@KUPLAYERINFO@CChannelMgr@@U?$less@K@std@@V?$allocator@UPLAYERINFO@CChannelMgr@@@4@@std@@@2@@2@U?$less@K@2@V?$allocator@V?$map@KUPLAYERINFO@CChannelMgr@@U?$less@K@std@@V?$allocator@UPLAYERINFO@CChannelMgr@@@4@@std@@@2@@std@@QBEAAU?$pair@$$CBKV?$map@KUPLAYERINFO@CChannelMgr@@U?$less@K@std@@V?$allocator@UPLAYERINFO@CChannelMgr@@@4@@std@@@2@XZ 00406040 f i ChannelMgr.obj
 0001:00005060       ??Eiterator@?$_Tree@KU?$pair@$$CBKV?$map@KUPLAYERINFO@CChannelMgr@@U?$less@K@std@@V?$allocator@UPLAYERINFO@CChannelMgr@@@4@@std@@@std@@U_Kfn@?$map@KV?$map@KUPLAYERINFO@CChannelMgr@@U?$less@K@std@@V?$allocator@UPLAYERINFO@CChannelMgr@@@4@@std@@U?$less@K@2@V?$allocator@V?$map@KUPLAYERINFO@CChannelMgr@@U?$less@K@std@@V?$allocator@UPLAYERINFO@CChannelMgr@@@4@@std@@@2@@2@U?$less@K@2@V?$allocator@V?$map@KUPLAYERINFO@CChannelMgr@@U?$less@K@std@@V?$allocator@UPLAYERINFO@CChannelMgr@@@4@@std@@@2@@std@@QAE?AV012@H@Z 00406060 f i ChannelMgr.obj
 0001:00005090       ??8iterator@?$_Tree@KU?$pair@$$CBKV?$map@KUPLAYERINFO@CChannelMgr@@U?$less@K@std@@V?$allocator@UPLAYERINFO@CChannelMgr@@@4@@std@@@std@@U_Kfn@?$map@KV?$map@KUPLAYERINFO@CChannelMgr@@U?$less@K@std@@V?$allocator@UPLAYERINFO@CChannelMgr@@@4@@std@@U?$less@K@2@V?$allocator@V?$map@KUPLAYERINFO@CChannelMgr@@U?$less@K@std@@V?$allocator@UPLAYERINFO@CChannelMgr@@@4@@std@@@2@@2@U?$less@K@2@V?$allocator@V?$map@KUPLAYERINFO@CChannelMgr@@U?$less@K@std@@V?$allocator@UPLAYERINFO@CChannelMgr@@@4@@std@@@2@@std@@QBE_NABV012@@Z 00406090 f i ChannelMgr.obj
 0001:000050b0       ??9iterator@?$_Tree@KU?$pair@$$CBKV?$map@KUPLAYERINFO@CChannelMgr@@U?$less@K@std@@V?$allocator@UPLAYERINFO@CChannelMgr@@@4@@std@@@std@@U_Kfn@?$map@KV?$map@KUPLAYERINFO@CChannelMgr@@U?$less@K@std@@V?$allocator@UPLAYERINFO@CChannelMgr@@@4@@std@@U?$less@K@2@V?$allocator@V?$map@KUPLAYERINFO@CChannelMgr@@U?$less@K@std@@V?$allocator@UPLAYERINFO@CChannelMgr@@@4@@std@@@2@@2@U?$less@K@2@V?$allocator@V?$map@KUPLAYERINFO@CChannelMgr@@U?$less@K@std@@V?$allocator@UPLAYERINFO@CChannelMgr@@@4@@std@@@2@@std@@QBE_NABV012@@Z 004060b0 f i ChannelMgr.obj
 0001:000050e0       ??0?$map@KUCHANNINFO@CChannelMgr@@U?$less@K@std@@V?$allocator@UCHANNINFO@CChannelMgr@@@4@@std@@QAE@ABU?$less@K@1@ABV?$allocator@UCHANNINFO@CChannelMgr@@@1@@Z 004060e0 f i ChannelMgr.obj
 0001:00005110       ?begin@?$map@KUCHANNINFO@CChannelMgr@@U?$less@K@std@@V?$allocator@UCHANNINFO@CChannelMgr@@@4@@std@@QAE?AViterator@?$_Tree@KU?$pair@$$CBKUCHANNINFO@CChannelMgr@@@std@@U_Kfn@?$map@KUCHANNINFO@CChannelMgr@@U?$less@K@std@@V?$allocator@UCHANNINFO@CChannelMgr@@@4@@2@U?$less@K@2@V?$allocator@UCHANNINFO@CChannelMgr@@@2@@2@XZ 00406110 f i ChannelMgr.obj
 0001:00005140       ?end@?$map@KUCHANNINFO@CChannelMgr@@U?$less@K@std@@V?$allocator@UCHANNINFO@CChannelMgr@@@4@@std@@QAE?AViterator@?$_Tree@KU?$pair@$$CBKUCHANNINFO@CChannelMgr@@@std@@U_Kfn@?$map@KUCHANNINFO@CChannelMgr@@U?$less@K@std@@V?$allocator@UCHANNINFO@CChannelMgr@@@4@@2@U?$less@K@2@V?$allocator@UCHANNINFO@CChannelMgr@@@2@@2@XZ 00406140 f i ChannelMgr.obj
 0001:00005170       ?size@?$map@KUCHANNINFO@CChannelMgr@@U?$less@K@std@@V?$allocator@UCHANNINFO@CChannelMgr@@@4@@std@@QBEIXZ 00406170 f i ChannelMgr.obj
 0001:00005190       ??A?$map@KUCHANNINFO@CChannelMgr@@U?$less@K@std@@V?$allocator@UCHANNINFO@CChannelMgr@@@4@@std@@QAEAAUCHANNINFO@CChannelMgr@@ABK@Z 00406190 f i ChannelMgr.obj
 0001:00005260       ?erase@?$map@KUCHANNINFO@CChannelMgr@@U?$less@K@std@@V?$allocator@UCHANNINFO@CChannelMgr@@@4@@std@@QAE?AViterator@?$_Tree@KU?$pair@$$CBKUCHANNINFO@CChannelMgr@@@std@@U_Kfn@?$map@KUCHANNINFO@CChannelMgr@@U?$less@K@std@@V?$allocator@UCHANNINFO@CChannelMgr@@@4@@2@U?$less@K@2@V?$allocator@UCHANNINFO@CChannelMgr@@@2@@2@V342@@Z 00406260 f i ChannelMgr.obj
 0001:00005290       ?clear@?$map@KUCHANNINFO@CChannelMgr@@U?$less@K@std@@V?$allocator@UCHANNINFO@CChannelMgr@@@4@@std@@QAEXXZ 00406290 f i ChannelMgr.obj
 0001:000052b0       ?find@?$map@KUCHANNINFO@CChannelMgr@@U?$less@K@std@@V?$allocator@UCHANNINFO@CChannelMgr@@@4@@std@@QAE?AViterator@?$_Tree@KU?$pair@$$CBKUCHANNINFO@CChannelMgr@@@std@@U_Kfn@?$map@KUCHANNINFO@CChannelMgr@@U?$less@K@std@@V?$allocator@UCHANNINFO@CChannelMgr@@@4@@2@U?$less@K@2@V?$allocator@UCHANNINFO@CChannelMgr@@@2@@2@ABK@Z 004062b0 f i ChannelMgr.obj
 0001:000052e0       ??1?$_Tree@KU?$pair@$$CBKUCHANNINFO@CChannelMgr@@@std@@U_Kfn@?$map@KUCHANNINFO@CChannelMgr@@U?$less@K@std@@V?$allocator@UCHANNINFO@CChannelMgr@@@4@@2@U?$less@K@2@V?$allocator@UCHANNINFO@CChannelMgr@@@2@@std@@QAE@XZ 004062e0 f i ChannelMgr.obj
 0001:000053b0       ??0const_iterator@?$_Tree@KU?$pair@$$CBKUCHANNINFO@CChannelMgr@@@std@@U_Kfn@?$map@KUCHANNINFO@CChannelMgr@@U?$less@K@std@@V?$allocator@UCHANNINFO@CChannelMgr@@@4@@2@U?$less@K@2@V?$allocator@UCHANNINFO@CChannelMgr@@@2@@std@@QAE@ABViterator@12@@Z 004063b0 f i ChannelMgr.obj
 0001:000053d0       ??Dconst_iterator@?$_Tree@KU?$pair@$$CBKUCHANNINFO@CChannelMgr@@@std@@U_Kfn@?$map@KUCHANNINFO@CChannelMgr@@U?$less@K@std@@V?$allocator@UCHANNINFO@CChannelMgr@@@4@@2@U?$less@K@2@V?$allocator@UCHANNINFO@CChannelMgr@@@2@@std@@QBEABU?$pair@$$CBKUCHANNINFO@CChannelMgr@@@2@XZ 004063d0 f i ChannelMgr.obj
 0001:000053f0       ??8const_iterator@?$_Tree@KU?$pair@$$CBKUCHANNINFO@CChannelMgr@@@std@@U_Kfn@?$map@KUCHANNINFO@CChannelMgr@@U?$less@K@std@@V?$allocator@UCHANNINFO@CChannelMgr@@@4@@2@U?$less@K@2@V?$allocator@UCHANNINFO@CChannelMgr@@@2@@std@@QBE_NABV012@@Z 004063f0 f i ChannelMgr.obj
 0001:00005410       ??Diterator@?$_Tree@KU?$pair@$$CBKUCHANNINFO@CChannelMgr@@@std@@U_Kfn@?$map@KUCHANNINFO@CChannelMgr@@U?$less@K@std@@V?$allocator@UCHANNINFO@CChannelMgr@@@4@@2@U?$less@K@2@V?$allocator@UCHANNINFO@CChannelMgr@@@2@@std@@QBEAAU?$pair@$$CBKUCHANNINFO@CChannelMgr@@@2@XZ 00406410 f i ChannelMgr.obj
 0001:00005430       ??Eiterator@?$_Tree@KU?$pair@$$CBKUCHANNINFO@CChannelMgr@@@std@@U_Kfn@?$map@KUCHANNINFO@CChannelMgr@@U?$less@K@std@@V?$allocator@UCHANNINFO@CChannelMgr@@@4@@2@U?$less@K@2@V?$allocator@UCHANNINFO@CChannelMgr@@@2@@std@@QAE?AV012@H@Z 00406430 f i ChannelMgr.obj
 0001:00005460       ??8iterator@?$_Tree@KU?$pair@$$CBKUCHANNINFO@CChannelMgr@@@std@@U_Kfn@?$map@KUCHANNINFO@CChannelMgr@@U?$less@K@std@@V?$allocator@UCHANNINFO@CChannelMgr@@@4@@2@U?$less@K@2@V?$allocator@UCHANNINFO@CChannelMgr@@@2@@std@@QBE_NABV012@@Z 00406460 f i ChannelMgr.obj
 0001:00005480       ??9iterator@?$_Tree@KU?$pair@$$CBKUCHANNINFO@CChannelMgr@@@std@@U_Kfn@?$map@KUCHANNINFO@CChannelMgr@@U?$less@K@std@@V?$allocator@UCHANNINFO@CChannelMgr@@@4@@2@U?$less@K@2@V?$allocator@UCHANNINFO@CChannelMgr@@@2@@std@@QBE_NABV012@@Z 00406480 f i ChannelMgr.obj
 0001:000054b0       ??0?$map@V?$basic_string@DU?$char_traits@D@std@@V?$allocator@D@2@@std@@KU_tstring_less@@V?$allocator@K@2@@std@@QAE@ABU_tstring_less@@ABV?$allocator@K@1@@Z 004064b0 f i ChannelMgr.obj
 0001:000054e0       ?end@?$map@V?$basic_string@DU?$char_traits@D@std@@V?$allocator@D@2@@std@@KU_tstring_less@@V?$allocator@K@2@@std@@QAE?AViterator@?$_Tree@V?$basic_string@DU?$char_traits@D@std@@V?$allocator@D@2@@std@@U?$pair@$$CBV?$basic_string@DU?$char_traits@D@std@@V?$allocator@D@2@@std@@K@2@U_Kfn@?$map@V?$basic_string@DU?$char_traits@D@std@@V?$allocator@D@2@@std@@KU_tstring_less@@V?$allocator@K@2@@2@U_tstring_less@@V?$allocator@K@2@@2@XZ 004064e0 f i ChannelMgr.obj
 0001:00005510       ??A?$map@V?$basic_string@DU?$char_traits@D@std@@V?$allocator@D@2@@std@@KU_tstring_less@@V?$allocator@K@2@@std@@QAEAAKABV?$basic_string@DU?$char_traits@D@std@@V?$allocator@D@2@@1@@Z 00406510 f i ChannelMgr.obj
 0001:000055a0       ?erase@?$map@V?$basic_string@DU?$char_traits@D@std@@V?$allocator@D@2@@std@@KU_tstring_less@@V?$allocator@K@2@@std@@QAEIABV?$basic_string@DU?$char_traits@D@std@@V?$allocator@D@2@@2@@Z 004065a0 f i ChannelMgr.obj
 0001:000055c0       ?clear@?$map@V?$basic_string@DU?$char_traits@D@std@@V?$allocator@D@2@@std@@KU_tstring_less@@V?$allocator@K@2@@std@@QAEXXZ 004065c0 f i ChannelMgr.obj
 0001:000055e0       ?find@?$map@V?$basic_string@DU?$char_traits@D@std@@V?$allocator@D@2@@std@@KU_tstring_less@@V?$allocator@K@2@@std@@QAE?AViterator@?$_Tree@V?$basic_string@DU?$char_traits@D@std@@V?$allocator@D@2@@std@@U?$pair@$$CBV?$basic_string@DU?$char_traits@D@std@@V?$allocator@D@2@@std@@K@2@U_Kfn@?$map@V?$basic_string@DU?$char_traits@D@std@@V?$allocator@D@2@@std@@KU_tstring_less@@V?$allocator@K@2@@2@U_tstring_less@@V?$allocator@K@2@@2@ABV?$basic_string@DU?$char_traits@D@std@@V?$allocator@D@2@@2@@Z 004065e0 f i ChannelMgr.obj
 0001:00005610       ??1?$_Tree@V?$basic_string@DU?$char_traits@D@std@@V?$allocator@D@2@@std@@U?$pair@$$CBV?$basic_string@DU?$char_traits@D@std@@V?$allocator@D@2@@std@@K@2@U_Kfn@?$map@V?$basic_string@DU?$char_traits@D@std@@V?$allocator@D@2@@std@@KU_tstring_less@@V?$allocator@K@2@@2@U_tstring_less@@V?$allocator@K@2@@std@@QAE@XZ 00406610 f i ChannelMgr.obj
 0001:000056e0       ??Diterator@?$_Tree@V?$basic_string@DU?$char_traits@D@std@@V?$allocator@D@2@@std@@U?$pair@$$CBV?$basic_string@DU?$char_traits@D@std@@V?$allocator@D@2@@std@@K@2@U_Kfn@?$map@V?$basic_string@DU?$char_traits@D@std@@V?$allocator@D@2@@std@@KU_tstring_less@@V?$allocator@K@2@@2@U_tstring_less@@V?$allocator@K@2@@std@@QBEAAU?$pair@$$CBV?$basic_string@DU?$char_traits@D@std@@V?$allocator@D@2@@std@@K@2@XZ 004066e0 f i ChannelMgr.obj
 0001:00005700       ??8iterator@?$_Tree@V?$basic_string@DU?$char_traits@D@std@@V?$allocator@D@2@@std@@U?$pair@$$CBV?$basic_string@DU?$char_traits@D@std@@V?$allocator@D@2@@std@@K@2@U_Kfn@?$map@V?$basic_string@DU?$char_traits@D@std@@V?$allocator@D@2@@std@@KU_tstring_less@@V?$allocator@K@2@@2@U_tstring_less@@V?$allocator@K@2@@std@@QBE_NABV012@@Z 00406700 f i ChannelMgr.obj
 0001:00005720       ??9iterator@?$_Tree@V?$basic_string@DU?$char_traits@D@std@@V?$allocator@D@2@@std@@U?$pair@$$CBV?$basic_string@DU?$char_traits@D@std@@V?$allocator@D@2@@std@@K@2@U_Kfn@?$map@V?$basic_string@DU?$char_traits@D@std@@V?$allocator@D@2@@std@@KU_tstring_less@@V?$allocator@K@2@@2@U_tstring_less@@V?$allocator@K@2@@std@@QBE_NABV012@@Z 00406720 f i ChannelMgr.obj
 0001:00005750       ?deallocate@?$allocator@UBLOCKCHANNELOP_QID@CChannelMgr@@@std@@QAEXPAXI@Z 00406750 f i ChannelMgr.obj
 0001:00005770       ?deallocate@?$allocator@UBLOCKCHANNELOP_CMN@CChannelMgr@@@std@@QAEXPAXI@Z 00406770 f i ChannelMgr.obj
 0001:00005790       ?deallocate@?$allocator@UBLOCKCHANNELOP_CLR@CChannelMgr@@@std@@QAEXPAXI@Z 00406790 f i ChannelMgr.obj
 0001:000057b0       ??0?$map@KV?$list@PAU_BLOCKCHANNELOP@CChannelMgr@@V?$allocator@PAU_BLOCKCHANNELOP@CChannelMgr@@@std@@@std@@U?$less@K@2@V?$allocator@V?$list@PAU_BLOCKCHANNELOP@CChannelMgr@@V?$allocator@PAU_BLOCKCHANNELOP@CChannelMgr@@@std@@@std@@@2@@std@@QAE@ABU?$less@K@1@ABV?$allocator@V?$list@PAU_BLOCKCHANNELOP@CChannelMgr@@V?$allocator@PAU_BLOCKCHANNELOP@CChannelMgr@@@std@@@std@@@1@@Z 004067b0 f i ChannelMgr.obj
 0001:000057e0       ?end@?$map@KV?$list@PAU_BLOCKCHANNELOP@CChannelMgr@@V?$allocator@PAU_BLOCKCHANNELOP@CChannelMgr@@@std@@@std@@U?$less@K@2@V?$allocator@V?$list@PAU_BLOCKCHANNELOP@CChannelMgr@@V?$allocator@PAU_BLOCKCHANNELOP@CChannelMgr@@@std@@@std@@@2@@std@@QAE?AViterator@?$_Tree@KU?$pair@$$CBKV?$list@PAU_BLOCKCHANNELOP@CChannelMgr@@V?$allocator@PAU_BLOCKCHANNELOP@CChannelMgr@@@std@@@std@@@std@@U_Kfn@?$map@KV?$list@PAU_BLOCKCHANNELOP@CChannelMgr@@V?$allocator@PAU_BLOCKCHANNELOP@CChannelMgr@@@std@@@std@@U?$less@K@2@V?$allocator@V?$list@PAU_BLOCKCHANNELOP@CChannelMgr@@V?$allocator@PAU_BLOCKCHANNELOP@CChannelMgr@@@std@@@std@@@2@@2@U?$less@K@2@V?$allocator@V?$list@PAU_BLOCKCHANNELOP@CChannelMgr@@V?$allocator@PAU_BLOCKCHANNELOP@CChannelMgr@@@std@@@std@@@2@@2@XZ 004067e0 f i ChannelMgr.obj
 0001:00005810       ?clear@?$map@KV?$list@PAU_BLOCKCHANNELOP@CChannelMgr@@V?$allocator@PAU_BLOCKCHANNELOP@CChannelMgr@@@std@@@std@@U?$less@K@2@V?$allocator@V?$list@PAU_BLOCKCHANNELOP@CChannelMgr@@V?$allocator@PAU_BLOCKCHANNELOP@CChannelMgr@@@std@@@std@@@2@@std@@QAEXXZ 00406810 f i ChannelMgr.obj
 0001:00005830       ??1?$_Tree@KU?$pair@$$CBKV?$list@PAU_BLOCKCHANNELOP@CChannelMgr@@V?$allocator@PAU_BLOCKCHANNELOP@CChannelMgr@@@std@@@std@@@std@@U_Kfn@?$map@KV?$list@PAU_BLOCKCHANNELOP@CChannelMgr@@V?$allocator@PAU_BLOCKCHANNELOP@CChannelMgr@@@std@@@std@@U?$less@K@2@V?$allocator@V?$list@PAU_BLOCKCHANNELOP@CChannelMgr@@V?$allocator@PAU_BLOCKCHANNELOP@CChannelMgr@@@std@@@std@@@2@@2@U?$less@K@2@V?$allocator@V?$list@PAU_BLOCKCHANNELOP@CChannelMgr@@V?$allocator@PAU_BLOCKCHANNELOP@CChannelMgr@@@std@@@std@@@2@@std@@QAE@XZ 00406830 f i ChannelMgr.obj
 0001:00005900       ?begin@?$list@PAU_BLOCKCHANNELOP@CChannelMgr@@V?$allocator@PAU_BLOCKCHANNELOP@CChannelMgr@@@std@@@std@@QAE?AViterator@12@XZ 00406900 f i ChannelMgr.obj
 0001:00005940       ?end@?$list@PAU_BLOCKCHANNELOP@CChannelMgr@@V?$allocator@PAU_BLOCKCHANNELOP@CChannelMgr@@@std@@@std@@QAE?AViterator@12@XZ 00406940 f i ChannelMgr.obj
 0001:00005970       ??Diterator@?$list@PAU_BLOCKCHANNELOP@CChannelMgr@@V?$allocator@PAU_BLOCKCHANNELOP@CChannelMgr@@@std@@@std@@QBEAAPAU_BLOCKCHANNELOP@CChannelMgr@@XZ 00406970 f i ChannelMgr.obj
 0001:00005990       ??Eiterator@?$list@PAU_BLOCKCHANNELOP@CChannelMgr@@V?$allocator@PAU_BLOCKCHANNELOP@CChannelMgr@@@std@@@std@@QAE?AV012@H@Z 00406990 f i ChannelMgr.obj
 0001:000059c0       ??9iterator@?$list@PAU_BLOCKCHANNELOP@CChannelMgr@@V?$allocator@PAU_BLOCKCHANNELOP@CChannelMgr@@@std@@@std@@QBE_NABV012@@Z 004069c0 f i ChannelMgr.obj
 0001:000059f0       ??Diterator@?$_Tree@KU?$pair@$$CBKV?$list@PAU_BLOCKCHANNELOP@CChannelMgr@@V?$allocator@PAU_BLOCKCHANNELOP@CChannelMgr@@@std@@@std@@@std@@U_Kfn@?$map@KV?$list@PAU_BLOCKCHANNELOP@CChannelMgr@@V?$allocator@PAU_BLOCKCHANNELOP@CChannelMgr@@@std@@@std@@U?$less@K@2@V?$allocator@V?$list@PAU_BLOCKCHANNELOP@CChannelMgr@@V?$allocator@PAU_BLOCKCHANNELOP@CChannelMgr@@@std@@@std@@@2@@2@U?$less@K@2@V?$allocator@V?$list@PAU_BLOCKCHANNELOP@CChannelMgr@@V?$allocator@PAU_BLOCKCHANNELOP@CChannelMgr@@@std@@@std@@@2@@std@@QBEAAU?$pair@$$CBKV?$list@PAU_BLOCKCHANNELOP@CChannelMgr@@V?$allocator@PAU_BLOCKCHANNELOP@CChannelMgr@@@std@@@std@@@2@XZ 004069f0 f i ChannelMgr.obj
 0001:00005a10       ??Eiterator@?$_Tree@KU?$pair@$$CBKV?$list@PAU_BLOCKCHANNELOP@CChannelMgr@@V?$allocator@PAU_BLOCKCHANNELOP@CChannelMgr@@@std@@@std@@@std@@U_Kfn@?$map@KV?$list@PAU_BLOCKCHANNELOP@CChannelMgr@@V?$allocator@PAU_BLOCKCHANNELOP@CChannelMgr@@@std@@@std@@U?$less@K@2@V?$allocator@V?$list@PAU_BLOCKCHANNELOP@CChannelMgr@@V?$allocator@PAU_BLOCKCHANNELOP@CChannelMgr@@@std@@@std@@@2@@2@U?$less@K@2@V?$allocator@V?$list@PAU_BLOCKCHANNELOP@CChannelMgr@@V?$allocator@PAU_BLOCKCHANNELOP@CChannelMgr@@@std@@@std@@@2@@std@@QAE?AV012@H@Z 00406a10 f i ChannelMgr.obj
 0001:00005a40       ??9iterator@?$_Tree@KU?$pair@$$CBKV?$list@PAU_BLOCKCHANNELOP@CChannelMgr@@V?$allocator@PAU_BLOCKCHANNELOP@CChannelMgr@@@std@@@std@@@std@@U_Kfn@?$map@KV?$list@PAU_BLOCKCHANNELOP@CChannelMgr@@V?$allocator@PAU_BLOCKCHANNELOP@CChannelMgr@@@std@@@std@@U?$less@K@2@V?$allocator@V?$list@PAU_BLOCKCHANNELOP@CChannelMgr@@V?$allocator@PAU_BLOCKCHANNELOP@CChannelMgr@@@std@@@std@@@2@@2@U?$less@K@2@V?$allocator@V?$list@PAU_BLOCKCHANNELOP@CChannelMgr@@V?$allocator@PAU_BLOCKCHANNELOP@CChannelMgr@@@std@@@std@@@2@@std@@QBE_NABV012@@Z 00406a40 f i ChannelMgr.obj
 0001:00005a70       ?begin@?$vector@V?$basic_string@DU?$char_traits@D@std@@V?$allocator@D@2@@std@@V?$allocator@V?$basic_string@DU?$char_traits@D@std@@V?$allocator@D@2@@std@@@2@@std@@QBEPBV?$basic_string@DU?$char_traits@D@std@@V?$allocator@D@2@@2@XZ 00406a70 f i ChannelMgr.obj
 0001:00005a90       ?end@?$vector@V?$basic_string@DU?$char_traits@D@std@@V?$allocator@D@2@@std@@V?$allocator@V?$basic_string@DU?$char_traits@D@std@@V?$allocator@D@2@@std@@@2@@std@@QBEPBV?$basic_string@DU?$char_traits@D@std@@V?$allocator@D@2@@2@XZ 00406a90 f i ChannelMgr.obj
 0001:00005ab0       ??0?$list@UtagPlusSrcInfo@@V?$allocator@UtagPlusSrcInfo@@@std@@@std@@QAE@ABV?$allocator@UtagPlusSrcInfo@@@1@@Z 00406ab0 f i ChannelMgr.obj
 0001:00005af0       ??1?$list@UtagPlusSrcInfo@@V?$allocator@UtagPlusSrcInfo@@@std@@@std@@QAE@XZ 00406af0 f i ChannelMgr.obj
 0001:00005b50       ?begin@?$list@UtagPlusSrcInfo@@V?$allocator@UtagPlusSrcInfo@@@std@@@std@@QBE?AVconst_iterator@12@XZ 00406b50 f i ChannelMgr.obj
 0001:00005b90       ?end@?$list@UtagPlusSrcInfo@@V?$allocator@UtagPlusSrcInfo@@@std@@@std@@QBE?AVconst_iterator@12@XZ 00406b90 f i ChannelMgr.obj
 0001:00005bc0       ?empty@?$list@UtagPlusSrcInfo@@V?$allocator@UtagPlusSrcInfo@@@std@@@std@@QBE_NXZ 00406bc0 f i ChannelMgr.obj
 0001:00005be0       ?push_back@?$list@UtagPlusSrcInfo@@V?$allocator@UtagPlusSrcInfo@@@std@@@std@@QAEXABUtagPlusSrcInfo@@@Z 00406be0 f i ChannelMgr.obj
 0001:00005c10       ??Dconst_iterator@?$list@UtagPlusSrcInfo@@V?$allocator@UtagPlusSrcInfo@@@std@@@std@@QBEABUtagPlusSrcInfo@@XZ 00406c10 f i ChannelMgr.obj
 0001:00005c30       ??Econst_iterator@?$list@UtagPlusSrcInfo@@V?$allocator@UtagPlusSrcInfo@@@std@@@std@@QAE?AV012@H@Z 00406c30 f i ChannelMgr.obj
 0001:00005c60       ??9const_iterator@?$list@UtagPlusSrcInfo@@V?$allocator@UtagPlusSrcInfo@@@std@@@std@@QBE_NABV012@@Z 00406c60 f i ChannelMgr.obj
 0001:00005c90       ??1?$map@KUPLAYERINFO@CChannelMgr@@U?$less@K@std@@V?$allocator@UPLAYERINFO@CChannelMgr@@@4@@std@@QAE@XZ 00406c90 f i ChannelMgr.obj
 0001:00005cb0       ??1?$pair@$$CBKV?$map@KUPLAYERINFO@CChannelMgr@@U?$less@K@std@@V?$allocator@UPLAYERINFO@CChannelMgr@@@4@@std@@@std@@QAE@XZ 00406cb0 f i ChannelMgr.obj
 0001:00005cd0       ??0CHANNINFO@CChannelMgr@@QAE@XZ 00406cd0 f i ChannelMgr.obj
 0001:00005d30       ??1CHANNINFO@CChannelMgr@@QAE@XZ 00406d30 f i ChannelMgr.obj
 0001:00005d80       ??1?$pair@$$CBKUCHANNINFO@CChannelMgr@@@std@@QAE@XZ 00406d80 f i ChannelMgr.obj
 0001:00005da0       ??1?$pair@$$CBV?$basic_string@DU?$char_traits@D@std@@V?$allocator@D@2@@std@@K@std@@QAE@XZ 00406da0 f i ChannelMgr.obj
 0001:00005dc0       ??1?$map@KV?$map@KUPLAYERINFO@CChannelMgr@@U?$less@K@std@@V?$allocator@UPLAYERINFO@CChannelMgr@@@4@@std@@U?$less@K@2@V?$allocator@V?$map@KUPLAYERINFO@CChannelMgr@@U?$less@K@std@@V?$allocator@UPLAYERINFO@CChannelMgr@@@4@@std@@@2@@std@@QAE@XZ 00406dc0 f i ChannelMgr.obj
 0001:00005de0       ?append@?$basic_string@DU?$char_traits@D@std@@V?$allocator@D@2@@std@@QAEAAV12@PBD@Z 00406de0 f i ChannelMgr.obj
 0001:00005e10       ?append@?$basic_string@DU?$char_traits@D@std@@V?$allocator@D@2@@std@@QAEAAV12@ID@Z 00406e10 f i ChannelMgr.obj
 0001:00005e90       ?assign@?$char_traits@D@std@@SAPADPADIABD@Z 00406e90 f i ChannelMgr.obj
 0001:00005eb0       ?assign@?$basic_string@DU?$char_traits@D@std@@V?$allocator@D@2@@std@@QAEAAV12@ABV12@@Z 00406eb0 f i ChannelMgr.obj
 0001:00005ee0       ?assign@?$basic_string@DU?$char_traits@D@std@@V?$allocator@D@2@@std@@QAEAAV12@ABV12@II@Z 00406ee0 f i ChannelMgr.obj
 0001:00006040       ?copy@?$char_traits@D@std@@SAPADPADPBDI@Z 00407040 f i ChannelMgr.obj
 0001:00006060       ?assign@?$basic_string@DU?$char_traits@D@std@@V?$allocator@D@2@@std@@QAEAAV12@PBDI@Z 00407060 f i ChannelMgr.obj
 0001:000060b0       ?assign@?$basic_string@DU?$char_traits@D@std@@V?$allocator@D@2@@std@@QAEAAV12@PBD@Z 004070b0 f i ChannelMgr.obj
 0001:000060e0       ?rfind@?$basic_string@DU?$char_traits@D@std@@V?$allocator@D@2@@std@@QBEIPBDII@Z 004070e0 f i ChannelMgr.obj
 0001:000061c0       ?eq@?$char_traits@D@std@@SA_NABD0@Z 004071c0 f i ChannelMgr.obj
 0001:000061e0       ?compare@?$char_traits@D@std@@SAHPBD0I@Z 004071e0 f i ChannelMgr.obj
 0001:00006200       ?find_last_not_of@?$basic_string@DU?$char_traits@D@std@@V?$allocator@D@2@@std@@QBEIPBDII@Z 00407200 f i ChannelMgr.obj
 0001:00006290       ?find@?$char_traits@D@std@@SAPBDPBDIABD@Z 00407290 f i ChannelMgr.obj
 0001:000062b0       ?_Freeze@?$basic_string@DU?$char_traits@D@std@@V?$allocator@D@2@@std@@AAEXXZ 004072b0 f i ChannelMgr.obj
 0001:00006330       ?_Nullstr@?$basic_string@DU?$char_traits@D@std@@V?$allocator@D@2@@std@@CAPBDXZ 00407330 f i ChannelMgr.obj
 0001:00006340       ?_Tidy@?$basic_string@DU?$char_traits@D@std@@V?$allocator@D@2@@std@@AAEX_N@Z 00407340 f i ChannelMgr.obj
 0001:00006400       ??0?$map@KV?$map@KUPLAYERINFO@CChannelMgr@@U?$less@K@std@@V?$allocator@UPLAYERINFO@CChannelMgr@@@4@@std@@U?$less@K@2@V?$allocator@V?$map@KUPLAYERINFO@CChannelMgr@@U?$less@K@std@@V?$allocator@UPLAYERINFO@CChannelMgr@@@4@@std@@@2@@std@@QAE@ABU?$less@K@1@ABV?$allocator@V?$map@KUPLAYERINFO@CChannelMgr@@U?$less@K@std@@V?$allocator@UPLAYERINFO@CChannelMgr@@@4@@std@@@1@@Z 00407400 f i ChannelMgr.obj
 0001:00006430       ?insert@?$map@KV?$map@KUPLAYERINFO@CChannelMgr@@U?$less@K@std@@V?$allocator@UPLAYERINFO@CChannelMgr@@@4@@std@@U?$less@K@2@V?$allocator@V?$map@KUPLAYERINFO@CChannelMgr@@U?$less@K@std@@V?$allocator@UPLAYERINFO@CChannelMgr@@@4@@std@@@2@@std@@QAE?AU?$pair@Viterator@?$_Tree@KU?$pair@$$CBKV?$map@KUPLAYERINFO@CChannelMgr@@U?$less@K@std@@V?$allocator@UPLAYERINFO@CChannelMgr@@@4@@std@@@std@@U_Kfn@?$map@KV?$map@KUPLAYERINFO@CChannelMgr@@U?$less@K@std@@V?$allocator@UPLAYERINFO@CChannelMgr@@@4@@std@@U?$less@K@2@V?$allocator@V?$map@KUPLAYERINFO@CChannelMgr@@U?$less@K@std@@V?$allocator@UPLAYERINFO@CChannelMgr@@@4@@std@@@2@@2@U?$less@K@2@V?$allocator@V?$map@KUPLAYERINFO@CChannelMgr@@U?$less@K@std@@V?$allocator@UPLAYERINFO@CChannelMgr@@@4@@std@@@2@@std@@_N@2@ABU?$pair@$$CBKV?$map@KUPLAYERINFO@CChannelMgr@@U?$less@K@std@@V?$allocator@UPLAYERINFO@CChannelMgr@@@4@@std@@@2@@Z 00407430 f i ChannelMgr.obj
 0001:00006480       ?_Value@?$_Tree@KU?$pair@$$CBKV?$map@KUPLAYERINFO@CChannelMgr@@U?$less@K@std@@V?$allocator@UPLAYERINFO@CChannelMgr@@@4@@std@@@std@@U_Kfn@?$map@KV?$map@KUPLAYERINFO@CChannelMgr@@U?$less@K@std@@V?$allocator@UPLAYERINFO@CChannelMgr@@@4@@std@@U?$less@K@2@V?$allocator@V?$map@KUPLAYERINFO@CChannelMgr@@U?$less@K@std@@V?$allocator@UPLAYERINFO@CChannelMgr@@@4@@std@@@2@@2@U?$less@K@2@V?$allocator@V?$map@KUPLAYERINFO@CChannelMgr@@U?$less@K@std@@V?$allocator@UPLAYERINFO@CChannelMgr@@@4@@std@@@2@@std@@KAAAU?$pair@$$CBKV?$map@KUPLAYERINFO@CChannelMgr@@U?$less@K@std@@V?$allocator@UPLAYERINFO@CChannelMgr@@@4@@std@@@2@PAU_Node@12@@Z 00407480 f i ChannelMgr.obj
 0001:00006490       ??1?$_Tree@KU?$pair@$$CBKV?$map@KUPLAYERINFO@CChannelMgr@@U?$less@K@std@@V?$allocator@UPLAYERINFO@CChannelMgr@@@4@@std@@@std@@U_Kfn@?$map@KV?$map@KUPLAYERINFO@CChannelMgr@@U?$less@K@std@@V?$allocator@UPLAYERINFO@CChannelMgr@@@4@@std@@U?$less@K@2@V?$allocator@V?$map@KUPLAYERINFO@CChannelMgr@@U?$less@K@std@@V?$allocator@UPLAYERINFO@CChannelMgr@@@4@@std@@@2@@2@U?$less@K@2@V?$allocator@V?$map@KUPLAYERINFO@CChannelMgr@@U?$less@K@std@@V?$allocator@UPLAYERINFO@CChannelMgr@@@4@@std@@@2@@std@@QAE@XZ 00407490 f i ChannelMgr.obj
 0001:00006560       ?begin@?$_Tree@KU?$pair@$$CBKV?$map@KUPLAYERINFO@CChannelMgr@@U?$less@K@std@@V?$allocator@UPLAYERINFO@CChannelMgr@@@4@@std@@@std@@U_Kfn@?$map@KV?$map@KUPLAYERINFO@CChannelMgr@@U?$less@K@std@@V?$allocator@UPLAYERINFO@CChannelMgr@@@4@@std@@U?$less@K@2@V?$allocator@V?$map@KUPLAYERINFO@CChannelMgr@@U?$less@K@std@@V?$allocator@UPLAYERINFO@CChannelMgr@@@4@@std@@@2@@2@U?$less@K@2@V?$allocator@V?$map@KUPLAYERINFO@CChannelMgr@@U?$less@K@std@@V?$allocator@UPLAYERINFO@CChannelMgr@@@4@@std@@@2@@std@@QAE?AViterator@12@XZ 00407560 f i ChannelMgr.obj
 0001:00006590       ?end@?$_Tree@KU?$pair@$$CBKV?$map@KUPLAYERINFO@CChannelMgr@@U?$less@K@std@@V?$allocator@UPLAYERINFO@CChannelMgr@@@4@@std@@@std@@U_Kfn@?$map@KV?$map@KUPLAYERINFO@CChannelMgr@@U?$less@K@std@@V?$allocator@UPLAYERINFO@CChannelMgr@@@4@@std@@U?$less@K@2@V?$allocator@V?$map@KUPLAYERINFO@CChannelMgr@@U?$less@K@std@@V?$allocator@UPLAYERINFO@CChannelMgr@@@4@@std@@@2@@2@U?$less@K@2@V?$allocator@V?$map@KUPLAYERINFO@CChannelMgr@@U?$less@K@std@@V?$allocator@UPLAYERINFO@CChannelMgr@@@4@@std@@@2@@std@@QAE?AViterator@12@XZ 00407590 f i ChannelMgr.obj
 0001:000065c0       ?empty@?$_Tree@KU?$pair@$$CBKV?$map@KUPLAYERINFO@CChannelMgr@@U?$less@K@std@@V?$allocator@UPLAYERINFO@CChannelMgr@@@4@@std@@@std@@U_Kfn@?$map@KV?$map@KUPLAYERINFO@CChannelMgr@@U?$less@K@std@@V?$allocator@UPLAYERINFO@CChannelMgr@@@4@@std@@U?$less@K@2@V?$allocator@V?$map@KUPLAYERINFO@CChannelMgr@@U?$less@K@std@@V?$allocator@UPLAYERINFO@CChannelMgr@@@4@@std@@@2@@2@U?$less@K@2@V?$allocator@V?$map@KUPLAYERINFO@CChannelMgr@@U?$less@K@std@@V?$allocator@UPLAYERINFO@CChannelMgr@@@4@@std@@@2@@std@@QBE_NXZ 004075c0 f i ChannelMgr.obj
 0001:000065e0       ?erase@?$_Tree@KU?$pair@$$CBKV?$map@KUPLAYERINFO@CChannelMgr@@U?$less@K@std@@V?$allocator@UPLAYERINFO@CChannelMgr@@@4@@std@@@std@@U_Kfn@?$map@KV?$map@KUPLAYERINFO@CChannelMgr@@U?$less@K@std@@V?$allocator@UPLAYERINFO@CChannelMgr@@@4@@std@@U?$less@K@2@V?$allocator@V?$map@KUPLAYERINFO@CChannelMgr@@U?$less@K@std@@V?$allocator@UPLAYERINFO@CChannelMgr@@@4@@std@@@2@@2@U?$less@K@2@V?$allocator@V?$map@KUPLAYERINFO@CChannelMgr@@U?$less@K@std@@V?$allocator@UPLAYERINFO@CChannelMgr@@@4@@std@@@2@@std@@QAE?AViterator@12@V312@@Z 004075e0 f i ChannelMgr.obj
 0001:00006e30       ?find@?$_Tree@KU?$pair@$$CBKV?$map@KUPLAYERINFO@CChannelMgr@@U?$less@K@std@@V?$allocator@UPLAYERINFO@CChannelMgr@@@4@@std@@@std@@U_Kfn@?$map@KV?$map@KUPLAYERINFO@CChannelMgr@@U?$less@K@std@@V?$allocator@UPLAYERINFO@CChannelMgr@@@4@@std@@U?$less@K@2@V?$allocator@V?$map@KUPLAYERINFO@CChannelMgr@@U?$less@K@std@@V?$allocator@UPLAYERINFO@CChannelMgr@@@4@@std@@@2@@2@U?$less@K@2@V?$allocator@V?$map@KUPLAYERINFO@CChannelMgr@@U?$less@K@std@@V?$allocator@UPLAYERINFO@CChannelMgr@@@4@@std@@@2@@std@@QAE?AViterator@12@ABK@Z 00407e30 f i ChannelMgr.obj
 0001:00006ed0       ??0?$pair@$$CBKV?$map@KUPLAYERINFO@CChannelMgr@@U?$less@K@std@@V?$allocator@UPLAYERINFO@CChannelMgr@@@4@@std@@@std@@QAE@ABKABV?$map@KUPLAYERINFO@CChannelMgr@@U?$less@K@std@@V?$allocator@UPLAYERINFO@CChannelMgr@@@4@@1@@Z 00407ed0 f i ChannelMgr.obj
 0001:00006f00       ??0?$map@KUPLAYERINFO@CChannelMgr@@U?$less@K@std@@V?$allocator@UPLAYERINFO@CChannelMgr@@@4@@std@@QAE@ABU?$less@K@1@ABV?$allocator@UPLAYERINFO@CChannelMgr@@@1@@Z 00407f00 f i ChannelMgr.obj
 0001:00006f30       ?insert@?$map@KUPLAYERINFO@CChannelMgr@@U?$less@K@std@@V?$allocator@UPLAYERINFO@CChannelMgr@@@4@@std@@QAE?AU?$pair@Viterator@?$_Tree@KU?$pair@$$CBKUPLAYERINFO@CChannelMgr@@@std@@U_Kfn@?$map@KUPLAYERINFO@CChannelMgr@@U?$less@K@std@@V?$allocator@UPLAYERINFO@CChannelMgr@@@4@@2@U?$less@K@2@V?$allocator@UPLAYERINFO@CChannelMgr@@@2@@std@@_N@2@ABU?$pair@$$CBKUPLAYERINFO@CChannelMgr@@@2@@Z 00407f30 f i ChannelMgr.obj
 0001:00006f80       ?_Value@?$_Tree@KU?$pair@$$CBKUPLAYERINFO@CChannelMgr@@@std@@U_Kfn@?$map@KUPLAYERINFO@CChannelMgr@@U?$less@K@std@@V?$allocator@UPLAYERINFO@CChannelMgr@@@4@@2@U?$less@K@2@V?$allocator@UPLAYERINFO@CChannelMgr@@@2@@std@@KAAAU?$pair@$$CBKUPLAYERINFO@CChannelMgr@@@2@PAU_Node@12@@Z 00407f80 f i ChannelMgr.obj
 0001:00006f90       ??1?$_Tree@KU?$pair@$$CBKUPLAYERINFO@CChannelMgr@@@std@@U_Kfn@?$map@KUPLAYERINFO@CChannelMgr@@U?$less@K@std@@V?$allocator@UPLAYERINFO@CChannelMgr@@@4@@2@U?$less@K@2@V?$allocator@UPLAYERINFO@CChannelMgr@@@2@@std@@QAE@XZ 00407f90 f i ChannelMgr.obj
 0001:00007060       ?begin@?$_Tree@KU?$pair@$$CBKUPLAYERINFO@CChannelMgr@@@std@@U_Kfn@?$map@KUPLAYERINFO@CChannelMgr@@U?$less@K@std@@V?$allocator@UPLAYERINFO@CChannelMgr@@@4@@2@U?$less@K@2@V?$allocator@UPLAYERINFO@CChannelMgr@@@2@@std@@QAE?AViterator@12@XZ 00408060 f i ChannelMgr.obj
 0001:00007090       ?end@?$_Tree@KU?$pair@$$CBKUPLAYERINFO@CChannelMgr@@@std@@U_Kfn@?$map@KUPLAYERINFO@CChannelMgr@@U?$less@K@std@@V?$allocator@UPLAYERINFO@CChannelMgr@@@4@@2@U?$less@K@2@V?$allocator@UPLAYERINFO@CChannelMgr@@@2@@std@@QAE?AViterator@12@XZ 00408090 f i ChannelMgr.obj
 0001:000070c0       ?empty@?$_Tree@KU?$pair@$$CBKUPLAYERINFO@CChannelMgr@@@std@@U_Kfn@?$map@KUPLAYERINFO@CChannelMgr@@U?$less@K@std@@V?$allocator@UPLAYERINFO@CChannelMgr@@@4@@2@U?$less@K@2@V?$allocator@UPLAYERINFO@CChannelMgr@@@2@@std@@QBE_NXZ 004080c0 f i ChannelMgr.obj
 0001:000070e0       ?erase@?$_Tree@KU?$pair@$$CBKUPLAYERINFO@CChannelMgr@@@std@@U_Kfn@?$map@KUPLAYERINFO@CChannelMgr@@U?$less@K@std@@V?$allocator@UPLAYERINFO@CChannelMgr@@@4@@2@U?$less@K@2@V?$allocator@UPLAYERINFO@CChannelMgr@@@2@@std@@QAEIABK@Z 004080e0 f i ChannelMgr.obj
 0001:00007140       ?find@?$_Tree@KU?$pair@$$CBKUPLAYERINFO@CChannelMgr@@@std@@U_Kfn@?$map@KUPLAYERINFO@CChannelMgr@@U?$less@K@std@@V?$allocator@UPLAYERINFO@CChannelMgr@@@4@@2@U?$less@K@2@V?$allocator@UPLAYERINFO@CChannelMgr@@@2@@std@@QAE?AViterator@12@ABK@Z 00408140 f i ChannelMgr.obj
 0001:000071e0       ??0?$pair@$$CBKUPLAYERINFO@CChannelMgr@@@std@@QAE@ABKABUPLAYERINFO@CChannelMgr@@@Z 004081e0 f i ChannelMgr.obj
 0001:00007210       ??Eiterator@?$_Tree@KU?$pair@$$CBKUPLAYERINFO@CChannelMgr@@@std@@U_Kfn@?$map@KUPLAYERINFO@CChannelMgr@@U?$less@K@std@@V?$allocator@UPLAYERINFO@CChannelMgr@@@4@@2@U?$less@K@2@V?$allocator@UPLAYERINFO@CChannelMgr@@@2@@std@@QAEAAV012@XZ 00408210 f i ChannelMgr.obj
 0001:00007230       ??Eiterator@?$_Tree@KU?$pair@$$CBKV?$map@KUPLAYERINFO@CChannelMgr@@U?$less@K@std@@V?$allocator@UPLAYERINFO@CChannelMgr@@@4@@std@@@std@@U_Kfn@?$map@KV?$map@KUPLAYERINFO@CChannelMgr@@U?$less@K@std@@V?$allocator@UPLAYERINFO@CChannelMgr@@@4@@std@@U?$less@K@2@V?$allocator@V?$map@KUPLAYERINFO@CChannelMgr@@U?$less@K@std@@V?$allocator@UPLAYERINFO@CChannelMgr@@@4@@std@@@2@@2@U?$less@K@2@V?$allocator@V?$map@KUPLAYERINFO@CChannelMgr@@U?$less@K@std@@V?$allocator@UPLAYERINFO@CChannelMgr@@@4@@std@@@2@@std@@QAEAAV012@XZ 00408230 f i ChannelMgr.obj
 0001:00007250       ?insert@?$map@KUCHANNINFO@CChannelMgr@@U?$less@K@std@@V?$allocator@UCHANNINFO@CChannelMgr@@@4@@std@@QAE?AU?$pair@Viterator@?$_Tree@KU?$pair@$$CBKUCHANNINFO@CChannelMgr@@@std@@U_Kfn@?$map@KUCHANNINFO@CChannelMgr@@U?$less@K@std@@V?$allocator@UCHANNINFO@CChannelMgr@@@4@@2@U?$less@K@2@V?$allocator@UCHANNINFO@CChannelMgr@@@2@@std@@_N@2@ABU?$pair@$$CBKUCHANNINFO@CChannelMgr@@@2@@Z 00408250 f i ChannelMgr.obj
 0001:000072a0       ?_Value@?$_Tree@KU?$pair@$$CBKUCHANNINFO@CChannelMgr@@@std@@U_Kfn@?$map@KUCHANNINFO@CChannelMgr@@U?$less@K@std@@V?$allocator@UCHANNINFO@CChannelMgr@@@4@@2@U?$less@K@2@V?$allocator@UCHANNINFO@CChannelMgr@@@2@@std@@KAAAU?$pair@$$CBKUCHANNINFO@CChannelMgr@@@2@PAU_Node@12@@Z 004082a0 f i ChannelMgr.obj
 0001:000072b0       ??0?$_Tree@KU?$pair@$$CBKUCHANNINFO@CChannelMgr@@@std@@U_Kfn@?$map@KUCHANNINFO@CChannelMgr@@U?$less@K@std@@V?$allocator@UCHANNINFO@CChannelMgr@@@4@@2@U?$less@K@2@V?$allocator@UCHANNINFO@CChannelMgr@@@2@@std@@QAE@ABU?$less@K@1@_NABV?$allocator@UCHANNINFO@CChannelMgr@@@1@@Z 004082b0 f i ChannelMgr.obj
 0001:000072f0       ?begin@?$_Tree@KU?$pair@$$CBKUCHANNINFO@CChannelMgr@@@std@@U_Kfn@?$map@KUCHANNINFO@CChannelMgr@@U?$less@K@std@@V?$allocator@UCHANNINFO@CChannelMgr@@@4@@2@U?$less@K@2@V?$allocator@UCHANNINFO@CChannelMgr@@@2@@std@@QAE?AViterator@12@XZ 004082f0 f i ChannelMgr.obj
 0001:00007320       ?end@?$_Tree@KU?$pair@$$CBKUCHANNINFO@CChannelMgr@@@std@@U_Kfn@?$map@KUCHANNINFO@CChannelMgr@@U?$less@K@std@@V?$allocator@UCHANNINFO@CChannelMgr@@@4@@2@U?$less@K@2@V?$allocator@UCHANNINFO@CChannelMgr@@@2@@std@@QAE?AViterator@12@XZ 00408320 f i ChannelMgr.obj
 0001:00007350       ?size@?$_Tree@KU?$pair@$$CBKUCHANNINFO@CChannelMgr@@@std@@U_Kfn@?$map@KUCHANNINFO@CChannelMgr@@U?$less@K@std@@V?$allocator@UCHANNINFO@CChannelMgr@@@4@@2@U?$less@K@2@V?$allocator@UCHANNINFO@CChannelMgr@@@2@@std@@QBEIXZ 00408350 f i ChannelMgr.obj
 0001:00007370       ?erase@?$_Tree@KU?$pair@$$CBKUCHANNINFO@CChannelMgr@@@std@@U_Kfn@?$map@KUCHANNINFO@CChannelMgr@@U?$less@K@std@@V?$allocator@UCHANNINFO@CChannelMgr@@@4@@2@U?$less@K@2@V?$allocator@UCHANNINFO@CChannelMgr@@@2@@std@@QAE?AViterator@12@V312@@Z 00408370 f i ChannelMgr.obj
 0001:00007bc0       ?erase@?$_Tree@KU?$pair@$$CBKUCHANNINFO@CChannelMgr@@@std@@U_Kfn@?$map@KUCHANNINFO@CChannelMgr@@U?$less@K@std@@V?$allocator@UCHANNINFO@CChannelMgr@@@4@@2@U?$less@K@2@V?$allocator@UCHANNINFO@CChannelMgr@@@2@@std@@QAE?AViterator@12@V312@0@Z 00408bc0 f i ChannelMgr.obj
 0001:00007d00       ?clear@?$_Tree@KU?$pair@$$CBKUCHANNINFO@CChannelMgr@@@std@@U_Kfn@?$map@KUCHANNINFO@CChannelMgr@@U?$less@K@std@@V?$allocator@UCHANNINFO@CChannelMgr@@@4@@2@U?$less@K@2@V?$allocator@UCHANNINFO@CChannelMgr@@@2@@std@@QAEXXZ 00408d00 f i ChannelMgr.obj
 0001:00007d40       ?find@?$_Tree@KU?$pair@$$CBKUCHANNINFO@CChannelMgr@@@std@@U_Kfn@?$map@KUCHANNINFO@CChannelMgr@@U?$less@K@std@@V?$allocator@UCHANNINFO@CChannelMgr@@@4@@2@U?$less@K@2@V?$allocator@UCHANNINFO@CChannelMgr@@@2@@std@@QAE?AViterator@12@ABK@Z 00408d40 f i ChannelMgr.obj
 0001:00007de0       ?_Freenode@?$_Tree@KU?$pair@$$CBKUCHANNINFO@CChannelMgr@@@std@@U_Kfn@?$map@KUCHANNINFO@CChannelMgr@@U?$less@K@std@@V?$allocator@UCHANNINFO@CChannelMgr@@@4@@2@U?$less@K@2@V?$allocator@UCHANNINFO@CChannelMgr@@@2@@std@@IAEXPAU_Node@12@@Z 00408de0 f i ChannelMgr.obj
 0001:00007e00       ??0?$pair@$$CBKUCHANNINFO@CChannelMgr@@@std@@QAE@ABKABUCHANNINFO@CChannelMgr@@@Z 00408e00 f i ChannelMgr.obj
 0001:00007e30       ??Eiterator@?$_Tree@KU?$pair@$$CBKUCHANNINFO@CChannelMgr@@@std@@U_Kfn@?$map@KUCHANNINFO@CChannelMgr@@U?$less@K@std@@V?$allocator@UCHANNINFO@CChannelMgr@@@4@@2@U?$less@K@2@V?$allocator@UCHANNINFO@CChannelMgr@@@2@@std@@QAEAAV012@XZ 00408e30 f i ChannelMgr.obj
 0001:00007e50       ?insert@?$map@V?$basic_string@DU?$char_traits@D@std@@V?$allocator@D@2@@std@@KU_tstring_less@@V?$allocator@K@2@@std@@QAE?AU?$pair@Viterator@?$_Tree@V?$basic_string@DU?$char_traits@D@std@@V?$allocator@D@2@@std@@U?$pair@$$CBV?$basic_string@DU?$char_traits@D@std@@V?$allocator@D@2@@std@@K@2@U_Kfn@?$map@V?$basic_string@DU?$char_traits@D@std@@V?$allocator@D@2@@std@@KU_tstring_less@@V?$allocator@K@2@@2@U_tstring_less@@V?$allocator@K@2@@std@@_N@2@ABU?$pair@$$CBV?$basic_string@DU?$char_traits@D@std@@V?$allocator@D@2@@std@@K@2@@Z 00408e50 f i ChannelMgr.obj
 0001:00007ea0       ?_Value@?$_Tree@V?$basic_string@DU?$char_traits@D@std@@V?$allocator@D@2@@std@@U?$pair@$$CBV?$basic_string@DU?$char_traits@D@std@@V?$allocator@D@2@@std@@K@2@U_Kfn@?$map@V?$basic_string@DU?$char_traits@D@std@@V?$allocator@D@2@@std@@KU_tstring_less@@V?$allocator@K@2@@2@U_tstring_less@@V?$allocator@K@2@@std@@KAAAU?$pair@$$CBV?$basic_string@DU?$char_traits@D@std@@V?$allocator@D@2@@std@@K@2@PAU_Node@12@@Z 00408ea0 f i ChannelMgr.obj
 0001:00007eb0       ??0?$_Tree@V?$basic_string@DU?$char_traits@D@std@@V?$allocator@D@2@@std@@U?$pair@$$CBV?$basic_string@DU?$char_traits@D@std@@V?$allocator@D@2@@std@@K@2@U_Kfn@?$map@V?$basic_string@DU?$char_traits@D@std@@V?$allocator@D@2@@std@@KU_tstring_less@@V?$allocator@K@2@@2@U_tstring_less@@V?$allocator@K@2@@std@@QAE@ABU_tstring_less@@_NABV?$allocator@K@1@@Z 00408eb0 f i ChannelMgr.obj
 0001:00007ef0       ?begin@?$_Tree@V?$basic_string@DU?$char_traits@D@std@@V?$allocator@D@2@@std@@U?$pair@$$CBV?$basic_string@DU?$char_traits@D@std@@V?$allocator@D@2@@std@@K@2@U_Kfn@?$map@V?$basic_string@DU?$char_traits@D@std@@V?$allocator@D@2@@std@@KU_tstring_less@@V?$allocator@K@2@@2@U_tstring_less@@V?$allocator@K@2@@std@@QAE?AViterator@12@XZ 00408ef0 f i ChannelMgr.obj
 0001:00007f20       ?end@?$_Tree@V?$basic_string@DU?$char_traits@D@std@@V?$allocator@D@2@@std@@U?$pair@$$CBV?$basic_string@DU?$char_traits@D@std@@V?$allocator@D@2@@std@@K@2@U_Kfn@?$map@V?$basic_string@DU?$char_traits@D@std@@V?$allocator@D@2@@std@@KU_tstring_less@@V?$allocator@K@2@@2@U_tstring_less@@V?$allocator@K@2@@std@@QAE?AViterator@12@XZ 00408f20 f i ChannelMgr.obj
 0001:00007f50       ?erase@?$_Tree@V?$basic_string@DU?$char_traits@D@std@@V?$allocator@D@2@@std@@U?$pair@$$CBV?$basic_string@DU?$char_traits@D@std@@V?$allocator@D@2@@std@@K@2@U_Kfn@?$map@V?$basic_string@DU?$char_traits@D@std@@V?$allocator@D@2@@std@@KU_tstring_less@@V?$allocator@K@2@@2@U_tstring_less@@V?$allocator@K@2@@std@@QAE?AViterator@12@V312@0@Z 00408f50 f i ChannelMgr.obj
 0001:00008090       ?erase@?$_Tree@V?$basic_string@DU?$char_traits@D@std@@V?$allocator@D@2@@std@@U?$pair@$$CBV?$basic_string@DU?$char_traits@D@std@@V?$allocator@D@2@@std@@K@2@U_Kfn@?$map@V?$basic_string@DU?$char_traits@D@std@@V?$allocator@D@2@@std@@KU_tstring_less@@V?$allocator@K@2@@2@U_tstring_less@@V?$allocator@K@2@@std@@QAEIABV?$basic_string@DU?$char_traits@D@std@@V?$allocator@D@2@@2@@Z 00409090 f i ChannelMgr.obj
 0001:000080f0       ?clear@?$_Tree@V?$basic_string@DU?$char_traits@D@std@@V?$allocator@D@2@@std@@U?$pair@$$CBV?$basic_string@DU?$char_traits@D@std@@V?$allocator@D@2@@std@@K@2@U_Kfn@?$map@V?$basic_string@DU?$char_traits@D@std@@V?$allocator@D@2@@std@@KU_tstring_less@@V?$allocator@K@2@@2@U_tstring_less@@V?$allocator@K@2@@std@@QAEXXZ 004090f0 f i ChannelMgr.obj
 0001:00008130       ?find@?$_Tree@V?$basic_string@DU?$char_traits@D@std@@V?$allocator@D@2@@std@@U?$pair@$$CBV?$basic_string@DU?$char_traits@D@std@@V?$allocator@D@2@@std@@K@2@U_Kfn@?$map@V?$basic_string@DU?$char_traits@D@std@@V?$allocator@D@2@@std@@KU_tstring_less@@V?$allocator@K@2@@2@U_tstring_less@@V?$allocator@K@2@@std@@QAE?AViterator@12@ABV?$basic_string@DU?$char_traits@D@std@@V?$allocator@D@2@@2@@Z 00409130 f i ChannelMgr.obj
 0001:000081d0       ??R_tstring_less@@QBE_NABV?$basic_string@DU?$char_traits@D@std@@V?$allocator@D@2@@std@@0@Z 004091d0 f i ChannelMgr.obj
 0001:00008230       ?_Freenode@?$_Tree@V?$basic_string@DU?$char_traits@D@std@@V?$allocator@D@2@@std@@U?$pair@$$CBV?$basic_string@DU?$char_traits@D@std@@V?$allocator@D@2@@std@@K@2@U_Kfn@?$map@V?$basic_string@DU?$char_traits@D@std@@V?$allocator@D@2@@std@@KU_tstring_less@@V?$allocator@K@2@@2@U_tstring_less@@V?$allocator@K@2@@std@@IAEXPAU_Node@12@@Z 00409230 f i ChannelMgr.obj
 0001:00008250       ??0?$pair@$$CBV?$basic_string@DU?$char_traits@D@std@@V?$allocator@D@2@@std@@K@std@@QAE@ABV?$basic_string@DU?$char_traits@D@std@@V?$allocator@D@2@@1@ABK@Z 00409250 f i ChannelMgr.obj
 0001:00008280       ?_Value@?$_Tree@KU?$pair@$$CBKV?$list@PAU_BLOCKCHANNELOP@CChannelMgr@@V?$allocator@PAU_BLOCKCHANNELOP@CChannelMgr@@@std@@@std@@@std@@U_Kfn@?$map@KV?$list@PAU_BLOCKCHANNELOP@CChannelMgr@@V?$allocator@PAU_BLOCKCHANNELOP@CChannelMgr@@@std@@@std@@U?$less@K@2@V?$allocator@V?$list@PAU_BLOCKCHANNELOP@CChannelMgr@@V?$allocator@PAU_BLOCKCHANNELOP@CChannelMgr@@@std@@@std@@@2@@2@U?$less@K@2@V?$allocator@V?$list@PAU_BLOCKCHANNELOP@CChannelMgr@@V?$allocator@PAU_BLOCKCHANNELOP@CChannelMgr@@@std@@@std@@@2@@std@@KAAAU?$pair@$$CBKV?$list@PAU_BLOCKCHANNELOP@CChannelMgr@@V?$allocator@PAU_BLOCKCHANNELOP@CChannelMgr@@@std@@@std@@@2@PAU_Node@12@@Z 00409280 f i ChannelMgr.obj
 0001:00008290       ??0?$_Tree@KU?$pair@$$CBKV?$list@PAU_BLOCKCHANNELOP@CChannelMgr@@V?$allocator@PAU_BLOCKCHANNELOP@CChannelMgr@@@std@@@std@@@std@@U_Kfn@?$map@KV?$list@PAU_BLOCKCHANNELOP@CChannelMgr@@V?$allocator@PAU_BLOCKCHANNELOP@CChannelMgr@@@std@@@std@@U?$less@K@2@V?$allocator@V?$list@PAU_BLOCKCHANNELOP@CChannelMgr@@V?$allocator@PAU_BLOCKCHANNELOP@CChannelMgr@@@std@@@std@@@2@@2@U?$less@K@2@V?$allocator@V?$list@PAU_BLOCKCHANNELOP@CChannelMgr@@V?$allocator@PAU_BLOCKCHANNELOP@CChannelMgr@@@std@@@std@@@2@@std@@QAE@ABU?$less@K@1@_NABV?$allocator@V?$list@PAU_BLOCKCHANNELOP@CChannelMgr@@V?$allocator@PAU_BLOCKCHANNELOP@CChannelMgr@@@std@@@std@@@1@@Z 00409290 f i ChannelMgr.obj
 0001:000082d0       ?begin@?$_Tree@KU?$pair@$$CBKV?$list@PAU_BLOCKCHANNELOP@CChannelMgr@@V?$allocator@PAU_BLOCKCHANNELOP@CChannelMgr@@@std@@@std@@@std@@U_Kfn@?$map@KV?$list@PAU_BLOCKCHANNELOP@CChannelMgr@@V?$allocator@PAU_BLOCKCHANNELOP@CChannelMgr@@@std@@@std@@U?$less@K@2@V?$allocator@V?$list@PAU_BLOCKCHANNELOP@CChannelMgr@@V?$allocator@PAU_BLOCKCHANNELOP@CChannelMgr@@@std@@@std@@@2@@2@U?$less@K@2@V?$allocator@V?$list@PAU_BLOCKCHANNELOP@CChannelMgr@@V?$allocator@PAU_BLOCKCHANNELOP@CChannelMgr@@@std@@@std@@@2@@std@@QAE?AViterator@12@XZ 004092d0 f i ChannelMgr.obj
 0001:00008300       ?end@?$_Tree@KU?$pair@$$CBKV?$list@PAU_BLOCKCHANNELOP@CChannelMgr@@V?$allocator@PAU_BLOCKCHANNELOP@CChannelMgr@@@std@@@std@@@std@@U_Kfn@?$map@KV?$list@PAU_BLOCKCHANNELOP@CChannelMgr@@V?$allocator@PAU_BLOCKCHANNELOP@CChannelMgr@@@std@@@std@@U?$less@K@2@V?$allocator@V?$list@PAU_BLOCKCHANNELOP@CChannelMgr@@V?$allocator@PAU_BLOCKCHANNELOP@CChannelMgr@@@std@@@std@@@2@@2@U?$less@K@2@V?$allocator@V?$list@PAU_BLOCKCHANNELOP@CChannelMgr@@V?$allocator@PAU_BLOCKCHANNELOP@CChannelMgr@@@std@@@std@@@2@@std@@QAE?AViterator@12@XZ 00409300 f i ChannelMgr.obj
 0001:00008330       ?erase@?$_Tree@KU?$pair@$$CBKV?$list@PAU_BLOCKCHANNELOP@CChannelMgr@@V?$allocator@PAU_BLOCKCHANNELOP@CChannelMgr@@@std@@@std@@@std@@U_Kfn@?$map@KV?$list@PAU_BLOCKCHANNELOP@CChannelMgr@@V?$allocator@PAU_BLOCKCHANNELOP@CChannelMgr@@@std@@@std@@U?$less@K@2@V?$allocator@V?$list@PAU_BLOCKCHANNELOP@CChannelMgr@@V?$allocator@PAU_BLOCKCHANNELOP@CChannelMgr@@@std@@@std@@@2@@2@U?$less@K@2@V?$allocator@V?$list@PAU_BLOCKCHANNELOP@CChannelMgr@@V?$allocator@PAU_BLOCKCHANNELOP@CChannelMgr@@@std@@@std@@@2@@std@@QAE?AViterator@12@V312@0@Z 00409330 f i ChannelMgr.obj
 0001:00008470       ?clear@?$_Tree@KU?$pair@$$CBKV?$list@PAU_BLOCKCHANNELOP@CChannelMgr@@V?$allocator@PAU_BLOCKCHANNELOP@CChannelMgr@@@std@@@std@@@std@@U_Kfn@?$map@KV?$list@PAU_BLOCKCHANNELOP@CChannelMgr@@V?$allocator@PAU_BLOCKCHANNELOP@CChannelMgr@@@std@@@std@@U?$less@K@2@V?$allocator@V?$list@PAU_BLOCKCHANNELOP@CChannelMgr@@V?$allocator@PAU_BLOCKCHANNELOP@CChannelMgr@@@std@@@std@@@2@@2@U?$less@K@2@V?$allocator@V?$list@PAU_BLOCKCHANNELOP@CChannelMgr@@V?$allocator@PAU_BLOCKCHANNELOP@CChannelMgr@@@std@@@std@@@2@@std@@QAEXXZ 00409470 f i ChannelMgr.obj
 0001:000084b0       ?_Freenode@?$_Tree@KU?$pair@$$CBKV?$list@PAU_BLOCKCHANNELOP@CChannelMgr@@V?$allocator@PAU_BLOCKCHANNELOP@CChannelMgr@@@std@@@std@@@std@@U_Kfn@?$map@KV?$list@PAU_BLOCKCHANNELOP@CChannelMgr@@V?$allocator@PAU_BLOCKCHANNELOP@CChannelMgr@@@std@@@std@@U?$less@K@2@V?$allocator@V?$list@PAU_BLOCKCHANNELOP@CChannelMgr@@V?$allocator@PAU_BLOCKCHANNELOP@CChannelMgr@@@std@@@std@@@2@@2@U?$less@K@2@V?$allocator@V?$list@PAU_BLOCKCHANNELOP@CChannelMgr@@V?$allocator@PAU_BLOCKCHANNELOP@CChannelMgr@@@std@@@std@@@2@@std@@IAEXPAU_Node@12@@Z 004094b0 f i ChannelMgr.obj
 0001:000084d0       ?_Next@_Acc@?$list@PAU_BLOCKCHANNELOP@CChannelMgr@@V?$allocator@PAU_BLOCKCHANNELOP@CChannelMgr@@@std@@@std@@SAAAPAU_Node@23@PAU423@@Z 004094d0 f i ChannelMgr.obj
 0001:000084e0       ?_Value@_Acc@?$list@PAU_BLOCKCHANNELOP@CChannelMgr@@V?$allocator@PAU_BLOCKCHANNELOP@CChannelMgr@@@std@@@std@@SAAAPAU_BLOCKCHANNELOP@CChannelMgr@@PAU_Node@23@@Z 004094e0 f i ChannelMgr.obj
 0001:000084f0       ??0iterator@?$list@PAU_BLOCKCHANNELOP@CChannelMgr@@V?$allocator@PAU_BLOCKCHANNELOP@CChannelMgr@@@std@@@std@@QAE@PAU_Node@12@@Z 004094f0 f i ChannelMgr.obj
 0001:00008510       ??Eiterator@?$list@PAU_BLOCKCHANNELOP@CChannelMgr@@V?$allocator@PAU_BLOCKCHANNELOP@CChannelMgr@@@std@@@std@@QAEAAV012@XZ 00409510 f i ChannelMgr.obj
 0001:00008540       ??8iterator@?$list@PAU_BLOCKCHANNELOP@CChannelMgr@@V?$allocator@PAU_BLOCKCHANNELOP@CChannelMgr@@@std@@@std@@QBE_NABV012@@Z 00409540 f i ChannelMgr.obj
 0001:00008560       ??Eiterator@?$_Tree@KU?$pair@$$CBKV?$list@PAU_BLOCKCHANNELOP@CChannelMgr@@V?$allocator@PAU_BLOCKCHANNELOP@CChannelMgr@@@std@@@std@@@std@@U_Kfn@?$map@KV?$list@PAU_BLOCKCHANNELOP@CChannelMgr@@V?$allocator@PAU_BLOCKCHANNELOP@CChannelMgr@@@std@@@std@@U?$less@K@2@V?$allocator@V?$list@PAU_BLOCKCHANNELOP@CChannelMgr@@V?$allocator@PAU_BLOCKCHANNELOP@CChannelMgr@@@std@@@std@@@2@@2@U?$less@K@2@V?$allocator@V?$list@PAU_BLOCKCHANNELOP@CChannelMgr@@V?$allocator@PAU_BLOCKCHANNELOP@CChannelMgr@@@std@@@std@@@2@@std@@QAEAAV012@XZ 00409560 f i ChannelMgr.obj
 0001:00008580       ??8iterator@?$_Tree@KU?$pair@$$CBKV?$list@PAU_BLOCKCHANNELOP@CChannelMgr@@V?$allocator@PAU_BLOCKCHANNELOP@CChannelMgr@@@std@@@std@@@std@@U_Kfn@?$map@KV?$list@PAU_BLOCKCHANNELOP@CChannelMgr@@V?$allocator@PAU_BLOCKCHANNELOP@CChannelMgr@@@std@@@std@@U?$less@K@2@V?$allocator@V?$list@PAU_BLOCKCHANNELOP@CChannelMgr@@V?$allocator@PAU_BLOCKCHANNELOP@CChannelMgr@@@std@@@std@@@2@@2@U?$less@K@2@V?$allocator@V?$list@PAU_BLOCKCHANNELOP@CChannelMgr@@V?$allocator@PAU_BLOCKCHANNELOP@CChannelMgr@@@std@@@std@@@2@@std@@QBE_NABV012@@Z 00409580 f i ChannelMgr.obj
 0001:000085a0       ?begin@?$list@UtagPlusSrcInfo@@V?$allocator@UtagPlusSrcInfo@@@std@@@std@@QAE?AViterator@12@XZ 004095a0 f i ChannelMgr.obj
 0001:000085e0       ?end@?$list@UtagPlusSrcInfo@@V?$allocator@UtagPlusSrcInfo@@@std@@@std@@QAE?AViterator@12@XZ 004095e0 f i ChannelMgr.obj
 0001:00008610       ?size@?$list@UtagPlusSrcInfo@@V?$allocator@UtagPlusSrcInfo@@@std@@@std@@QBEIXZ 00409610 f i ChannelMgr.obj
 0001:00008630       ?insert@?$list@UtagPlusSrcInfo@@V?$allocator@UtagPlusSrcInfo@@@std@@@std@@QAE?AViterator@12@V312@ABUtagPlusSrcInfo@@@Z 00409630 f i ChannelMgr.obj
 0001:000086f0       ?erase@?$list@UtagPlusSrcInfo@@V?$allocator@UtagPlusSrcInfo@@@std@@@std@@QAE?AViterator@12@V312@0@Z 004096f0 f i ChannelMgr.obj
 0001:00008740       ?_Buynode@?$list@UtagPlusSrcInfo@@V?$allocator@UtagPlusSrcInfo@@@std@@@std@@IAEPAU_Node@12@PAU312@0@Z 00409740 f i ChannelMgr.obj
 0001:000087b0       ?_Freenode@?$list@UtagPlusSrcInfo@@V?$allocator@UtagPlusSrcInfo@@@std@@@std@@IAEXPAU_Node@12@@Z 004097b0 f i ChannelMgr.obj
 0001:000087d0       ?_Next@_Acc@?$list@UtagPlusSrcInfo@@V?$allocator@UtagPlusSrcInfo@@@std@@@std@@SAAAPAU_Node@23@PAU423@@Z 004097d0 f i ChannelMgr.obj
 0001:000087e0       ?_Value@_Acc@?$list@UtagPlusSrcInfo@@V?$allocator@UtagPlusSrcInfo@@@std@@@std@@SAAAUtagPlusSrcInfo@@PAU_Node@23@@Z 004097e0 f i ChannelMgr.obj
 0001:000087f0       ??0const_iterator@?$list@UtagPlusSrcInfo@@V?$allocator@UtagPlusSrcInfo@@@std@@@std@@QAE@PAU_Node@12@@Z 004097f0 f i ChannelMgr.obj
 0001:00008810       ??Econst_iterator@?$list@UtagPlusSrcInfo@@V?$allocator@UtagPlusSrcInfo@@@std@@@std@@QAEAAV012@XZ 00409810 f i ChannelMgr.obj
 0001:00008840       ??8const_iterator@?$list@UtagPlusSrcInfo@@V?$allocator@UtagPlusSrcInfo@@@std@@@std@@QBE_NABV012@@Z 00409840 f i ChannelMgr.obj
 0001:00008860       ??0?$map@KUPLAYERINFO@CChannelMgr@@U?$less@K@std@@V?$allocator@UPLAYERINFO@CChannelMgr@@@4@@std@@QAE@ABV01@@Z 00409860 f i ChannelMgr.obj
 0001:00008880       ??0CHANNINFO@CChannelMgr@@QAE@ABU01@@Z 00409880 f i ChannelMgr.obj
 0001:00008920       ??0?$map@KV?$map@KUPLAYERINFO@CChannelMgr@@U?$less@K@std@@V?$allocator@UPLAYERINFO@CChannelMgr@@@4@@std@@U?$less@K@2@V?$allocator@V?$map@KUPLAYERINFO@CChannelMgr@@U?$less@K@std@@V?$allocator@UPLAYERINFO@CChannelMgr@@@4@@std@@@2@@std@@QAE@ABV01@@Z 00409920 f i ChannelMgr.obj
 0001:00008940       ?append@?$basic_string@DU?$char_traits@D@std@@V?$allocator@D@2@@std@@QAEAAV12@PBDI@Z 00409940 f i ChannelMgr.obj
 0001:000089c0       ?erase@?$basic_string@DU?$char_traits@D@std@@V?$allocator@D@2@@std@@QAEAAV12@II@Z 004099c0 f i ChannelMgr.obj
 0001:00008a70       ?move@?$char_traits@D@std@@SAPADPADPBDI@Z 00409a70 f i ChannelMgr.obj
 0001:00008a90       ?capacity@?$basic_string@DU?$char_traits@D@std@@V?$allocator@D@2@@std@@QBEIXZ 00409a90 f i ChannelMgr.obj
 0001:00008ab0       ?_Eos@?$basic_string@DU?$char_traits@D@std@@V?$allocator@D@2@@std@@AAEXI@Z 00409ab0 f i ChannelMgr.obj
 0001:00008af0       ?assign@?$char_traits@D@std@@SAXAADABD@Z 00409af0 f i ChannelMgr.obj
 0001:00008b00       ?_Grow@?$basic_string@DU?$char_traits@D@std@@V?$allocator@D@2@@std@@AAE_NI_N@Z 00409b00 f i ChannelMgr.obj
 0001:00008c40       ?_Refcnt@?$basic_string@DU?$char_traits@D@std@@V?$allocator@D@2@@std@@AAEAAEPBD@Z 00409c40 f i ChannelMgr.obj
 0001:00008c60       ?deallocate@?$allocator@D@std@@QAEXPAXI@Z 00409c60 f i ChannelMgr.obj
 0001:00008c80       ??R?$less@K@std@@QBE_NABK0@Z 00409c80 f i ChannelMgr.obj
 0001:00008ca0       ?_Color@?$_Tree@KU?$pair@$$CBKV?$map@KUPLAYERINFO@CChannelMgr@@U?$less@K@std@@V?$allocator@UPLAYERINFO@CChannelMgr@@@4@@std@@@std@@U_Kfn@?$map@KV?$map@KUPLAYERINFO@CChannelMgr@@U?$less@K@std@@V?$allocator@UPLAYERINFO@CChannelMgr@@@4@@std@@U?$less@K@2@V?$allocator@V?$map@KUPLAYERINFO@CChannelMgr@@U?$less@K@std@@V?$allocator@UPLAYERINFO@CChannelMgr@@@4@@std@@@2@@2@U?$less@K@2@V?$allocator@V?$map@KUPLAYERINFO@CChannelMgr@@U?$less@K@std@@V?$allocator@UPLAYERINFO@CChannelMgr@@@4@@std@@@2@@std@@KAAAW4_Redbl@12@PAU_Node@12@@Z 00409ca0 f i ChannelMgr.obj
 0001:00008cb0       ?_Key@?$_Tree@KU?$pair@$$CBKV?$map@KUPLAYERINFO@CChannelMgr@@U?$less@K@std@@V?$allocator@UPLAYERINFO@CChannelMgr@@@4@@std@@@std@@U_Kfn@?$map@KV?$map@KUPLAYERINFO@CChannelMgr@@U?$less@K@std@@V?$allocator@UPLAYERINFO@CChannelMgr@@@4@@std@@U?$less@K@2@V?$allocator@V?$map@KUPLAYERINFO@CChannelMgr@@U?$less@K@std@@V?$allocator@UPLAYERINFO@CChannelMgr@@@4@@std@@@2@@2@U?$less@K@2@V?$allocator@V?$map@KUPLAYERINFO@CChannelMgr@@U?$less@K@std@@V?$allocator@UPLAYERINFO@CChannelMgr@@@4@@std@@@2@@std@@KAABKPAU_Node@12@@Z 00409cb0 f i ChannelMgr.obj
 0001:00008cd0       ?_Left@?$_Tree@KU?$pair@$$CBKV?$map@KUPLAYERINFO@CChannelMgr@@U?$less@K@std@@V?$allocator@UPLAYERINFO@CChannelMgr@@@4@@std@@@std@@U_Kfn@?$map@KV?$map@KUPLAYERINFO@CChannelMgr@@U?$less@K@std@@V?$allocator@UPLAYERINFO@CChannelMgr@@@4@@std@@U?$less@K@2@V?$allocator@V?$map@KUPLAYERINFO@CChannelMgr@@U?$less@K@std@@V?$allocator@UPLAYERINFO@CChannelMgr@@@4@@std@@@2@@2@U?$less@K@2@V?$allocator@V?$map@KUPLAYERINFO@CChannelMgr@@U?$less@K@std@@V?$allocator@UPLAYERINFO@CChannelMgr@@@4@@std@@@2@@std@@KAAAPAU_Node@12@PAU312@@Z 00409cd0 f i ChannelMgr.obj
 0001:00008ce0       ?_Parent@?$_Tree@KU?$pair@$$CBKV?$map@KUPLAYERINFO@CChannelMgr@@U?$less@K@std@@V?$allocator@UPLAYERINFO@CChannelMgr@@@4@@std@@@std@@U_Kfn@?$map@KV?$map@KUPLAYERINFO@CChannelMgr@@U?$less@K@std@@V?$allocator@UPLAYERINFO@CChannelMgr@@@4@@std@@U?$less@K@2@V?$allocator@V?$map@KUPLAYERINFO@CChannelMgr@@U?$less@K@std@@V?$allocator@UPLAYERINFO@CChannelMgr@@@4@@std@@@2@@2@U?$less@K@2@V?$allocator@V?$map@KUPLAYERINFO@CChannelMgr@@U?$less@K@std@@V?$allocator@UPLAYERINFO@CChannelMgr@@@4@@std@@@2@@std@@KAAAPAU_Node@12@PAU312@@Z 00409ce0 f i ChannelMgr.obj
 0001:00008cf0       ?_Right@?$_Tree@KU?$pair@$$CBKV?$map@KUPLAYERINFO@CChannelMgr@@U?$less@K@std@@V?$allocator@UPLAYERINFO@CChannelMgr@@@4@@std@@@std@@U_Kfn@?$map@KV?$map@KUPLAYERINFO@CChannelMgr@@U?$less@K@std@@V?$allocator@UPLAYERINFO@CChannelMgr@@@4@@std@@U?$less@K@2@V?$allocator@V?$map@KUPLAYERINFO@CChannelMgr@@U?$less@K@std@@V?$allocator@UPLAYERINFO@CChannelMgr@@@4@@std@@@2@@2@U?$less@K@2@V?$allocator@V?$map@KUPLAYERINFO@CChannelMgr@@U?$less@K@std@@V?$allocator@UPLAYERINFO@CChannelMgr@@@4@@std@@@2@@std@@KAAAPAU_Node@12@PAU312@@Z 00409cf0 f i ChannelMgr.obj
 0001:00008d00       ??0?$_Tree@KU?$pair@$$CBKV?$map@KUPLAYERINFO@CChannelMgr@@U?$less@K@std@@V?$allocator@UPLAYERINFO@CChannelMgr@@@4@@std@@@std@@U_Kfn@?$map@KV?$map@KUPLAYERINFO@CChannelMgr@@U?$less@K@std@@V?$allocator@UPLAYERINFO@CChannelMgr@@@4@@std@@U?$less@K@2@V?$allocator@V?$map@KUPLAYERINFO@CChannelMgr@@U?$less@K@std@@V?$allocator@UPLAYERINFO@CChannelMgr@@@4@@std@@@2@@2@U?$less@K@2@V?$allocator@V?$map@KUPLAYERINFO@CChannelMgr@@U?$less@K@std@@V?$allocator@UPLAYERINFO@CChannelMgr@@@4@@std@@@2@@std@@QAE@ABU?$less@K@1@_NABV?$allocator@V?$map@KUPLAYERINFO@CChannelMgr@@U?$less@K@std@@V?$allocator@UPLAYERINFO@CChannelMgr@@@4@@std@@@1@@Z 00409d00 f i ChannelMgr.obj
 0001:00008d40       ??0?$_Tree@KU?$pair@$$CBKV?$map@KUPLAYERINFO@CChannelMgr@@U?$less@K@std@@V?$allocator@UPLAYERINFO@CChannelMgr@@@4@@std@@@std@@U_Kfn@?$map@KV?$map@KUPLAYERINFO@CChannelMgr@@U?$less@K@std@@V?$allocator@UPLAYERINFO@CChannelMgr@@@4@@std@@U?$less@K@2@V?$allocator@V?$map@KUPLAYERINFO@CChannelMgr@@U?$less@K@std@@V?$allocator@UPLAYERINFO@CChannelMgr@@@4@@std@@@2@@2@U?$less@K@2@V?$allocator@V?$map@KUPLAYERINFO@CChannelMgr@@U?$less@K@std@@V?$allocator@UPLAYERINFO@CChannelMgr@@@4@@std@@@2@@std@@QAE@ABV01@@Z 00409d40 f i ChannelMgr.obj
 0001:00008d90       ?size@?$_Tree@KU?$pair@$$CBKV?$map@KUPLAYERINFO@CChannelMgr@@U?$less@K@std@@V?$allocator@UPLAYERINFO@CChannelMgr@@@4@@std@@@std@@U_Kfn@?$map@KV?$map@KUPLAYERINFO@CChannelMgr@@U?$less@K@std@@V?$allocator@UPLAYERINFO@CChannelMgr@@@4@@std@@U?$less@K@2@V?$allocator@V?$map@KUPLAYERINFO@CChannelMgr@@U?$less@K@std@@V?$allocator@UPLAYERINFO@CChannelMgr@@@4@@std@@@2@@2@U?$less@K@2@V?$allocator@V?$map@KUPLAYERINFO@CChannelMgr@@U?$less@K@std@@V?$allocator@UPLAYERINFO@CChannelMgr@@@4@@std@@@2@@std@@QBEIXZ 00409d90 f i ChannelMgr.obj
 0001:00008db0       ?insert@?$_Tree@KU?$pair@$$CBKV?$map@KUPLAYERINFO@CChannelMgr@@U?$less@K@std@@V?$allocator@UPLAYERINFO@CChannelMgr@@@4@@std@@@std@@U_Kfn@?$map@KV?$map@KUPLAYERINFO@CChannelMgr@@U?$less@K@std@@V?$allocator@UPLAYERINFO@CChannelMgr@@@4@@std@@U?$less@K@2@V?$allocator@V?$map@KUPLAYERINFO@CChannelMgr@@U?$less@K@std@@V?$allocator@UPLAYERINFO@CChannelMgr@@@4@@std@@@2@@2@U?$less@K@2@V?$allocator@V?$map@KUPLAYERINFO@CChannelMgr@@U?$less@K@std@@V?$allocator@UPLAYERINFO@CChannelMgr@@@4@@std@@@2@@std@@QAE?AU?$pair@Viterator@?$_Tree@KU?$pair@$$CBKV?$map@KUPLAYERINFO@CChannelMgr@@U?$less@K@std@@V?$allocator@UPLAYERINFO@CChannelMgr@@@4@@std@@@std@@U_Kfn@?$map@KV?$map@KUPLAYERINFO@CChannelMgr@@U?$less@K@std@@V?$allocator@UPLAYERINFO@CChannelMgr@@@4@@std@@U?$less@K@2@V?$allocator@V?$map@KUPLAYERINFO@CChannelMgr@@U?$less@K@std@@V?$allocator@UPLAYERINFO@CChannelMgr@@@4@@std@@@2@@2@U?$less@K@2@V?$allocator@V?$map@KUPLAYERINFO@CChannelMgr@@U?$less@K@std@@V?$allocator@UPLAYERINFO@CChannelMgr@@@4@@std@@@2@@std@@_N@2@ABU?$pair@$$CBKV?$map@KUPLAYERINFO@CChannelMgr@@U?$less@K@std@@V?$allocator@UPLAYERINFO@CChannelMgr@@@4@@std@@@2@@Z 00409db0 f i ChannelMgr.obj
 0001:00008ff0       ?erase@?$_Tree@KU?$pair@$$CBKV?$map@KUPLAYERINFO@CChannelMgr@@U?$less@K@std@@V?$allocator@UPLAYERINFO@CChannelMgr@@@4@@std@@@std@@U_Kfn@?$map@KV?$map@KUPLAYERINFO@CChannelMgr@@U?$less@K@std@@V?$allocator@UPLAYERINFO@CChannelMgr@@@4@@std@@U?$less@K@2@V?$allocator@V?$map@KUPLAYERINFO@CChannelMgr@@U?$less@K@std@@V?$allocator@UPLAYERINFO@CChannelMgr@@@4@@std@@@2@@2@U?$less@K@2@V?$allocator@V?$map@KUPLAYERINFO@CChannelMgr@@U?$less@K@std@@V?$allocator@UPLAYERINFO@CChannelMgr@@@4@@std@@@2@@std@@QAE?AViterator@12@V312@0@Z 00409ff0 f i ChannelMgr.obj
 0001:00009130       ?lower_bound@?$_Tree@KU?$pair@$$CBKV?$map@KUPLAYERINFO@CChannelMgr@@U?$less@K@std@@V?$allocator@UPLAYERINFO@CChannelMgr@@@4@@std@@@std@@U_Kfn@?$map@KV?$map@KUPLAYERINFO@CChannelMgr@@U?$less@K@std@@V?$allocator@UPLAYERINFO@CChannelMgr@@@4@@std@@U?$less@K@2@V?$allocator@V?$map@KUPLAYERINFO@CChannelMgr@@U?$less@K@std@@V?$allocator@UPLAYERINFO@CChannelMgr@@@4@@std@@@2@@2@U?$less@K@2@V?$allocator@V?$map@KUPLAYERINFO@CChannelMgr@@U?$less@K@std@@V?$allocator@UPLAYERINFO@CChannelMgr@@@4@@std@@@2@@std@@QAE?AViterator@12@ABK@Z 0040a130 f i ChannelMgr.obj
 0001:00009160       ?_Lmost@?$_Tree@KU?$pair@$$CBKV?$map@KUPLAYERINFO@CChannelMgr@@U?$less@K@std@@V?$allocator@UPLAYERINFO@CChannelMgr@@@4@@std@@@std@@U_Kfn@?$map@KV?$map@KUPLAYERINFO@CChannelMgr@@U?$less@K@std@@V?$allocator@UPLAYERINFO@CChannelMgr@@@4@@std@@U?$less@K@2@V?$allocator@V?$map@KUPLAYERINFO@CChannelMgr@@U?$less@K@std@@V?$allocator@UPLAYERINFO@CChannelMgr@@@4@@std@@@2@@2@U?$less@K@2@V?$allocator@V?$map@KUPLAYERINFO@CChannelMgr@@U?$less@K@std@@V?$allocator@UPLAYERINFO@CChannelMgr@@@4@@std@@@2@@std@@IAEAAPAU_Node@12@XZ 0040a160 f i ChannelMgr.obj
 0001:00009180       ?_Lrotate@?$_Tree@KU?$pair@$$CBKV?$map@KUPLAYERINFO@CChannelMgr@@U?$less@K@std@@V?$allocator@UPLAYERINFO@CChannelMgr@@@4@@std@@@std@@U_Kfn@?$map@KV?$map@KUPLAYERINFO@CChannelMgr@@U?$less@K@std@@V?$allocator@UPLAYERINFO@CChannelMgr@@@4@@std@@U?$less@K@2@V?$allocator@V?$map@KUPLAYERINFO@CChannelMgr@@U?$less@K@std@@V?$allocator@UPLAYERINFO@CChannelMgr@@@4@@std@@@2@@2@U?$less@K@2@V?$allocator@V?$map@KUPLAYERINFO@CChannelMgr@@U?$less@K@std@@V?$allocator@UPLAYERINFO@CChannelMgr@@@4@@std@@@2@@std@@IAEXPAU_Node@12@@Z 0040a180 f i ChannelMgr.obj
 0001:000092f0       ?_Max@?$_Tree@KU?$pair@$$CBKV?$map@KUPLAYERINFO@CChannelMgr@@U?$less@K@std@@V?$allocator@UPLAYERINFO@CChannelMgr@@@4@@std@@@std@@U_Kfn@?$map@KV?$map@KUPLAYERINFO@CChannelMgr@@U?$less@K@std@@V?$allocator@UPLAYERINFO@CChannelMgr@@@4@@std@@U?$less@K@2@V?$allocator@V?$map@KUPLAYERINFO@CChannelMgr@@U?$less@K@std@@V?$allocator@UPLAYERINFO@CChannelMgr@@@4@@std@@@2@@2@U?$less@K@2@V?$allocator@V?$map@KUPLAYERINFO@CChannelMgr@@U?$less@K@std@@V?$allocator@UPLAYERINFO@CChannelMgr@@@4@@std@@@2@@std@@KAPAU_Node@12@PAU312@@Z 0040a2f0 f i ChannelMgr.obj
 0001:00009370       ?_Min@?$_Tree@KU?$pair@$$CBKV?$map@KUPLAYERINFO@CChannelMgr@@U?$less@K@std@@V?$allocator@UPLAYERINFO@CChannelMgr@@@4@@std@@@std@@U_Kfn@?$map@KV?$map@KUPLAYERINFO@CChannelMgr@@U?$less@K@std@@V?$allocator@UPLAYERINFO@CChannelMgr@@@4@@std@@U?$less@K@2@V?$allocator@V?$map@KUPLAYERINFO@CChannelMgr@@U?$less@K@std@@V?$allocator@UPLAYERINFO@CChannelMgr@@@4@@std@@@2@@2@U?$less@K@2@V?$allocator@V?$map@KUPLAYERINFO@CChannelMgr@@U?$less@K@std@@V?$allocator@UPLAYERINFO@CChannelMgr@@@4@@std@@@2@@std@@KAPAU_Node@12@PAU312@@Z 0040a370 f i ChannelMgr.obj
 0001:000093f0       ?_Rmost@?$_Tree@KU?$pair@$$CBKV?$map@KUPLAYERINFO@CChannelMgr@@U?$less@K@std@@V?$allocator@UPLAYERINFO@CChannelMgr@@@4@@std@@@std@@U_Kfn@?$map@KV?$map@KUPLAYERINFO@CChannelMgr@@U?$less@K@std@@V?$allocator@UPLAYERINFO@CChannelMgr@@@4@@std@@U?$less@K@2@V?$allocator@V?$map@KUPLAYERINFO@CChannelMgr@@U?$less@K@std@@V?$allocator@UPLAYERINFO@CChannelMgr@@@4@@std@@@2@@2@U?$less@K@2@V?$allocator@V?$map@KUPLAYERINFO@CChannelMgr@@U?$less@K@std@@V?$allocator@UPLAYERINFO@CChannelMgr@@@4@@std@@@2@@std@@IAEAAPAU_Node@12@XZ 0040a3f0 f i ChannelMgr.obj
 0001:00009410       ?_Root@?$_Tree@KU?$pair@$$CBKV?$map@KUPLAYERINFO@CChannelMgr@@U?$less@K@std@@V?$allocator@UPLAYERINFO@CChannelMgr@@@4@@std@@@std@@U_Kfn@?$map@KV?$map@KUPLAYERINFO@CChannelMgr@@U?$less@K@std@@V?$allocator@UPLAYERINFO@CChannelMgr@@@4@@std@@U?$less@K@2@V?$allocator@V?$map@KUPLAYERINFO@CChannelMgr@@U?$less@K@std@@V?$allocator@UPLAYERINFO@CChannelMgr@@@4@@std@@@2@@2@U?$less@K@2@V?$allocator@V?$map@KUPLAYERINFO@CChannelMgr@@U?$less@K@std@@V?$allocator@UPLAYERINFO@CChannelMgr@@@4@@std@@@2@@std@@IAEAAPAU_Node@12@XZ 0040a410 f i ChannelMgr.obj
 0001:00009430       ?_Rrotate@?$_Tree@KU?$pair@$$CBKV?$map@KUPLAYERINFO@CChannelMgr@@U?$less@K@std@@V?$allocator@UPLAYERINFO@CChannelMgr@@@4@@std@@@std@@U_Kfn@?$map@KV?$map@KUPLAYERINFO@CChannelMgr@@U?$less@K@std@@V?$allocator@UPLAYERINFO@CChannelMgr@@@4@@std@@U?$less@K@2@V?$allocator@V?$map@KUPLAYERINFO@CChannelMgr@@U?$less@K@std@@V?$allocator@UPLAYERINFO@CChannelMgr@@@4@@std@@@2@@2@U?$less@K@2@V?$allocator@V?$map@KUPLAYERINFO@CChannelMgr@@U?$less@K@std@@V?$allocator@UPLAYERINFO@CChannelMgr@@@4@@std@@@2@@std@@IAEXPAU_Node@12@@Z 0040a430 f i ChannelMgr.obj
 0001:000095a0       ?_Destval@?$_Tree@KU?$pair@$$CBKV?$map@KUPLAYERINFO@CChannelMgr@@U?$less@K@std@@V?$allocator@UPLAYERINFO@CChannelMgr@@@4@@std@@@std@@U_Kfn@?$map@KV?$map@KUPLAYERINFO@CChannelMgr@@U?$less@K@std@@V?$allocator@UPLAYERINFO@CChannelMgr@@@4@@std@@U?$less@K@2@V?$allocator@V?$map@KUPLAYERINFO@CChannelMgr@@U?$less@K@std@@V?$allocator@UPLAYERINFO@CChannelMgr@@@4@@std@@@2@@2@U?$less@K@2@V?$allocator@V?$map@KUPLAYERINFO@CChannelMgr@@U?$less@K@std@@V?$allocator@UPLAYERINFO@CChannelMgr@@@4@@std@@@2@@std@@IAEXPAU?$pair@$$CBKV?$map@KUPLAYERINFO@CChannelMgr@@U?$less@K@std@@V?$allocator@UPLAYERINFO@CChannelMgr@@@4@@std@@@2@@Z 0040a5a0 f i ChannelMgr.obj
 0001:000095c0       ?_Freenode@?$_Tree@KU?$pair@$$CBKV?$map@KUPLAYERINFO@CChannelMgr@@U?$less@K@std@@V?$allocator@UPLAYERINFO@CChannelMgr@@@4@@std@@@std@@U_Kfn@?$map@KV?$map@KUPLAYERINFO@CChannelMgr@@U?$less@K@std@@V?$allocator@UPLAYERINFO@CChannelMgr@@@4@@std@@U?$less@K@2@V?$allocator@V?$map@KUPLAYERINFO@CChannelMgr@@U?$less@K@std@@V?$allocator@UPLAYERINFO@CChannelMgr@@@4@@std@@@2@@2@U?$less@K@2@V?$allocator@V?$map@KUPLAYERINFO@CChannelMgr@@U?$less@K@std@@V?$allocator@UPLAYERINFO@CChannelMgr@@@4@@std@@@2@@std@@IAEXPAU_Node@12@@Z 0040a5c0 f i ChannelMgr.obj
 0001:000095e0       ?_Key@?$_Tree@KU?$pair@$$CBKUPLAYERINFO@CChannelMgr@@@std@@U_Kfn@?$map@KUPLAYERINFO@CChannelMgr@@U?$less@K@std@@V?$allocator@UPLAYERINFO@CChannelMgr@@@4@@2@U?$less@K@2@V?$allocator@UPLAYERINFO@CChannelMgr@@@2@@std@@KAABKPAU_Node@12@@Z 0040a5e0 f i ChannelMgr.obj
 0001:00009600       ??0?$_Tree@KU?$pair@$$CBKUPLAYERINFO@CChannelMgr@@@std@@U_Kfn@?$map@KUPLAYERINFO@CChannelMgr@@U?$less@K@std@@V?$allocator@UPLAYERINFO@CChannelMgr@@@4@@2@U?$less@K@2@V?$allocator@UPLAYERINFO@CChannelMgr@@@2@@std@@QAE@ABU?$less@K@1@_NABV?$allocator@UPLAYERINFO@CChannelMgr@@@1@@Z 0040a600 f i ChannelMgr.obj
 0001:00009640       ??0?$_Tree@KU?$pair@$$CBKUPLAYERINFO@CChannelMgr@@@std@@U_Kfn@?$map@KUPLAYERINFO@CChannelMgr@@U?$less@K@std@@V?$allocator@UPLAYERINFO@CChannelMgr@@@4@@2@U?$less@K@2@V?$allocator@UPLAYERINFO@CChannelMgr@@@2@@std@@QAE@ABV01@@Z 0040a640 f i ChannelMgr.obj
 0001:00009690       ?size@?$_Tree@KU?$pair@$$CBKUPLAYERINFO@CChannelMgr@@@std@@U_Kfn@?$map@KUPLAYERINFO@CChannelMgr@@U?$less@K@std@@V?$allocator@UPLAYERINFO@CChannelMgr@@@4@@2@U?$less@K@2@V?$allocator@UPLAYERINFO@CChannelMgr@@@2@@std@@QBEIXZ 0040a690 f i ChannelMgr.obj
 0001:000096b0       ?insert@?$_Tree@KU?$pair@$$CBKUPLAYERINFO@CChannelMgr@@@std@@U_Kfn@?$map@KUPLAYERINFO@CChannelMgr@@U?$less@K@std@@V?$allocator@UPLAYERINFO@CChannelMgr@@@4@@2@U?$less@K@2@V?$allocator@UPLAYERINFO@CChannelMgr@@@2@@std@@QAE?AU?$pair@Viterator@?$_Tree@KU?$pair@$$CBKUPLAYERINFO@CChannelMgr@@@std@@U_Kfn@?$map@KUPLAYERINFO@CChannelMgr@@U?$less@K@std@@V?$allocator@UPLAYERINFO@CChannelMgr@@@4@@2@U?$less@K@2@V?$allocator@UPLAYERINFO@CChannelMgr@@@2@@std@@_N@2@ABU?$pair@$$CBKUPLAYERINFO@CChannelMgr@@@2@@Z 0040a6b0 f i ChannelMgr.obj
 0001:000098f0       ?erase@?$_Tree@KU?$pair@$$CBKUPLAYERINFO@CChannelMgr@@@std@@U_Kfn@?$map@KUPLAYERINFO@CChannelMgr@@U?$less@K@std@@V?$allocator@UPLAYERINFO@CChannelMgr@@@4@@2@U?$less@K@2@V?$allocator@UPLAYERINFO@CChannelMgr@@@2@@std@@QAE?AViterator@12@V312@0@Z 0040a8f0 f i ChannelMgr.obj
 0001:00009a30       ?lower_bound@?$_Tree@KU?$pair@$$CBKUPLAYERINFO@CChannelMgr@@@std@@U_Kfn@?$map@KUPLAYERINFO@CChannelMgr@@U?$less@K@std@@V?$allocator@UPLAYERINFO@CChannelMgr@@@4@@2@U?$less@K@2@V?$allocator@UPLAYERINFO@CChannelMgr@@@2@@std@@QAE?AViterator@12@ABK@Z 0040aa30 f i ChannelMgr.obj
 0001:00009a60       ?equal_range@?$_Tree@KU?$pair@$$CBKUPLAYERINFO@CChannelMgr@@@std@@U_Kfn@?$map@KUPLAYERINFO@CChannelMgr@@U?$less@K@std@@V?$allocator@UPLAYERINFO@CChannelMgr@@@4@@2@U?$less@K@2@V?$allocator@UPLAYERINFO@CChannelMgr@@@2@@std@@QAE?AU?$pair@Viterator@?$_Tree@KU?$pair@$$CBKUPLAYERINFO@CChannelMgr@@@std@@U_Kfn@?$map@KUPLAYERINFO@CChannelMgr@@U?$less@K@std@@V?$allocator@UPLAYERINFO@CChannelMgr@@@4@@2@U?$less@K@2@V?$allocator@UPLAYERINFO@CChannelMgr@@@2@@std@@V123@@2@ABK@Z 0040aa60 f i ChannelMgr.obj
 0001:00009ab0       ?_Lmost@?$_Tree@KU?$pair@$$CBKUPLAYERINFO@CChannelMgr@@@std@@U_Kfn@?$map@KUPLAYERINFO@CChannelMgr@@U?$less@K@std@@V?$allocator@UPLAYERINFO@CChannelMgr@@@4@@2@U?$less@K@2@V?$allocator@UPLAYERINFO@CChannelMgr@@@2@@std@@IAEAAPAU_Node@12@XZ 0040aab0 f i ChannelMgr.obj
 0001:00009ad0       ?_Freenode@?$_Tree@KU?$pair@$$CBKUPLAYERINFO@CChannelMgr@@@std@@U_Kfn@?$map@KUPLAYERINFO@CChannelMgr@@U?$less@K@std@@V?$allocator@UPLAYERINFO@CChannelMgr@@@4@@2@U?$less@K@2@V?$allocator@UPLAYERINFO@CChannelMgr@@@2@@std@@IAEXPAU_Node@12@@Z 0040aad0 f i ChannelMgr.obj
 0001:00009af0       ?_Inc@const_iterator@?$_Tree@KU?$pair@$$CBKUPLAYERINFO@CChannelMgr@@@std@@U_Kfn@?$map@KUPLAYERINFO@CChannelMgr@@U?$less@K@std@@V?$allocator@UPLAYERINFO@CChannelMgr@@@4@@2@U?$less@K@2@V?$allocator@UPLAYERINFO@CChannelMgr@@@2@@std@@QAEXXZ 0040aaf0 f i ChannelMgr.obj
 0001:00009bd0       ?_Mynode@const_iterator@?$_Tree@KU?$pair@$$CBKUPLAYERINFO@CChannelMgr@@@std@@U_Kfn@?$map@KUPLAYERINFO@CChannelMgr@@U?$less@K@std@@V?$allocator@UPLAYERINFO@CChannelMgr@@@4@@2@U?$less@K@2@V?$allocator@UPLAYERINFO@CChannelMgr@@@2@@std@@QBEPAU_Node@23@XZ 0040abd0 f i ChannelMgr.obj
 0001:00009be0       ??0iterator@?$_Tree@KU?$pair@$$CBKUPLAYERINFO@CChannelMgr@@@std@@U_Kfn@?$map@KUPLAYERINFO@CChannelMgr@@U?$less@K@std@@V?$allocator@UPLAYERINFO@CChannelMgr@@@4@@2@U?$less@K@2@V?$allocator@UPLAYERINFO@CChannelMgr@@@2@@std@@QAE@PAU_Node@12@@Z 0040abe0 f i ChannelMgr.obj
 0001:00009c00       ?_Inc@const_iterator@?$_Tree@KU?$pair@$$CBKV?$map@KUPLAYERINFO@CChannelMgr@@U?$less@K@std@@V?$allocator@UPLAYERINFO@CChannelMgr@@@4@@std@@@std@@U_Kfn@?$map@KV?$map@KUPLAYERINFO@CChannelMgr@@U?$less@K@std@@V?$allocator@UPLAYERINFO@CChannelMgr@@@4@@std@@U?$less@K@2@V?$allocator@V?$map@KUPLAYERINFO@CChannelMgr@@U?$less@K@std@@V?$allocator@UPLAYERINFO@CChannelMgr@@@4@@std@@@2@@2@U?$less@K@2@V?$allocator@V?$map@KUPLAYERINFO@CChannelMgr@@U?$less@K@std@@V?$allocator@UPLAYERINFO@CChannelMgr@@@4@@std@@@2@@std@@QAEXXZ 0040ac00 f i ChannelMgr.obj
 0001:00009ce0       ?_Mynode@const_iterator@?$_Tree@KU?$pair@$$CBKV?$map@KUPLAYERINFO@CChannelMgr@@U?$less@K@std@@V?$allocator@UPLAYERINFO@CChannelMgr@@@4@@std@@@std@@U_Kfn@?$map@KV?$map@KUPLAYERINFO@CChannelMgr@@U?$less@K@std@@V?$allocator@UPLAYERINFO@CChannelMgr@@@4@@std@@U?$less@K@2@V?$allocator@V?$map@KUPLAYERINFO@CChannelMgr@@U?$less@K@std@@V?$allocator@UPLAYERINFO@CChannelMgr@@@4@@std@@@2@@2@U?$less@K@2@V?$allocator@V?$map@KUPLAYERINFO@CChannelMgr@@U?$less@K@std@@V?$allocator@UPLAYERINFO@CChannelMgr@@@4@@std@@@2@@std@@QBEPAU_Node@23@XZ 0040ace0 f i ChannelMgr.obj
 0001:00009cf0       ??0iterator@?$_Tree@KU?$pair@$$CBKV?$map@KUPLAYERINFO@CChannelMgr@@U?$less@K@std@@V?$allocator@UPLAYERINFO@CChannelMgr@@@4@@std@@@std@@U_Kfn@?$map@KV?$map@KUPLAYERINFO@CChannelMgr@@U?$less@K@std@@V?$allocator@UPLAYERINFO@CChannelMgr@@@4@@std@@U?$less@K@2@V?$allocator@V?$map@KUPLAYERINFO@CChannelMgr@@U?$less@K@std@@V?$allocator@UPLAYERINFO@CChannelMgr@@@4@@std@@@2@@2@U?$less@K@2@V?$allocator@V?$map@KUPLAYERINFO@CChannelMgr@@U?$less@K@std@@V?$allocator@UPLAYERINFO@CChannelMgr@@@4@@std@@@2@@std@@QAE@PAU_Node@12@@Z 0040acf0 f i ChannelMgr.obj
 0001:00009d10       ?deallocate@?$allocator@UCHANNINFO@CChannelMgr@@@std@@QAEXPAXI@Z 0040ad10 f i ChannelMgr.obj
 0001:00009d30       ?_Color@?$_Tree@KU?$pair@$$CBKUCHANNINFO@CChannelMgr@@@std@@U_Kfn@?$map@KUCHANNINFO@CChannelMgr@@U?$less@K@std@@V?$allocator@UCHANNINFO@CChannelMgr@@@4@@2@U?$less@K@2@V?$allocator@UCHANNINFO@CChannelMgr@@@2@@std@@KAAAW4_Redbl@12@PAU_Node@12@@Z 0040ad30 f i ChannelMgr.obj
 0001:00009d40       ?_Key@?$_Tree@KU?$pair@$$CBKUCHANNINFO@CChannelMgr@@@std@@U_Kfn@?$map@KUCHANNINFO@CChannelMgr@@U?$less@K@std@@V?$allocator@UCHANNINFO@CChannelMgr@@@4@@2@U?$less@K@2@V?$allocator@UCHANNINFO@CChannelMgr@@@2@@std@@KAABKPAU_Node@12@@Z 0040ad40 f i ChannelMgr.obj
 0001:00009d60       ?_Left@?$_Tree@KU?$pair@$$CBKUCHANNINFO@CChannelMgr@@@std@@U_Kfn@?$map@KUCHANNINFO@CChannelMgr@@U?$less@K@std@@V?$allocator@UCHANNINFO@CChannelMgr@@@4@@2@U?$less@K@2@V?$allocator@UCHANNINFO@CChannelMgr@@@2@@std@@KAAAPAU_Node@12@PAU312@@Z 0040ad60 f i ChannelMgr.obj
 0001:00009d70       ?_Parent@?$_Tree@KU?$pair@$$CBKUCHANNINFO@CChannelMgr@@@std@@U_Kfn@?$map@KUCHANNINFO@CChannelMgr@@U?$less@K@std@@V?$allocator@UCHANNINFO@CChannelMgr@@@4@@2@U?$less@K@2@V?$allocator@UCHANNINFO@CChannelMgr@@@2@@std@@KAAAPAU_Node@12@PAU312@@Z 0040ad70 f i ChannelMgr.obj
 0001:00009d80       ?_Right@?$_Tree@KU?$pair@$$CBKUCHANNINFO@CChannelMgr@@@std@@U_Kfn@?$map@KUCHANNINFO@CChannelMgr@@U?$less@K@std@@V?$allocator@UCHANNINFO@CChannelMgr@@@4@@2@U?$less@K@2@V?$allocator@UCHANNINFO@CChannelMgr@@@2@@std@@KAAAPAU_Node@12@PAU312@@Z 0040ad80 f i ChannelMgr.obj
 0001:00009d90       ?insert@?$_Tree@KU?$pair@$$CBKUCHANNINFO@CChannelMgr@@@std@@U_Kfn@?$map@KUCHANNINFO@CChannelMgr@@U?$less@K@std@@V?$allocator@UCHANNINFO@CChannelMgr@@@4@@2@U?$less@K@2@V?$allocator@UCHANNINFO@CChannelMgr@@@2@@std@@QAE?AU?$pair@Viterator@?$_Tree@KU?$pair@$$CBKUCHANNINFO@CChannelMgr@@@std@@U_Kfn@?$map@KUCHANNINFO@CChannelMgr@@U?$less@K@std@@V?$allocator@UCHANNINFO@CChannelMgr@@@4@@2@U?$less@K@2@V?$allocator@UCHANNINFO@CChannelMgr@@@2@@std@@_N@2@ABU?$pair@$$CBKUCHANNINFO@CChannelMgr@@@2@@Z 0040ad90 f i ChannelMgr.obj
 0001:00009fd0       ?lower_bound@?$_Tree@KU?$pair@$$CBKUCHANNINFO@CChannelMgr@@@std@@U_Kfn@?$map@KUCHANNINFO@CChannelMgr@@U?$less@K@std@@V?$allocator@UCHANNINFO@CChannelMgr@@@4@@2@U?$less@K@2@V?$allocator@UCHANNINFO@CChannelMgr@@@2@@std@@QAE?AViterator@12@ABK@Z 0040afd0 f i ChannelMgr.obj
 0001:0000a000       ?_Erase@?$_Tree@KU?$pair@$$CBKUCHANNINFO@CChannelMgr@@@std@@U_Kfn@?$map@KUCHANNINFO@CChannelMgr@@U?$less@K@std@@V?$allocator@UCHANNINFO@CChannelMgr@@@4@@2@U?$less@K@2@V?$allocator@UCHANNINFO@CChannelMgr@@@2@@std@@IAEXPAU_Node@12@@Z 0040b000 f i ChannelMgr.obj
 0001:0000a0b0       ?_Init@?$_Tree@KU?$pair@$$CBKUCHANNINFO@CChannelMgr@@@std@@U_Kfn@?$map@KUCHANNINFO@CChannelMgr@@U?$less@K@std@@V?$allocator@UCHANNINFO@CChannelMgr@@@4@@2@U?$less@K@2@V?$allocator@UCHANNINFO@CChannelMgr@@@2@@std@@IAEXXZ 0040b0b0 f i ChannelMgr.obj
 0001:0000a190       ?_Lmost@?$_Tree@KU?$pair@$$CBKUCHANNINFO@CChannelMgr@@@std@@U_Kfn@?$map@KUCHANNINFO@CChannelMgr@@U?$less@K@std@@V?$allocator@UCHANNINFO@CChannelMgr@@@4@@2@U?$less@K@2@V?$allocator@UCHANNINFO@CChannelMgr@@@2@@std@@IAEAAPAU_Node@12@XZ 0040b190 f i ChannelMgr.obj
 0001:0000a1b0       ?_Lrotate@?$_Tree@KU?$pair@$$CBKUCHANNINFO@CChannelMgr@@@std@@U_Kfn@?$map@KUCHANNINFO@CChannelMgr@@U?$less@K@std@@V?$allocator@UCHANNINFO@CChannelMgr@@@4@@2@U?$less@K@2@V?$allocator@UCHANNINFO@CChannelMgr@@@2@@std@@IAEXPAU_Node@12@@Z 0040b1b0 f i ChannelMgr.obj
 0001:0000a320       ?_Max@?$_Tree@KU?$pair@$$CBKUCHANNINFO@CChannelMgr@@@std@@U_Kfn@?$map@KUCHANNINFO@CChannelMgr@@U?$less@K@std@@V?$allocator@UCHANNINFO@CChannelMgr@@@4@@2@U?$less@K@2@V?$allocator@UCHANNINFO@CChannelMgr@@@2@@std@@KAPAU_Node@12@PAU312@@Z 0040b320 f i ChannelMgr.obj
 0001:0000a3a0       ?_Min@?$_Tree@KU?$pair@$$CBKUCHANNINFO@CChannelMgr@@@std@@U_Kfn@?$map@KUCHANNINFO@CChannelMgr@@U?$less@K@std@@V?$allocator@UCHANNINFO@CChannelMgr@@@4@@2@U?$less@K@2@V?$allocator@UCHANNINFO@CChannelMgr@@@2@@std@@KAPAU_Node@12@PAU312@@Z 0040b3a0 f i ChannelMgr.obj
 0001:0000a420       ?_Rmost@?$_Tree@KU?$pair@$$CBKUCHANNINFO@CChannelMgr@@@std@@U_Kfn@?$map@KUCHANNINFO@CChannelMgr@@U?$less@K@std@@V?$allocator@UCHANNINFO@CChannelMgr@@@4@@2@U?$less@K@2@V?$allocator@UCHANNINFO@CChannelMgr@@@2@@std@@IAEAAPAU_Node@12@XZ 0040b420 f i ChannelMgr.obj
 0001:0000a440       ?_Root@?$_Tree@KU?$pair@$$CBKUCHANNINFO@CChannelMgr@@@std@@U_Kfn@?$map@KUCHANNINFO@CChannelMgr@@U?$less@K@std@@V?$allocator@UCHANNINFO@CChannelMgr@@@4@@2@U?$less@K@2@V?$allocator@UCHANNINFO@CChannelMgr@@@2@@std@@IAEAAPAU_Node@12@XZ 0040b440 f i ChannelMgr.obj
 0001:0000a460       ?_Rrotate@?$_Tree@KU?$pair@$$CBKUCHANNINFO@CChannelMgr@@@std@@U_Kfn@?$map@KUCHANNINFO@CChannelMgr@@U?$less@K@std@@V?$allocator@UCHANNINFO@CChannelMgr@@@4@@2@U?$less@K@2@V?$allocator@UCHANNINFO@CChannelMgr@@@2@@std@@IAEXPAU_Node@12@@Z 0040b460 f i ChannelMgr.obj
 0001:0000a5d0       ?_Destval@?$_Tree@KU?$pair@$$CBKUCHANNINFO@CChannelMgr@@@std@@U_Kfn@?$map@KUCHANNINFO@CChannelMgr@@U?$less@K@std@@V?$allocator@UCHANNINFO@CChannelMgr@@@4@@2@U?$less@K@2@V?$allocator@UCHANNINFO@CChannelMgr@@@2@@std@@IAEXPAU?$pair@$$CBKUCHANNINFO@CChannelMgr@@@2@@Z 0040b5d0 f i ChannelMgr.obj
 0001:0000a5f0       ?_Inc@const_iterator@?$_Tree@KU?$pair@$$CBKUCHANNINFO@CChannelMgr@@@std@@U_Kfn@?$map@KUCHANNINFO@CChannelMgr@@U?$less@K@std@@V?$allocator@UCHANNINFO@CChannelMgr@@@4@@2@U?$less@K@2@V?$allocator@UCHANNINFO@CChannelMgr@@@2@@std@@QAEXXZ 0040b5f0 f i ChannelMgr.obj
 0001:0000a6d0       ?_Mynode@const_iterator@?$_Tree@KU?$pair@$$CBKUCHANNINFO@CChannelMgr@@@std@@U_Kfn@?$map@KUCHANNINFO@CChannelMgr@@U?$less@K@std@@V?$allocator@UCHANNINFO@CChannelMgr@@@4@@2@U?$less@K@2@V?$allocator@UCHANNINFO@CChannelMgr@@@2@@std@@QBEPAU_Node@23@XZ 0040b6d0 f i ChannelMgr.obj
 0001:0000a6e0       ??0iterator@?$_Tree@KU?$pair@$$CBKUCHANNINFO@CChannelMgr@@@std@@U_Kfn@?$map@KUCHANNINFO@CChannelMgr@@U?$less@K@std@@V?$allocator@UCHANNINFO@CChannelMgr@@@4@@2@U?$less@K@2@V?$allocator@UCHANNINFO@CChannelMgr@@@2@@std@@QAE@PAU_Node@12@@Z 0040b6e0 f i ChannelMgr.obj
 0001:0000a700       ?deallocate@?$allocator@K@std@@QAEXPAXI@Z 0040b700 f i ChannelMgr.obj
 0001:0000a720       ?_Key@?$_Tree@V?$basic_string@DU?$char_traits@D@std@@V?$allocator@D@2@@std@@U?$pair@$$CBV?$basic_string@DU?$char_traits@D@std@@V?$allocator@D@2@@std@@K@2@U_Kfn@?$map@V?$basic_string@DU?$char_traits@D@std@@V?$allocator@D@2@@std@@KU_tstring_less@@V?$allocator@K@2@@2@U_tstring_less@@V?$allocator@K@2@@std@@KAABV?$basic_string@DU?$char_traits@D@std@@V?$allocator@D@2@@2@PAU_Node@12@@Z 0040b720 f i ChannelMgr.obj
 0001:0000a740       ?size@?$_Tree@V?$basic_string@DU?$char_traits@D@std@@V?$allocator@D@2@@std@@U?$pair@$$CBV?$basic_string@DU?$char_traits@D@std@@V?$allocator@D@2@@std@@K@2@U_Kfn@?$map@V?$basic_string@DU?$char_traits@D@std@@V?$allocator@D@2@@std@@KU_tstring_less@@V?$allocator@K@2@@2@U_tstring_less@@V?$allocator@K@2@@std@@QBEIXZ 0040b740 f i ChannelMgr.obj
 0001:0000a760       ?insert@?$_Tree@V?$basic_string@DU?$char_traits@D@std@@V?$allocator@D@2@@std@@U?$pair@$$CBV?$basic_string@DU?$char_traits@D@std@@V?$allocator@D@2@@std@@K@2@U_Kfn@?$map@V?$basic_string@DU?$char_traits@D@std@@V?$allocator@D@2@@std@@KU_tstring_less@@V?$allocator@K@2@@2@U_tstring_less@@V?$allocator@K@2@@std@@QAE?AU?$pair@Viterator@?$_Tree@V?$basic_string@DU?$char_traits@D@std@@V?$allocator@D@2@@std@@U?$pair@$$CBV?$basic_string@DU?$char_traits@D@std@@V?$allocator@D@2@@std@@K@2@U_Kfn@?$map@V?$basic_string@DU?$char_traits@D@std@@V?$allocator@D@2@@std@@KU_tstring_less@@V?$allocator@K@2@@2@U_tstring_less@@V?$allocator@K@2@@std@@_N@2@ABU?$pair@$$CBV?$basic_string@DU?$char_traits@D@std@@V?$allocator@D@2@@std@@K@2@@Z 0040b760 f i ChannelMgr.obj
 0001:0000a9a0       ?erase@?$_Tree@V?$basic_string@DU?$char_traits@D@std@@V?$allocator@D@2@@std@@U?$pair@$$CBV?$basic_string@DU?$char_traits@D@std@@V?$allocator@D@2@@std@@K@2@U_Kfn@?$map@V?$basic_string@DU?$char_traits@D@std@@V?$allocator@D@2@@std@@KU_tstring_less@@V?$allocator@K@2@@2@U_tstring_less@@V?$allocator@K@2@@std@@QAE?AViterator@12@V312@@Z 0040b9a0 f i ChannelMgr.obj
 0001:0000b1f0       ?lower_bound@?$_Tree@V?$basic_string@DU?$char_traits@D@std@@V?$allocator@D@2@@std@@U?$pair@$$CBV?$basic_string@DU?$char_traits@D@std@@V?$allocator@D@2@@std@@K@2@U_Kfn@?$map@V?$basic_string@DU?$char_traits@D@std@@V?$allocator@D@2@@std@@KU_tstring_less@@V?$allocator@K@2@@2@U_tstring_less@@V?$allocator@K@2@@std@@QAE?AViterator@12@ABV?$basic_string@DU?$char_traits@D@std@@V?$allocator@D@2@@2@@Z 0040c1f0 f i ChannelMgr.obj
 0001:0000b220       ?equal_range@?$_Tree@V?$basic_string@DU?$char_traits@D@std@@V?$allocator@D@2@@std@@U?$pair@$$CBV?$basic_string@DU?$char_traits@D@std@@V?$allocator@D@2@@std@@K@2@U_Kfn@?$map@V?$basic_string@DU?$char_traits@D@std@@V?$allocator@D@2@@std@@KU_tstring_less@@V?$allocator@K@2@@2@U_tstring_less@@V?$allocator@K@2@@std@@QAE?AU?$pair@Viterator@?$_Tree@V?$basic_string@DU?$char_traits@D@std@@V?$allocator@D@2@@std@@U?$pair@$$CBV?$basic_string@DU?$char_traits@D@std@@V?$allocator@D@2@@std@@K@2@U_Kfn@?$map@V?$basic_string@DU?$char_traits@D@std@@V?$allocator@D@2@@std@@KU_tstring_less@@V?$allocator@K@2@@2@U_tstring_less@@V?$allocator@K@2@@std@@V123@@2@ABV?$basic_string@DU?$char_traits@D@std@@V?$allocator@D@2@@2@@Z 0040c220 f i ChannelMgr.obj
 0001:0000b270       ?_Erase@?$_Tree@V?$basic_string@DU?$char_traits@D@std@@V?$allocator@D@2@@std@@U?$pair@$$CBV?$basic_string@DU?$char_traits@D@std@@V?$allocator@D@2@@std@@K@2@U_Kfn@?$map@V?$basic_string@DU?$char_traits@D@std@@V?$allocator@D@2@@std@@KU_tstring_less@@V?$allocator@K@2@@2@U_tstring_less@@V?$allocator@K@2@@std@@IAEXPAU_Node@12@@Z 0040c270 f i ChannelMgr.obj
 0001:0000b320       ?_Init@?$_Tree@V?$basic_string@DU?$char_traits@D@std@@V?$allocator@D@2@@std@@U?$pair@$$CBV?$basic_string@DU?$char_traits@D@std@@V?$allocator@D@2@@std@@K@2@U_Kfn@?$map@V?$basic_string@DU?$char_traits@D@std@@V?$allocator@D@2@@std@@KU_tstring_less@@V?$allocator@K@2@@2@U_tstring_less@@V?$allocator@K@2@@std@@IAEXXZ 0040c320 f i ChannelMgr.obj
 0001:0000b400       ?_Lmost@?$_Tree@V?$basic_string@DU?$char_traits@D@std@@V?$allocator@D@2@@std@@U?$pair@$$CBV?$basic_string@DU?$char_traits@D@std@@V?$allocator@D@2@@std@@K@2@U_Kfn@?$map@V?$basic_string@DU?$char_traits@D@std@@V?$allocator@D@2@@std@@KU_tstring_less@@V?$allocator@K@2@@2@U_tstring_less@@V?$allocator@K@2@@std@@IAEAAPAU_Node@12@XZ 0040c400 f i ChannelMgr.obj
 0001:0000b420       ?_Rmost@?$_Tree@V?$basic_string@DU?$char_traits@D@std@@V?$allocator@D@2@@std@@U?$pair@$$CBV?$basic_string@DU?$char_traits@D@std@@V?$allocator@D@2@@std@@K@2@U_Kfn@?$map@V?$basic_string@DU?$char_traits@D@std@@V?$allocator@D@2@@std@@KU_tstring_less@@V?$allocator@K@2@@2@U_tstring_less@@V?$allocator@K@2@@std@@IAEAAPAU_Node@12@XZ 0040c420 f i ChannelMgr.obj
 0001:0000b440       ?_Root@?$_Tree@V?$basic_string@DU?$char_traits@D@std@@V?$allocator@D@2@@std@@U?$pair@$$CBV?$basic_string@DU?$char_traits@D@std@@V?$allocator@D@2@@std@@K@2@U_Kfn@?$map@V?$basic_string@DU?$char_traits@D@std@@V?$allocator@D@2@@std@@KU_tstring_less@@V?$allocator@K@2@@2@U_tstring_less@@V?$allocator@K@2@@std@@IAEAAPAU_Node@12@XZ 0040c440 f i ChannelMgr.obj
 0001:0000b460       ?_Mynode@const_iterator@?$_Tree@V?$basic_string@DU?$char_traits@D@std@@V?$allocator@D@2@@std@@U?$pair@$$CBV?$basic_string@DU?$char_traits@D@std@@V?$allocator@D@2@@std@@K@2@U_Kfn@?$map@V?$basic_string@DU?$char_traits@D@std@@V?$allocator@D@2@@std@@KU_tstring_less@@V?$allocator@K@2@@2@U_tstring_less@@V?$allocator@K@2@@std@@QBEPAU_Node@23@XZ 0040c460 f i ChannelMgr.obj
 0001:0000b470       ??0iterator@?$_Tree@V?$basic_string@DU?$char_traits@D@std@@V?$allocator@D@2@@std@@U?$pair@$$CBV?$basic_string@DU?$char_traits@D@std@@V?$allocator@D@2@@std@@K@2@U_Kfn@?$map@V?$basic_string@DU?$char_traits@D@std@@V?$allocator@D@2@@std@@KU_tstring_less@@V?$allocator@K@2@@2@U_tstring_less@@V?$allocator@K@2@@std@@QAE@PAU_Node@12@@Z 0040c470 f i ChannelMgr.obj
 0001:0000b490       ??Eiterator@?$_Tree@V?$basic_string@DU?$char_traits@D@std@@V?$allocator@D@2@@std@@U?$pair@$$CBV?$basic_string@DU?$char_traits@D@std@@V?$allocator@D@2@@std@@K@2@U_Kfn@?$map@V?$basic_string@DU?$char_traits@D@std@@V?$allocator@D@2@@std@@KU_tstring_less@@V?$allocator@K@2@@2@U_tstring_less@@V?$allocator@K@2@@std@@QAE?AV012@H@Z 0040c490 f i ChannelMgr.obj
 0001:0000b4c0       ?deallocate@?$allocator@V?$list@PAU_BLOCKCHANNELOP@CChannelMgr@@V?$allocator@PAU_BLOCKCHANNELOP@CChannelMgr@@@std@@@std@@@std@@QAEXPAXI@Z 0040c4c0 f i ChannelMgr.obj
 0001:0000b4e0       ?size@?$_Tree@KU?$pair@$$CBKV?$list@PAU_BLOCKCHANNELOP@CChannelMgr@@V?$allocator@PAU_BLOCKCHANNELOP@CChannelMgr@@@std@@@std@@@std@@U_Kfn@?$map@KV?$list@PAU_BLOCKCHANNELOP@CChannelMgr@@V?$allocator@PAU_BLOCKCHANNELOP@CChannelMgr@@@std@@@std@@U?$less@K@2@V?$allocator@V?$list@PAU_BLOCKCHANNELOP@CChannelMgr@@V?$allocator@PAU_BLOCKCHANNELOP@CChannelMgr@@@std@@@std@@@2@@2@U?$less@K@2@V?$allocator@V?$list@PAU_BLOCKCHANNELOP@CChannelMgr@@V?$allocator@PAU_BLOCKCHANNELOP@CChannelMgr@@@std@@@std@@@2@@std@@QBEIXZ 0040c4e0 f i ChannelMgr.obj
 0001:0000b500       ?erase@?$_Tree@KU?$pair@$$CBKV?$list@PAU_BLOCKCHANNELOP@CChannelMgr@@V?$allocator@PAU_BLOCKCHANNELOP@CChannelMgr@@@std@@@std@@@std@@U_Kfn@?$map@KV?$list@PAU_BLOCKCHANNELOP@CChannelMgr@@V?$allocator@PAU_BLOCKCHANNELOP@CChannelMgr@@@std@@@std@@U?$less@K@2@V?$allocator@V?$list@PAU_BLOCKCHANNELOP@CChannelMgr@@V?$allocator@PAU_BLOCKCHANNELOP@CChannelMgr@@@std@@@std@@@2@@2@U?$less@K@2@V?$allocator@V?$list@PAU_BLOCKCHANNELOP@CChannelMgr@@V?$allocator@PAU_BLOCKCHANNELOP@CChannelMgr@@@std@@@std@@@2@@std@@QAE?AViterator@12@V312@@Z 0040c500 f i ChannelMgr.obj
 0001:0000bd50       ?_Erase@?$_Tree@KU?$pair@$$CBKV?$list@PAU_BLOCKCHANNELOP@CChannelMgr@@V?$allocator@PAU_BLOCKCHANNELOP@CChannelMgr@@@std@@@std@@@std@@U_Kfn@?$map@KV?$list@PAU_BLOCKCHANNELOP@CChannelMgr@@V?$allocator@PAU_BLOCKCHANNELOP@CChannelMgr@@@std@@@std@@U?$less@K@2@V?$allocator@V?$list@PAU_BLOCKCHANNELOP@CChannelMgr@@V?$allocator@PAU_BLOCKCHANNELOP@CChannelMgr@@@std@@@std@@@2@@2@U?$less@K@2@V?$allocator@V?$list@PAU_BLOCKCHANNELOP@CChannelMgr@@V?$allocator@PAU_BLOCKCHANNELOP@CChannelMgr@@@std@@@std@@@2@@std@@IAEXPAU_Node@12@@Z 0040cd50 f i ChannelMgr.obj
 0001:0000be00       ?_Init@?$_Tree@KU?$pair@$$CBKV?$list@PAU_BLOCKCHANNELOP@CChannelMgr@@V?$allocator@PAU_BLOCKCHANNELOP@CChannelMgr@@@std@@@std@@@std@@U_Kfn@?$map@KV?$list@PAU_BLOCKCHANNELOP@CChannelMgr@@V?$allocator@PAU_BLOCKCHANNELOP@CChannelMgr@@@std@@@std@@U?$less@K@2@V?$allocator@V?$list@PAU_BLOCKCHANNELOP@CChannelMgr@@V?$allocator@PAU_BLOCKCHANNELOP@CChannelMgr@@@std@@@std@@@2@@2@U?$less@K@2@V?$allocator@V?$list@PAU_BLOCKCHANNELOP@CChannelMgr@@V?$allocator@PAU_BLOCKCHANNELOP@CChannelMgr@@@std@@@std@@@2@@std@@IAEXXZ 0040ce00 f i ChannelMgr.obj
 0001:0000bee0       ?_Lmost@?$_Tree@KU?$pair@$$CBKV?$list@PAU_BLOCKCHANNELOP@CChannelMgr@@V?$allocator@PAU_BLOCKCHANNELOP@CChannelMgr@@@std@@@std@@@std@@U_Kfn@?$map@KV?$list@PAU_BLOCKCHANNELOP@CChannelMgr@@V?$allocator@PAU_BLOCKCHANNELOP@CChannelMgr@@@std@@@std@@U?$less@K@2@V?$allocator@V?$list@PAU_BLOCKCHANNELOP@CChannelMgr@@V?$allocator@PAU_BLOCKCHANNELOP@CChannelMgr@@@std@@@std@@@2@@2@U?$less@K@2@V?$allocator@V?$list@PAU_BLOCKCHANNELOP@CChannelMgr@@V?$allocator@PAU_BLOCKCHANNELOP@CChannelMgr@@@std@@@std@@@2@@std@@IAEAAPAU_Node@12@XZ 0040cee0 f i ChannelMgr.obj
 0001:0000bf00       ?_Rmost@?$_Tree@KU?$pair@$$CBKV?$list@PAU_BLOCKCHANNELOP@CChannelMgr@@V?$allocator@PAU_BLOCKCHANNELOP@CChannelMgr@@@std@@@std@@@std@@U_Kfn@?$map@KV?$list@PAU_BLOCKCHANNELOP@CChannelMgr@@V?$allocator@PAU_BLOCKCHANNELOP@CChannelMgr@@@std@@@std@@U?$less@K@2@V?$allocator@V?$list@PAU_BLOCKCHANNELOP@CChannelMgr@@V?$allocator@PAU_BLOCKCHANNELOP@CChannelMgr@@@std@@@std@@@2@@2@U?$less@K@2@V?$allocator@V?$list@PAU_BLOCKCHANNELOP@CChannelMgr@@V?$allocator@PAU_BLOCKCHANNELOP@CChannelMgr@@@std@@@std@@@2@@std@@IAEAAPAU_Node@12@XZ 0040cf00 f i ChannelMgr.obj
 0001:0000bf20       ?_Root@?$_Tree@KU?$pair@$$CBKV?$list@PAU_BLOCKCHANNELOP@CChannelMgr@@V?$allocator@PAU_BLOCKCHANNELOP@CChannelMgr@@@std@@@std@@@std@@U_Kfn@?$map@KV?$list@PAU_BLOCKCHANNELOP@CChannelMgr@@V?$allocator@PAU_BLOCKCHANNELOP@CChannelMgr@@@std@@@std@@U?$less@K@2@V?$allocator@V?$list@PAU_BLOCKCHANNELOP@CChannelMgr@@V?$allocator@PAU_BLOCKCHANNELOP@CChannelMgr@@@std@@@std@@@2@@2@U?$less@K@2@V?$allocator@V?$list@PAU_BLOCKCHANNELOP@CChannelMgr@@V?$allocator@PAU_BLOCKCHANNELOP@CChannelMgr@@@std@@@std@@@2@@std@@IAEAAPAU_Node@12@XZ 0040cf20 f i ChannelMgr.obj
 0001:0000bf40       ??0const_iterator@?$list@PAU_BLOCKCHANNELOP@CChannelMgr@@V?$allocator@PAU_BLOCKCHANNELOP@CChannelMgr@@@std@@@std@@QAE@PAU_Node@12@@Z 0040cf40 f i ChannelMgr.obj
 0001:0000bf60       ?_Inc@const_iterator@?$_Tree@KU?$pair@$$CBKV?$list@PAU_BLOCKCHANNELOP@CChannelMgr@@V?$allocator@PAU_BLOCKCHANNELOP@CChannelMgr@@@std@@@std@@@std@@U_Kfn@?$map@KV?$list@PAU_BLOCKCHANNELOP@CChannelMgr@@V?$allocator@PAU_BLOCKCHANNELOP@CChannelMgr@@@std@@@std@@U?$less@K@2@V?$allocator@V?$list@PAU_BLOCKCHANNELOP@CChannelMgr@@V?$allocator@PAU_BLOCKCHANNELOP@CChannelMgr@@@std@@@std@@@2@@2@U?$less@K@2@V?$allocator@V?$list@PAU_BLOCKCHANNELOP@CChannelMgr@@V?$allocator@PAU_BLOCKCHANNELOP@CChannelMgr@@@std@@@std@@@2@@std@@QAEXXZ 0040cf60 f i ChannelMgr.obj
 0001:0000c040       ??0iterator@?$_Tree@KU?$pair@$$CBKV?$list@PAU_BLOCKCHANNELOP@CChannelMgr@@V?$allocator@PAU_BLOCKCHANNELOP@CChannelMgr@@@std@@@std@@@std@@U_Kfn@?$map@KV?$list@PAU_BLOCKCHANNELOP@CChannelMgr@@V?$allocator@PAU_BLOCKCHANNELOP@CChannelMgr@@@std@@@std@@U?$less@K@2@V?$allocator@V?$list@PAU_BLOCKCHANNELOP@CChannelMgr@@V?$allocator@PAU_BLOCKCHANNELOP@CChannelMgr@@@std@@@std@@@2@@2@U?$less@K@2@V?$allocator@V?$list@PAU_BLOCKCHANNELOP@CChannelMgr@@V?$allocator@PAU_BLOCKCHANNELOP@CChannelMgr@@@std@@@std@@@2@@std@@QAE@PAU_Node@12@@Z 0040d040 f i ChannelMgr.obj
 0001:0000c060       ?erase@?$list@UtagPlusSrcInfo@@V?$allocator@UtagPlusSrcInfo@@@std@@@std@@QAE?AViterator@12@V312@@Z 0040d060 f i ChannelMgr.obj
 0001:0000c120       ?_Prev@_Acc@?$list@UtagPlusSrcInfo@@V?$allocator@UtagPlusSrcInfo@@@std@@@std@@SAAAPAU_Node@23@PAU423@@Z 0040d120 f i ChannelMgr.obj
 0001:0000c130       ?_Charalloc@?$allocator@UtagPlusSrcInfo@@@std@@QAEPADI@Z 0040d130 f i ChannelMgr.obj
 0001:0000c150       ?deallocate@?$allocator@UtagPlusSrcInfo@@@std@@QAEXPAXI@Z 0040d150 f i ChannelMgr.obj
 0001:0000c170       ?construct@?$allocator@UtagPlusSrcInfo@@@std@@QAEXPAUtagPlusSrcInfo@@ABU3@@Z 0040d170 f i ChannelMgr.obj
 0001:0000c190       ?_Mynode@const_iterator@?$list@UtagPlusSrcInfo@@V?$allocator@UtagPlusSrcInfo@@@std@@@std@@QBEPAU_Node@23@XZ 0040d190 f i ChannelMgr.obj
 0001:0000c1a0       ??0iterator@?$list@UtagPlusSrcInfo@@V?$allocator@UtagPlusSrcInfo@@@std@@@std@@QAE@PAU_Node@12@@Z 0040d1a0 f i ChannelMgr.obj
 0001:0000c1c0       ??Eiterator@?$list@UtagPlusSrcInfo@@V?$allocator@UtagPlusSrcInfo@@@std@@@std@@QAE?AV012@H@Z 0040d1c0 f i ChannelMgr.obj
 0001:0000c1f0       ??9iterator@?$list@UtagPlusSrcInfo@@V?$allocator@UtagPlusSrcInfo@@@std@@@std@@QBE_NABV012@@Z 0040d1f0 f i ChannelMgr.obj
 0001:0000c220       ??0?$pair@Viterator@?$_Tree@KU?$pair@$$CBKV?$map@KUPLAYERINFO@CChannelMgr@@U?$less@K@std@@V?$allocator@UPLAYERINFO@CChannelMgr@@@4@@std@@@std@@U_Kfn@?$map@KV?$map@KUPLAYERINFO@CChannelMgr@@U?$less@K@std@@V?$allocator@UPLAYERINFO@CChannelMgr@@@4@@std@@U?$less@K@2@V?$allocator@V?$map@KUPLAYERINFO@CChannelMgr@@U?$less@K@std@@V?$allocator@UPLAYERINFO@CChannelMgr@@@4@@std@@@2@@2@U?$less@K@2@V?$allocator@V?$map@KUPLAYERINFO@CChannelMgr@@U?$less@K@std@@V?$allocator@UPLAYERINFO@CChannelMgr@@@4@@std@@@2@@std@@_N@std@@QAE@ABViterator@?$_Tree@KU?$pair@$$CBKV?$map@KUPLAYERINFO@CChannelMgr@@U?$less@K@std@@V?$allocator@UPLAYERINFO@CChannelMgr@@@4@@std@@@std@@U_Kfn@?$map@KV?$map@KUPLAYERINFO@CChannelMgr@@U?$less@K@std@@V?$allocator@UPLAYERINFO@CChannelMgr@@@4@@std@@U?$less@K@2@V?$allocator@V?$map@KUPLAYERINFO@CChannelMgr@@U?$less@K@std@@V?$allocator@UPLAYERINFO@CChannelMgr@@@4@@std@@@2@@2@U?$less@K@2@V?$allocator@V?$map@KUPLAYERINFO@CChannelMgr@@U?$less@K@std@@V?$allocator@UPLAYERINFO@CChannelMgr@@@4@@std@@@2@@1@AB_N@Z 0040d220 f i ChannelMgr.obj
 0001:0000c250       ??0?$pair@Viterator@?$_Tree@KU?$pair@$$CBKUPLAYERINFO@CChannelMgr@@@std@@U_Kfn@?$map@KUPLAYERINFO@CChannelMgr@@U?$less@K@std@@V?$allocator@UPLAYERINFO@CChannelMgr@@@4@@2@U?$less@K@2@V?$allocator@UPLAYERINFO@CChannelMgr@@@2@@std@@_N@std@@QAE@ABViterator@?$_Tree@KU?$pair@$$CBKUPLAYERINFO@CChannelMgr@@@std@@U_Kfn@?$map@KUPLAYERINFO@CChannelMgr@@U?$less@K@std@@V?$allocator@UPLAYERINFO@CChannelMgr@@@4@@2@U?$less@K@2@V?$allocator@UPLAYERINFO@CChannelMgr@@@2@@1@AB_N@Z 0040d250 f i ChannelMgr.obj
 0001:0000c280       ??0?$pair@Viterator@?$_Tree@KU?$pair@$$CBKUCHANNINFO@CChannelMgr@@@std@@U_Kfn@?$map@KUCHANNINFO@CChannelMgr@@U?$less@K@std@@V?$allocator@UCHANNINFO@CChannelMgr@@@4@@2@U?$less@K@2@V?$allocator@UCHANNINFO@CChannelMgr@@@2@@std@@_N@std@@QAE@ABViterator@?$_Tree@KU?$pair@$$CBKUCHANNINFO@CChannelMgr@@@std@@U_Kfn@?$map@KUCHANNINFO@CChannelMgr@@U?$less@K@std@@V?$allocator@UCHANNINFO@CChannelMgr@@@4@@2@U?$less@K@2@V?$allocator@UCHANNINFO@CChannelMgr@@@2@@1@AB_N@Z 0040d280 f i ChannelMgr.obj
 0001:0000c2b0       ??0?$pair@Viterator@?$_Tree@V?$basic_string@DU?$char_traits@D@std@@V?$allocator@D@2@@std@@U?$pair@$$CBV?$basic_string@DU?$char_traits@D@std@@V?$allocator@D@2@@std@@K@2@U_Kfn@?$map@V?$basic_string@DU?$char_traits@D@std@@V?$allocator@D@2@@std@@KU_tstring_less@@V?$allocator@K@2@@2@U_tstring_less@@V?$allocator@K@2@@std@@_N@std@@QAE@ABViterator@?$_Tree@V?$basic_string@DU?$char_traits@D@std@@V?$allocator@D@2@@std@@U?$pair@$$CBV?$basic_string@DU?$char_traits@D@std@@V?$allocator@D@2@@std@@K@2@U_Kfn@?$map@V?$basic_string@DU?$char_traits@D@std@@V?$allocator@D@2@@std@@KU_tstring_less@@V?$allocator@K@2@@2@U_tstring_less@@V?$allocator@K@2@@1@AB_N@Z 0040d2b0 f i ChannelMgr.obj
 0001:0000c2e0       ?max_size@?$basic_string@DU?$char_traits@D@std@@V?$allocator@D@2@@std@@QBEIXZ 0040d2e0 f i ChannelMgr.obj
 0001:0000c320       ?_Copy@?$basic_string@DU?$char_traits@D@std@@V?$allocator@D@2@@std@@AAEXI@Z 0040d320 f i ChannelMgr.obj
 0001:0000c460       ?_Split@?$basic_string@DU?$char_traits@D@std@@V?$allocator@D@2@@std@@AAEXXZ 0040d460 f i ChannelMgr.obj
 0001:0000c4d0       ??R_Kfn@?$map@KV?$map@KUPLAYERINFO@CChannelMgr@@U?$less@K@std@@V?$allocator@UPLAYERINFO@CChannelMgr@@@4@@std@@U?$less@K@2@V?$allocator@V?$map@KUPLAYERINFO@CChannelMgr@@U?$less@K@std@@V?$allocator@UPLAYERINFO@CChannelMgr@@@4@@std@@@2@@std@@QBEABKABU?$pair@$$CBKV?$map@KUPLAYERINFO@CChannelMgr@@U?$less@K@std@@V?$allocator@UPLAYERINFO@CChannelMgr@@@4@@std@@@2@@Z 0040d4d0 f i ChannelMgr.obj
 0001:0000c4e0       ?deallocate@?$allocator@V?$map@KUPLAYERINFO@CChannelMgr@@U?$less@K@std@@V?$allocator@UPLAYERINFO@CChannelMgr@@@4@@std@@@std@@QAEXPAXI@Z 0040d4e0 f i ChannelMgr.obj
 0001:0000c500       ?_Copy@?$_Tree@KU?$pair@$$CBKV?$map@KUPLAYERINFO@CChannelMgr@@U?$less@K@std@@V?$allocator@UPLAYERINFO@CChannelMgr@@@4@@std@@@std@@U_Kfn@?$map@KV?$map@KUPLAYERINFO@CChannelMgr@@U?$less@K@std@@V?$allocator@UPLAYERINFO@CChannelMgr@@@4@@std@@U?$less@K@2@V?$allocator@V?$map@KUPLAYERINFO@CChannelMgr@@U?$less@K@std@@V?$allocator@UPLAYERINFO@CChannelMgr@@@4@@std@@@2@@2@U?$less@K@2@V?$allocator@V?$map@KUPLAYERINFO@CChannelMgr@@U?$less@K@std@@V?$allocator@UPLAYERINFO@CChannelMgr@@@4@@std@@@2@@std@@IAEXABV12@@Z 0040d500 f i ChannelMgr.obj
 0001:0000c600       ?_Erase@?$_Tree@KU?$pair@$$CBKV?$map@KUPLAYERINFO@CChannelMgr@@U?$less@K@std@@V?$allocator@UPLAYERINFO@CChannelMgr@@@4@@std@@@std@@U_Kfn@?$map@KV?$map@KUPLAYERINFO@CChannelMgr@@U?$less@K@std@@V?$allocator@UPLAYERINFO@CChannelMgr@@@4@@std@@U?$less@K@2@V?$allocator@V?$map@KUPLAYERINFO@CChannelMgr@@U?$less@K@std@@V?$allocator@UPLAYERINFO@CChannelMgr@@@4@@std@@@2@@2@U?$less@K@2@V?$allocator@V?$map@KUPLAYERINFO@CChannelMgr@@U?$less@K@std@@V?$allocator@UPLAYERINFO@CChannelMgr@@@4@@std@@@2@@std@@IAEXPAU_Node@12@@Z 0040d600 f i ChannelMgr.obj
 0001:0000c6b0       ?_Init@?$_Tree@KU?$pair@$$CBKV?$map@KUPLAYERINFO@CChannelMgr@@U?$less@K@std@@V?$allocator@UPLAYERINFO@CChannelMgr@@@4@@std@@@std@@U_Kfn@?$map@KV?$map@KUPLAYERINFO@CChannelMgr@@U?$less@K@std@@V?$allocator@UPLAYERINFO@CChannelMgr@@@4@@std@@U?$less@K@2@V?$allocator@V?$map@KUPLAYERINFO@CChannelMgr@@U?$less@K@std@@V?$allocator@UPLAYERINFO@CChannelMgr@@@4@@std@@@2@@2@U?$less@K@2@V?$allocator@V?$map@KUPLAYERINFO@CChannelMgr@@U?$less@K@std@@V?$allocator@UPLAYERINFO@CChannelMgr@@@4@@std@@@2@@std@@IAEXXZ 0040d6b0 f i ChannelMgr.obj
 0001:0000c790       ?_Insert@?$_Tree@KU?$pair@$$CBKV?$map@KUPLAYERINFO@CChannelMgr@@U?$less@K@std@@V?$allocator@UPLAYERINFO@CChannelMgr@@@4@@std@@@std@@U_Kfn@?$map@KV?$map@KUPLAYERINFO@CChannelMgr@@U?$less@K@std@@V?$allocator@UPLAYERINFO@CChannelMgr@@@4@@std@@U?$less@K@2@V?$allocator@V?$map@KUPLAYERINFO@CChannelMgr@@U?$less@K@std@@V?$allocator@UPLAYERINFO@CChannelMgr@@@4@@std@@@2@@2@U?$less@K@2@V?$allocator@V?$map@KUPLAYERINFO@CChannelMgr@@U?$less@K@std@@V?$allocator@UPLAYERINFO@CChannelMgr@@@4@@std@@@2@@std@@IAE?AViterator@12@PAU_Node@12@0ABU?$pair@$$CBKV?$map@KUPLAYERINFO@CChannelMgr@@U?$less@K@std@@V?$allocator@UPLAYERINFO@CChannelMgr@@@4@@std@@@2@@Z 0040d790 f i ChannelMgr.obj
 0001:0000cc60       ?_Lbound@?$_Tree@KU?$pair@$$CBKV?$map@KUPLAYERINFO@CChannelMgr@@U?$less@K@std@@V?$allocator@UPLAYERINFO@CChannelMgr@@@4@@std@@@std@@U_Kfn@?$map@KV?$map@KUPLAYERINFO@CChannelMgr@@U?$less@K@std@@V?$allocator@UPLAYERINFO@CChannelMgr@@@4@@std@@U?$less@K@2@V?$allocator@V?$map@KUPLAYERINFO@CChannelMgr@@U?$less@K@std@@V?$allocator@UPLAYERINFO@CChannelMgr@@@4@@std@@@2@@2@U?$less@K@2@V?$allocator@V?$map@KUPLAYERINFO@CChannelMgr@@U?$less@K@std@@V?$allocator@UPLAYERINFO@CChannelMgr@@@4@@std@@@2@@std@@IBEPAU_Node@12@ABK@Z 0040dc60 f i ChannelMgr.obj
 0001:0000cd30       ??R_Kfn@?$map@KUPLAYERINFO@CChannelMgr@@U?$less@K@std@@V?$allocator@UPLAYERINFO@CChannelMgr@@@4@@std@@QBEABKABU?$pair@$$CBKUPLAYERINFO@CChannelMgr@@@2@@Z 0040dd30 f i ChannelMgr.obj
 0001:0000cd40       ?deallocate@?$allocator@UPLAYERINFO@CChannelMgr@@@std@@QAEXPAXI@Z 0040dd40 f i ChannelMgr.obj
 0001:0000cd60       ?_Left@?$_Tree@KU?$pair@$$CBKUPLAYERINFO@CChannelMgr@@@std@@U_Kfn@?$map@KUPLAYERINFO@CChannelMgr@@U?$less@K@std@@V?$allocator@UPLAYERINFO@CChannelMgr@@@4@@2@U?$less@K@2@V?$allocator@UPLAYERINFO@CChannelMgr@@@2@@std@@KAAAPAU_Node@12@PAU312@@Z 0040dd60 f i ChannelMgr.obj
 0001:0000cd70       ?_Parent@?$_Tree@KU?$pair@$$CBKUPLAYERINFO@CChannelMgr@@@std@@U_Kfn@?$map@KUPLAYERINFO@CChannelMgr@@U?$less@K@std@@V?$allocator@UPLAYERINFO@CChannelMgr@@@4@@2@U?$less@K@2@V?$allocator@UPLAYERINFO@CChannelMgr@@@2@@std@@KAAAPAU_Node@12@PAU312@@Z 0040dd70 f i ChannelMgr.obj
 0001:0000cd80       ?_Right@?$_Tree@KU?$pair@$$CBKUPLAYERINFO@CChannelMgr@@@std@@U_Kfn@?$map@KUPLAYERINFO@CChannelMgr@@U?$less@K@std@@V?$allocator@UPLAYERINFO@CChannelMgr@@@4@@2@U?$less@K@2@V?$allocator@UPLAYERINFO@CChannelMgr@@@2@@std@@KAAAPAU_Node@12@PAU312@@Z 0040dd80 f i ChannelMgr.obj
 0001:0000cd90       ?erase@?$_Tree@KU?$pair@$$CBKUPLAYERINFO@CChannelMgr@@@std@@U_Kfn@?$map@KUPLAYERINFO@CChannelMgr@@U?$less@K@std@@V?$allocator@UPLAYERINFO@CChannelMgr@@@4@@2@U?$less@K@2@V?$allocator@UPLAYERINFO@CChannelMgr@@@2@@std@@QAE?AViterator@12@V312@@Z 0040dd90 f i ChannelMgr.obj
 0001:0000d5e0       ?upper_bound@?$_Tree@KU?$pair@$$CBKUPLAYERINFO@CChannelMgr@@@std@@U_Kfn@?$map@KUPLAYERINFO@CChannelMgr@@U?$less@K@std@@V?$allocator@UPLAYERINFO@CChannelMgr@@@4@@2@U?$less@K@2@V?$allocator@UPLAYERINFO@CChannelMgr@@@2@@std@@QAE?AViterator@12@ABK@Z 0040e5e0 f i ChannelMgr.obj
 0001:0000d610       ?_Copy@?$_Tree@KU?$pair@$$CBKUPLAYERINFO@CChannelMgr@@@std@@U_Kfn@?$map@KUPLAYERINFO@CChannelMgr@@U?$less@K@std@@V?$allocator@UPLAYERINFO@CChannelMgr@@@4@@2@U?$less@K@2@V?$allocator@UPLAYERINFO@CChannelMgr@@@2@@std@@IAEXABV12@@Z 0040e610 f i ChannelMgr.obj
 0001:0000d710       ?_Erase@?$_Tree@KU?$pair@$$CBKUPLAYERINFO@CChannelMgr@@@std@@U_Kfn@?$map@KUPLAYERINFO@CChannelMgr@@U?$less@K@std@@V?$allocator@UPLAYERINFO@CChannelMgr@@@4@@2@U?$less@K@2@V?$allocator@UPLAYERINFO@CChannelMgr@@@2@@std@@IAEXPAU_Node@12@@Z 0040e710 f i ChannelMgr.obj
 0001:0000d7c0       ?_Init@?$_Tree@KU?$pair@$$CBKUPLAYERINFO@CChannelMgr@@@std@@U_Kfn@?$map@KUPLAYERINFO@CChannelMgr@@U?$less@K@std@@V?$allocator@UPLAYERINFO@CChannelMgr@@@4@@2@U?$less@K@2@V?$allocator@UPLAYERINFO@CChannelMgr@@@2@@std@@IAEXXZ 0040e7c0 f i ChannelMgr.obj
 0001:0000d8a0       ?_Insert@?$_Tree@KU?$pair@$$CBKUPLAYERINFO@CChannelMgr@@@std@@U_Kfn@?$map@KUPLAYERINFO@CChannelMgr@@U?$less@K@std@@V?$allocator@UPLAYERINFO@CChannelMgr@@@4@@2@U?$less@K@2@V?$allocator@UPLAYERINFO@CChannelMgr@@@2@@std@@IAE?AViterator@12@PAU_Node@12@0ABU?$pair@$$CBKUPLAYERINFO@CChannelMgr@@@2@@Z 0040e8a0 f i ChannelMgr.obj
 0001:0000dd70       ?_Lbound@?$_Tree@KU?$pair@$$CBKUPLAYERINFO@CChannelMgr@@@std@@U_Kfn@?$map@KUPLAYERINFO@CChannelMgr@@U?$less@K@std@@V?$allocator@UPLAYERINFO@CChannelMgr@@@4@@2@U?$less@K@2@V?$allocator@UPLAYERINFO@CChannelMgr@@@2@@std@@IBEPAU_Node@12@ABK@Z 0040ed70 f i ChannelMgr.obj
 0001:0000de40       ?_Min@?$_Tree@KU?$pair@$$CBKUPLAYERINFO@CChannelMgr@@@std@@U_Kfn@?$map@KUPLAYERINFO@CChannelMgr@@U?$less@K@std@@V?$allocator@UPLAYERINFO@CChannelMgr@@@4@@2@U?$less@K@2@V?$allocator@UPLAYERINFO@CChannelMgr@@@2@@std@@KAPAU_Node@12@PAU312@@Z 0040ee40 f i ChannelMgr.obj
 0001:0000dec0       ?_Rmost@?$_Tree@KU?$pair@$$CBKUPLAYERINFO@CChannelMgr@@@std@@U_Kfn@?$map@KUPLAYERINFO@CChannelMgr@@U?$less@K@std@@V?$allocator@UPLAYERINFO@CChannelMgr@@@4@@2@U?$less@K@2@V?$allocator@UPLAYERINFO@CChannelMgr@@@2@@std@@IAEAAPAU_Node@12@XZ 0040eec0 f i ChannelMgr.obj
 0001:0000dee0       ?_Root@?$_Tree@KU?$pair@$$CBKUPLAYERINFO@CChannelMgr@@@std@@U_Kfn@?$map@KUPLAYERINFO@CChannelMgr@@U?$less@K@std@@V?$allocator@UPLAYERINFO@CChannelMgr@@@4@@2@U?$less@K@2@V?$allocator@UPLAYERINFO@CChannelMgr@@@2@@std@@IAEAAPAU_Node@12@XZ 0040eee0 f i ChannelMgr.obj
 0001:0000df00       ??0const_iterator@?$_Tree@KU?$pair@$$CBKUPLAYERINFO@CChannelMgr@@@std@@U_Kfn@?$map@KUPLAYERINFO@CChannelMgr@@U?$less@K@std@@V?$allocator@UPLAYERINFO@CChannelMgr@@@4@@2@U?$less@K@2@V?$allocator@UPLAYERINFO@CChannelMgr@@@2@@std@@QAE@PAU_Node@12@@Z 0040ef00 f i ChannelMgr.obj
 0001:0000df20       ??Fiterator@?$_Tree@KU?$pair@$$CBKUPLAYERINFO@CChannelMgr@@@std@@U_Kfn@?$map@KUPLAYERINFO@CChannelMgr@@U?$less@K@std@@V?$allocator@UPLAYERINFO@CChannelMgr@@@4@@2@U?$less@K@2@V?$allocator@UPLAYERINFO@CChannelMgr@@@2@@std@@QAEAAV012@XZ 0040ef20 f i ChannelMgr.obj
 0001:0000df40       ??0const_iterator@?$_Tree@KU?$pair@$$CBKV?$map@KUPLAYERINFO@CChannelMgr@@U?$less@K@std@@V?$allocator@UPLAYERINFO@CChannelMgr@@@4@@std@@@std@@U_Kfn@?$map@KV?$map@KUPLAYERINFO@CChannelMgr@@U?$less@K@std@@V?$allocator@UPLAYERINFO@CChannelMgr@@@4@@std@@U?$less@K@2@V?$allocator@V?$map@KUPLAYERINFO@CChannelMgr@@U?$less@K@std@@V?$allocator@UPLAYERINFO@CChannelMgr@@@4@@std@@@2@@2@U?$less@K@2@V?$allocator@V?$map@KUPLAYERINFO@CChannelMgr@@U?$less@K@std@@V?$allocator@UPLAYERINFO@CChannelMgr@@@4@@std@@@2@@std@@QAE@PAU_Node@12@@Z 0040ef40 f i ChannelMgr.obj
 0001:0000df60       ??Fiterator@?$_Tree@KU?$pair@$$CBKV?$map@KUPLAYERINFO@CChannelMgr@@U?$less@K@std@@V?$allocator@UPLAYERINFO@CChannelMgr@@@4@@std@@@std@@U_Kfn@?$map@KV?$map@KUPLAYERINFO@CChannelMgr@@U?$less@K@std@@V?$allocator@UPLAYERINFO@CChannelMgr@@@4@@std@@U?$less@K@2@V?$allocator@V?$map@KUPLAYERINFO@CChannelMgr@@U?$less@K@std@@V?$allocator@UPLAYERINFO@CChannelMgr@@@4@@std@@@2@@2@U?$less@K@2@V?$allocator@V?$map@KUPLAYERINFO@CChannelMgr@@U?$less@K@std@@V?$allocator@UPLAYERINFO@CChannelMgr@@@4@@std@@@2@@std@@QAEAAV012@XZ 0040ef60 f i ChannelMgr.obj
 0001:0000df80       ??R_Kfn@?$map@KUCHANNINFO@CChannelMgr@@U?$less@K@std@@V?$allocator@UCHANNINFO@CChannelMgr@@@4@@std@@QBEABKABU?$pair@$$CBKUCHANNINFO@CChannelMgr@@@2@@Z 0040ef80 f i ChannelMgr.obj
 0001:0000df90       ?_Insert@?$_Tree@KU?$pair@$$CBKUCHANNINFO@CChannelMgr@@@std@@U_Kfn@?$map@KUCHANNINFO@CChannelMgr@@U?$less@K@std@@V?$allocator@UCHANNINFO@CChannelMgr@@@4@@2@U?$less@K@2@V?$allocator@UCHANNINFO@CChannelMgr@@@2@@std@@IAE?AViterator@12@PAU_Node@12@0ABU?$pair@$$CBKUCHANNINFO@CChannelMgr@@@2@@Z 0040ef90 f i ChannelMgr.obj
 0001:0000e460       ?_Lbound@?$_Tree@KU?$pair@$$CBKUCHANNINFO@CChannelMgr@@@std@@U_Kfn@?$map@KUCHANNINFO@CChannelMgr@@U?$less@K@std@@V?$allocator@UCHANNINFO@CChannelMgr@@@4@@2@U?$less@K@2@V?$allocator@UCHANNINFO@CChannelMgr@@@2@@std@@IBEPAU_Node@12@ABK@Z 0040f460 f i ChannelMgr.obj
 0001:0000e530       ?_Buynode@?$_Tree@KU?$pair@$$CBKUCHANNINFO@CChannelMgr@@@std@@U_Kfn@?$map@KUCHANNINFO@CChannelMgr@@U?$less@K@std@@V?$allocator@UCHANNINFO@CChannelMgr@@@4@@2@U?$less@K@2@V?$allocator@UCHANNINFO@CChannelMgr@@@2@@std@@IAEPAU_Node@12@PAU312@W4_Redbl@12@@Z 0040f530 f i ChannelMgr.obj
 0001:0000e580       ??0const_iterator@?$_Tree@KU?$pair@$$CBKUCHANNINFO@CChannelMgr@@@std@@U_Kfn@?$map@KUCHANNINFO@CChannelMgr@@U?$less@K@std@@V?$allocator@UCHANNINFO@CChannelMgr@@@4@@2@U?$less@K@2@V?$allocator@UCHANNINFO@CChannelMgr@@@2@@std@@QAE@PAU_Node@12@@Z 0040f580 f i ChannelMgr.obj
 0001:0000e5a0       ??Fiterator@?$_Tree@KU?$pair@$$CBKUCHANNINFO@CChannelMgr@@@std@@U_Kfn@?$map@KUCHANNINFO@CChannelMgr@@U?$less@K@std@@V?$allocator@UCHANNINFO@CChannelMgr@@@4@@2@U?$less@K@2@V?$allocator@UCHANNINFO@CChannelMgr@@@2@@std@@QAEAAV012@XZ 0040f5a0 f i ChannelMgr.obj
 0001:0000e5c0       ??R_Kfn@?$map@V?$basic_string@DU?$char_traits@D@std@@V?$allocator@D@2@@std@@KU_tstring_less@@V?$allocator@K@2@@std@@QBEABV?$basic_string@DU?$char_traits@D@std@@V?$allocator@D@2@@2@ABU?$pair@$$CBV?$basic_string@DU?$char_traits@D@std@@V?$allocator@D@2@@std@@K@2@@Z 0040f5c0 f i ChannelMgr.obj
 0001:0000e5d0       ?_Color@?$_Tree@V?$basic_string@DU?$char_traits@D@std@@V?$allocator@D@2@@std@@U?$pair@$$CBV?$basic_string@DU?$char_traits@D@std@@V?$allocator@D@2@@std@@K@2@U_Kfn@?$map@V?$basic_string@DU?$char_traits@D@std@@V?$allocator@D@2@@std@@KU_tstring_less@@V?$allocator@K@2@@2@U_tstring_less@@V?$allocator@K@2@@std@@KAAAW4_Redbl@12@PAU_Node@12@@Z 0040f5d0 f i ChannelMgr.obj
 0001:0000e5e0       ?_Left@?$_Tree@V?$basic_string@DU?$char_traits@D@std@@V?$allocator@D@2@@std@@U?$pair@$$CBV?$basic_string@DU?$char_traits@D@std@@V?$allocator@D@2@@std@@K@2@U_Kfn@?$map@V?$basic_string@DU?$char_traits@D@std@@V?$allocator@D@2@@std@@KU_tstring_less@@V?$allocator@K@2@@2@U_tstring_less@@V?$allocator@K@2@@std@@KAAAPAU_Node@12@PAU312@@Z 0040f5e0 f i ChannelMgr.obj
 0001:0000e5f0       ?_Parent@?$_Tree@V?$basic_string@DU?$char_traits@D@std@@V?$allocator@D@2@@std@@U?$pair@$$CBV?$basic_string@DU?$char_traits@D@std@@V?$allocator@D@2@@std@@K@2@U_Kfn@?$map@V?$basic_string@DU?$char_traits@D@std@@V?$allocator@D@2@@std@@KU_tstring_less@@V?$allocator@K@2@@2@U_tstring_less@@V?$allocator@K@2@@std@@KAAAPAU_Node@12@PAU312@@Z 0040f5f0 f i ChannelMgr.obj
 0001:0000e600       ?_Right@?$_Tree@V?$basic_string@DU?$char_traits@D@std@@V?$allocator@D@2@@std@@U?$pair@$$CBV?$basic_string@DU?$char_traits@D@std@@V?$allocator@D@2@@std@@K@2@U_Kfn@?$map@V?$basic_string@DU?$char_traits@D@std@@V?$allocator@D@2@@std@@KU_tstring_less@@V?$allocator@K@2@@2@U_tstring_less@@V?$allocator@K@2@@std@@KAAAPAU_Node@12@PAU312@@Z 0040f600 f i ChannelMgr.obj
 0001:0000e610       ?upper_bound@?$_Tree@V?$basic_string@DU?$char_traits@D@std@@V?$allocator@D@2@@std@@U?$pair@$$CBV?$basic_string@DU?$char_traits@D@std@@V?$allocator@D@2@@std@@K@2@U_Kfn@?$map@V?$basic_string@DU?$char_traits@D@std@@V?$allocator@D@2@@std@@KU_tstring_less@@V?$allocator@K@2@@2@U_tstring_less@@V?$allocator@K@2@@std@@QAE?AViterator@12@ABV?$basic_string@DU?$char_traits@D@std@@V?$allocator@D@2@@2@@Z 0040f610 f i ChannelMgr.obj
 0001:0000e640       ?_Insert@?$_Tree@V?$basic_string@DU?$char_traits@D@std@@V?$allocator@D@2@@std@@U?$pair@$$CBV?$basic_string@DU?$char_traits@D@std@@V?$allocator@D@2@@std@@K@2@U_Kfn@?$map@V?$basic_string@DU?$char_traits@D@std@@V?$allocator@D@2@@std@@KU_tstring_less@@V?$allocator@K@2@@2@U_tstring_less@@V?$allocator@K@2@@std@@IAE?AViterator@12@PAU_Node@12@0ABU?$pair@$$CBV?$basic_string@DU?$char_traits@D@std@@V?$allocator@D@2@@std@@K@2@@Z 0040f640 f i ChannelMgr.obj
 0001:0000eb10       ?_Lbound@?$_Tree@V?$basic_string@DU?$char_traits@D@std@@V?$allocator@D@2@@std@@U?$pair@$$CBV?$basic_string@DU?$char_traits@D@std@@V?$allocator@D@2@@std@@K@2@U_Kfn@?$map@V?$basic_string@DU?$char_traits@D@std@@V?$allocator@D@2@@std@@KU_tstring_less@@V?$allocator@K@2@@2@U_tstring_less@@V?$allocator@K@2@@std@@IBEPAU_Node@12@ABV?$basic_string@DU?$char_traits@D@std@@V?$allocator@D@2@@2@@Z 0040fb10 f i ChannelMgr.obj
 0001:0000ebe0       ?_Lrotate@?$_Tree@V?$basic_string@DU?$char_traits@D@std@@V?$allocator@D@2@@std@@U?$pair@$$CBV?$basic_string@DU?$char_traits@D@std@@V?$allocator@D@2@@std@@K@2@U_Kfn@?$map@V?$basic_string@DU?$char_traits@D@std@@V?$allocator@D@2@@std@@KU_tstring_less@@V?$allocator@K@2@@2@U_tstring_less@@V?$allocator@K@2@@std@@IAEXPAU_Node@12@@Z 0040fbe0 f i ChannelMgr.obj
 0001:0000ed50       ?_Max@?$_Tree@V?$basic_string@DU?$char_traits@D@std@@V?$allocator@D@2@@std@@U?$pair@$$CBV?$basic_string@DU?$char_traits@D@std@@V?$allocator@D@2@@std@@K@2@U_Kfn@?$map@V?$basic_string@DU?$char_traits@D@std@@V?$allocator@D@2@@std@@KU_tstring_less@@V?$allocator@K@2@@2@U_tstring_less@@V?$allocator@K@2@@std@@KAPAU_Node@12@PAU312@@Z 0040fd50 f i ChannelMgr.obj
 0001:0000edd0       ?_Min@?$_Tree@V?$basic_string@DU?$char_traits@D@std@@V?$allocator@D@2@@std@@U?$pair@$$CBV?$basic_string@DU?$char_traits@D@std@@V?$allocator@D@2@@std@@K@2@U_Kfn@?$map@V?$basic_string@DU?$char_traits@D@std@@V?$allocator@D@2@@std@@KU_tstring_less@@V?$allocator@K@2@@2@U_tstring_less@@V?$allocator@K@2@@std@@KAPAU_Node@12@PAU312@@Z 0040fdd0 f i ChannelMgr.obj
 0001:0000ee50       ?_Rrotate@?$_Tree@V?$basic_string@DU?$char_traits@D@std@@V?$allocator@D@2@@std@@U?$pair@$$CBV?$basic_string@DU?$char_traits@D@std@@V?$allocator@D@2@@std@@K@2@U_Kfn@?$map@V?$basic_string@DU?$char_traits@D@std@@V?$allocator@D@2@@std@@KU_tstring_less@@V?$allocator@K@2@@2@U_tstring_less@@V?$allocator@K@2@@std@@IAEXPAU_Node@12@@Z 0040fe50 f i ChannelMgr.obj
 0001:0000efc0       ?_Buynode@?$_Tree@V?$basic_string@DU?$char_traits@D@std@@V?$allocator@D@2@@std@@U?$pair@$$CBV?$basic_string@DU?$char_traits@D@std@@V?$allocator@D@2@@std@@K@2@U_Kfn@?$map@V?$basic_string@DU?$char_traits@D@std@@V?$allocator@D@2@@std@@KU_tstring_less@@V?$allocator@K@2@@2@U_tstring_less@@V?$allocator@K@2@@std@@IAEPAU_Node@12@PAU312@W4_Redbl@12@@Z 0040ffc0 f i ChannelMgr.obj
 0001:0000f010       ?_Destval@?$_Tree@V?$basic_string@DU?$char_traits@D@std@@V?$allocator@D@2@@std@@U?$pair@$$CBV?$basic_string@DU?$char_traits@D@std@@V?$allocator@D@2@@std@@K@2@U_Kfn@?$map@V?$basic_string@DU?$char_traits@D@std@@V?$allocator@D@2@@std@@KU_tstring_less@@V?$allocator@K@2@@2@U_tstring_less@@V?$allocator@K@2@@std@@IAEXPAU?$pair@$$CBV?$basic_string@DU?$char_traits@D@std@@V?$allocator@D@2@@std@@K@2@@Z 00410010 f i ChannelMgr.obj
 0001:0000f030       ??0const_iterator@?$_Tree@V?$basic_string@DU?$char_traits@D@std@@V?$allocator@D@2@@std@@U?$pair@$$CBV?$basic_string@DU?$char_traits@D@std@@V?$allocator@D@2@@std@@K@2@U_Kfn@?$map@V?$basic_string@DU?$char_traits@D@std@@V?$allocator@D@2@@std@@KU_tstring_less@@V?$allocator@K@2@@2@U_tstring_less@@V?$allocator@K@2@@std@@QAE@PAU_Node@12@@Z 00410030 f i ChannelMgr.obj
 0001:0000f050       ??Eiterator@?$_Tree@V?$basic_string@DU?$char_traits@D@std@@V?$allocator@D@2@@std@@U?$pair@$$CBV?$basic_string@DU?$char_traits@D@std@@V?$allocator@D@2@@std@@K@2@U_Kfn@?$map@V?$basic_string@DU?$char_traits@D@std@@V?$allocator@D@2@@std@@KU_tstring_less@@V?$allocator@K@2@@2@U_tstring_less@@V?$allocator@K@2@@std@@QAEAAV012@XZ 00410050 f i ChannelMgr.obj
 0001:0000f070       ??Fiterator@?$_Tree@V?$basic_string@DU?$char_traits@D@std@@V?$allocator@D@2@@std@@U?$pair@$$CBV?$basic_string@DU?$char_traits@D@std@@V?$allocator@D@2@@std@@K@2@U_Kfn@?$map@V?$basic_string@DU?$char_traits@D@std@@V?$allocator@D@2@@std@@KU_tstring_less@@V?$allocator@K@2@@2@U_tstring_less@@V?$allocator@K@2@@std@@QAEAAV012@XZ 00410070 f i ChannelMgr.obj
 0001:0000f090       ?_Color@?$_Tree@KU?$pair@$$CBKV?$list@PAU_BLOCKCHANNELOP@CChannelMgr@@V?$allocator@PAU_BLOCKCHANNELOP@CChannelMgr@@@std@@@std@@@std@@U_Kfn@?$map@KV?$list@PAU_BLOCKCHANNELOP@CChannelMgr@@V?$allocator@PAU_BLOCKCHANNELOP@CChannelMgr@@@std@@@std@@U?$less@K@2@V?$allocator@V?$list@PAU_BLOCKCHANNELOP@CChannelMgr@@V?$allocator@PAU_BLOCKCHANNELOP@CChannelMgr@@@std@@@std@@@2@@2@U?$less@K@2@V?$allocator@V?$list@PAU_BLOCKCHANNELOP@CChannelMgr@@V?$allocator@PAU_BLOCKCHANNELOP@CChannelMgr@@@std@@@std@@@2@@std@@KAAAW4_Redbl@12@PAU_Node@12@@Z 00410090 f i ChannelMgr.obj
 0001:0000f0a0       ?_Left@?$_Tree@KU?$pair@$$CBKV?$list@PAU_BLOCKCHANNELOP@CChannelMgr@@V?$allocator@PAU_BLOCKCHANNELOP@CChannelMgr@@@std@@@std@@@std@@U_Kfn@?$map@KV?$list@PAU_BLOCKCHANNELOP@CChannelMgr@@V?$allocator@PAU_BLOCKCHANNELOP@CChannelMgr@@@std@@@std@@U?$less@K@2@V?$allocator@V?$list@PAU_BLOCKCHANNELOP@CChannelMgr@@V?$allocator@PAU_BLOCKCHANNELOP@CChannelMgr@@@std@@@std@@@2@@2@U?$less@K@2@V?$allocator@V?$list@PAU_BLOCKCHANNELOP@CChannelMgr@@V?$allocator@PAU_BLOCKCHANNELOP@CChannelMgr@@@std@@@std@@@2@@std@@KAAAPAU_Node@12@PAU312@@Z 004100a0 f i ChannelMgr.obj
 0001:0000f0b0       ?_Parent@?$_Tree@KU?$pair@$$CBKV?$list@PAU_BLOCKCHANNELOP@CChannelMgr@@V?$allocator@PAU_BLOCKCHANNELOP@CChannelMgr@@@std@@@std@@@std@@U_Kfn@?$map@KV?$list@PAU_BLOCKCHANNELOP@CChannelMgr@@V?$allocator@PAU_BLOCKCHANNELOP@CChannelMgr@@@std@@@std@@U?$less@K@2@V?$allocator@V?$list@PAU_BLOCKCHANNELOP@CChannelMgr@@V?$allocator@PAU_BLOCKCHANNELOP@CChannelMgr@@@std@@@std@@@2@@2@U?$less@K@2@V?$allocator@V?$list@PAU_BLOCKCHANNELOP@CChannelMgr@@V?$allocator@PAU_BLOCKCHANNELOP@CChannelMgr@@@std@@@std@@@2@@std@@KAAAPAU_Node@12@PAU312@@Z 004100b0 f i ChannelMgr.obj
 0001:0000f0c0       ?_Right@?$_Tree@KU?$pair@$$CBKV?$list@PAU_BLOCKCHANNELOP@CChannelMgr@@V?$allocator@PAU_BLOCKCHANNELOP@CChannelMgr@@@std@@@std@@@std@@U_Kfn@?$map@KV?$list@PAU_BLOCKCHANNELOP@CChannelMgr@@V?$allocator@PAU_BLOCKCHANNELOP@CChannelMgr@@@std@@@std@@U?$less@K@2@V?$allocator@V?$list@PAU_BLOCKCHANNELOP@CChannelMgr@@V?$allocator@PAU_BLOCKCHANNELOP@CChannelMgr@@@std@@@std@@@2@@2@U?$less@K@2@V?$allocator@V?$list@PAU_BLOCKCHANNELOP@CChannelMgr@@V?$allocator@PAU_BLOCKCHANNELOP@CChannelMgr@@@std@@@std@@@2@@std@@KAAAPAU_Node@12@PAU312@@Z 004100c0 f i ChannelMgr.obj
 0001:0000f0d0       ?_Lrotate@?$_Tree@KU?$pair@$$CBKV?$list@PAU_BLOCKCHANNELOP@CChannelMgr@@V?$allocator@PAU_BLOCKCHANNELOP@CChannelMgr@@@std@@@std@@@std@@U_Kfn@?$map@KV?$list@PAU_BLOCKCHANNELOP@CChannelMgr@@V?$allocator@PAU_BLOCKCHANNELOP@CChannelMgr@@@std@@@std@@U?$less@K@2@V?$allocator@V?$list@PAU_BLOCKCHANNELOP@CChannelMgr@@V?$allocator@PAU_BLOCKCHANNELOP@CChannelMgr@@@std@@@std@@@2@@2@U?$less@K@2@V?$allocator@V?$list@PAU_BLOCKCHANNELOP@CChannelMgr@@V?$allocator@PAU_BLOCKCHANNELOP@CChannelMgr@@@std@@@std@@@2@@std@@IAEXPAU_Node@12@@Z 004100d0 f i ChannelMgr.obj
 0001:0000f240       ?_Max@?$_Tree@KU?$pair@$$CBKV?$list@PAU_BLOCKCHANNELOP@CChannelMgr@@V?$allocator@PAU_BLOCKCHANNELOP@CChannelMgr@@@std@@@std@@@std@@U_Kfn@?$map@KV?$list@PAU_BLOCKCHANNELOP@CChannelMgr@@V?$allocator@PAU_BLOCKCHANNELOP@CChannelMgr@@@std@@@std@@U?$less@K@2@V?$allocator@V?$list@PAU_BLOCKCHANNELOP@CChannelMgr@@V?$allocator@PAU_BLOCKCHANNELOP@CChannelMgr@@@std@@@std@@@2@@2@U?$less@K@2@V?$allocator@V?$list@PAU_BLOCKCHANNELOP@CChannelMgr@@V?$allocator@PAU_BLOCKCHANNELOP@CChannelMgr@@@std@@@std@@@2@@std@@KAPAU_Node@12@PAU312@@Z 00410240 f i ChannelMgr.obj
 0001:0000f2c0       ?_Min@?$_Tree@KU?$pair@$$CBKV?$list@PAU_BLOCKCHANNELOP@CChannelMgr@@V?$allocator@PAU_BLOCKCHANNELOP@CChannelMgr@@@std@@@std@@@std@@U_Kfn@?$map@KV?$list@PAU_BLOCKCHANNELOP@CChannelMgr@@V?$allocator@PAU_BLOCKCHANNELOP@CChannelMgr@@@std@@@std@@U?$less@K@2@V?$allocator@V?$list@PAU_BLOCKCHANNELOP@CChannelMgr@@V?$allocator@PAU_BLOCKCHANNELOP@CChannelMgr@@@std@@@std@@@2@@2@U?$less@K@2@V?$allocator@V?$list@PAU_BLOCKCHANNELOP@CChannelMgr@@V?$allocator@PAU_BLOCKCHANNELOP@CChannelMgr@@@std@@@std@@@2@@std@@KAPAU_Node@12@PAU312@@Z 004102c0 f i ChannelMgr.obj
 0001:0000f340       ?_Rrotate@?$_Tree@KU?$pair@$$CBKV?$list@PAU_BLOCKCHANNELOP@CChannelMgr@@V?$allocator@PAU_BLOCKCHANNELOP@CChannelMgr@@@std@@@std@@@std@@U_Kfn@?$map@KV?$list@PAU_BLOCKCHANNELOP@CChannelMgr@@V?$allocator@PAU_BLOCKCHANNELOP@CChannelMgr@@@std@@@std@@U?$less@K@2@V?$allocator@V?$list@PAU_BLOCKCHANNELOP@CChannelMgr@@V?$allocator@PAU_BLOCKCHANNELOP@CChannelMgr@@@std@@@std@@@2@@2@U?$less@K@2@V?$allocator@V?$list@PAU_BLOCKCHANNELOP@CChannelMgr@@V?$allocator@PAU_BLOCKCHANNELOP@CChannelMgr@@@std@@@std@@@2@@std@@IAEXPAU_Node@12@@Z 00410340 f i ChannelMgr.obj
 0001:0000f4b0       ?_Buynode@?$_Tree@KU?$pair@$$CBKV?$list@PAU_BLOCKCHANNELOP@CChannelMgr@@V?$allocator@PAU_BLOCKCHANNELOP@CChannelMgr@@@std@@@std@@@std@@U_Kfn@?$map@KV?$list@PAU_BLOCKCHANNELOP@CChannelMgr@@V?$allocator@PAU_BLOCKCHANNELOP@CChannelMgr@@@std@@@std@@U?$less@K@2@V?$allocator@V?$list@PAU_BLOCKCHANNELOP@CChannelMgr@@V?$allocator@PAU_BLOCKCHANNELOP@CChannelMgr@@@std@@@std@@@2@@2@U?$less@K@2@V?$allocator@V?$list@PAU_BLOCKCHANNELOP@CChannelMgr@@V?$allocator@PAU_BLOCKCHANNELOP@CChannelMgr@@@std@@@std@@@2@@std@@IAEPAU_Node@12@PAU312@W4_Redbl@12@@Z 004104b0 f i ChannelMgr.obj
 0001:0000f500       ?_Destval@?$_Tree@KU?$pair@$$CBKV?$list@PAU_BLOCKCHANNELOP@CChannelMgr@@V?$allocator@PAU_BLOCKCHANNELOP@CChannelMgr@@@std@@@std@@@std@@U_Kfn@?$map@KV?$list@PAU_BLOCKCHANNELOP@CChannelMgr@@V?$allocator@PAU_BLOCKCHANNELOP@CChannelMgr@@@std@@@std@@U?$less@K@2@V?$allocator@V?$list@PAU_BLOCKCHANNELOP@CChannelMgr@@V?$allocator@PAU_BLOCKCHANNELOP@CChannelMgr@@@std@@@std@@@2@@2@U?$less@K@2@V?$allocator@V?$list@PAU_BLOCKCHANNELOP@CChannelMgr@@V?$allocator@PAU_BLOCKCHANNELOP@CChannelMgr@@@std@@@std@@@2@@std@@IAEXPAU?$pair@$$CBKV?$list@PAU_BLOCKCHANNELOP@CChannelMgr@@V?$allocator@PAU_BLOCKCHANNELOP@CChannelMgr@@@std@@@std@@@2@@Z 00410500 f i ChannelMgr.obj
 0001:0000f520       ??0const_iterator@?$_Tree@KU?$pair@$$CBKV?$list@PAU_BLOCKCHANNELOP@CChannelMgr@@V?$allocator@PAU_BLOCKCHANNELOP@CChannelMgr@@@std@@@std@@@std@@U_Kfn@?$map@KV?$list@PAU_BLOCKCHANNELOP@CChannelMgr@@V?$allocator@PAU_BLOCKCHANNELOP@CChannelMgr@@@std@@@std@@U?$less@K@2@V?$allocator@V?$list@PAU_BLOCKCHANNELOP@CChannelMgr@@V?$allocator@PAU_BLOCKCHANNELOP@CChannelMgr@@@std@@@std@@@2@@2@U?$less@K@2@V?$allocator@V?$list@PAU_BLOCKCHANNELOP@CChannelMgr@@V?$allocator@PAU_BLOCKCHANNELOP@CChannelMgr@@@std@@@std@@@2@@std@@QAE@PAU_Node@12@@Z 00410520 f i ChannelMgr.obj
 0001:0000f540       ?_Mynode@const_iterator@?$_Tree@KU?$pair@$$CBKV?$list@PAU_BLOCKCHANNELOP@CChannelMgr@@V?$allocator@PAU_BLOCKCHANNELOP@CChannelMgr@@@std@@@std@@@std@@U_Kfn@?$map@KV?$list@PAU_BLOCKCHANNELOP@CChannelMgr@@V?$allocator@PAU_BLOCKCHANNELOP@CChannelMgr@@@std@@@std@@U?$less@K@2@V?$allocator@V?$list@PAU_BLOCKCHANNELOP@CChannelMgr@@V?$allocator@PAU_BLOCKCHANNELOP@CChannelMgr@@@std@@@std@@@2@@2@U?$less@K@2@V?$allocator@V?$list@PAU_BLOCKCHANNELOP@CChannelMgr@@V?$allocator@PAU_BLOCKCHANNELOP@CChannelMgr@@@std@@@std@@@2@@std@@QBEPAU_Node@23@XZ 00410540 f i ChannelMgr.obj
 0001:0000f550       ?destroy@?$allocator@UtagPlusSrcInfo@@@std@@QAEXPAUtagPlusSrcInfo@@@Z 00410550 f i ChannelMgr.obj
 0001:0000f570       ??Eiterator@?$list@UtagPlusSrcInfo@@V?$allocator@UtagPlusSrcInfo@@@std@@@std@@QAEAAV012@XZ 00410570 f i ChannelMgr.obj
 0001:0000f5a0       ??8iterator@?$list@UtagPlusSrcInfo@@V?$allocator@UtagPlusSrcInfo@@@std@@@std@@QBE_NABV012@@Z 004105a0 f i ChannelMgr.obj
 0001:0000f5c0       ??0?$pair@Viterator@?$_Tree@KU?$pair@$$CBKUPLAYERINFO@CChannelMgr@@@std@@U_Kfn@?$map@KUPLAYERINFO@CChannelMgr@@U?$less@K@std@@V?$allocator@UPLAYERINFO@CChannelMgr@@@4@@2@U?$less@K@2@V?$allocator@UPLAYERINFO@CChannelMgr@@@2@@std@@V123@@std@@QAE@ABViterator@?$_Tree@KU?$pair@$$CBKUPLAYERINFO@CChannelMgr@@@std@@U_Kfn@?$map@KUPLAYERINFO@CChannelMgr@@U?$less@K@std@@V?$allocator@UPLAYERINFO@CChannelMgr@@@4@@2@U?$less@K@2@V?$allocator@UPLAYERINFO@CChannelMgr@@@2@@1@0@Z 004105c0 f i ChannelMgr.obj
 0001:0000f5f0       ??0?$pair@Viterator@?$_Tree@V?$basic_string@DU?$char_traits@D@std@@V?$allocator@D@2@@std@@U?$pair@$$CBV?$basic_string@DU?$char_traits@D@std@@V?$allocator@D@2@@std@@K@2@U_Kfn@?$map@V?$basic_string@DU?$char_traits@D@std@@V?$allocator@D@2@@std@@KU_tstring_less@@V?$allocator@K@2@@2@U_tstring_less@@V?$allocator@K@2@@std@@V123@@std@@QAE@ABViterator@?$_Tree@V?$basic_string@DU?$char_traits@D@std@@V?$allocator@D@2@@std@@U?$pair@$$CBV?$basic_string@DU?$char_traits@D@std@@V?$allocator@D@2@@std@@K@2@U_Kfn@?$map@V?$basic_string@DU?$char_traits@D@std@@V?$allocator@D@2@@std@@KU_tstring_less@@V?$allocator@K@2@@2@U_tstring_less@@V?$allocator@K@2@@1@0@Z 004105f0 f i ChannelMgr.obj
 0001:0000f620       ?allocate@?$allocator@D@std@@QAEPADIPBX@Z 00410620 f i ChannelMgr.obj
 0001:0000f640       ?max_size@?$allocator@D@std@@QBEIXZ 00410640 f i ChannelMgr.obj
 0001:0000f670       ?_Copy@?$_Tree@KU?$pair@$$CBKV?$map@KUPLAYERINFO@CChannelMgr@@U?$less@K@std@@V?$allocator@UPLAYERINFO@CChannelMgr@@@4@@std@@@std@@U_Kfn@?$map@KV?$map@KUPLAYERINFO@CChannelMgr@@U?$less@K@std@@V?$allocator@UPLAYERINFO@CChannelMgr@@@4@@std@@U?$less@K@2@V?$allocator@V?$map@KUPLAYERINFO@CChannelMgr@@U?$less@K@std@@V?$allocator@UPLAYERINFO@CChannelMgr@@@4@@std@@@2@@2@U?$less@K@2@V?$allocator@V?$map@KUPLAYERINFO@CChannelMgr@@U?$less@K@std@@V?$allocator@UPLAYERINFO@CChannelMgr@@@4@@std@@@2@@std@@IAEPAU_Node@12@PAU312@0@Z 00410670 f i ChannelMgr.obj
 0001:0000f7a0       ?_Root@?$_Tree@KU?$pair@$$CBKV?$map@KUPLAYERINFO@CChannelMgr@@U?$less@K@std@@V?$allocator@UPLAYERINFO@CChannelMgr@@@4@@std@@@std@@U_Kfn@?$map@KV?$map@KUPLAYERINFO@CChannelMgr@@U?$less@K@std@@V?$allocator@UPLAYERINFO@CChannelMgr@@@4@@std@@U?$less@K@2@V?$allocator@V?$map@KUPLAYERINFO@CChannelMgr@@U?$less@K@std@@V?$allocator@UPLAYERINFO@CChannelMgr@@@4@@std@@@2@@2@U?$less@K@2@V?$allocator@V?$map@KUPLAYERINFO@CChannelMgr@@U?$less@K@std@@V?$allocator@UPLAYERINFO@CChannelMgr@@@4@@std@@@2@@std@@IBEAAPAU_Node@12@XZ 004107a0 f i ChannelMgr.obj
 0001:0000f7c0       ?_Buynode@?$_Tree@KU?$pair@$$CBKV?$map@KUPLAYERINFO@CChannelMgr@@U?$less@K@std@@V?$allocator@UPLAYERINFO@CChannelMgr@@@4@@std@@@std@@U_Kfn@?$map@KV?$map@KUPLAYERINFO@CChannelMgr@@U?$less@K@std@@V?$allocator@UPLAYERINFO@CChannelMgr@@@4@@std@@U?$less@K@2@V?$allocator@V?$map@KUPLAYERINFO@CChannelMgr@@U?$less@K@std@@V?$allocator@UPLAYERINFO@CChannelMgr@@@4@@std@@@2@@2@U?$less@K@2@V?$allocator@V?$map@KUPLAYERINFO@CChannelMgr@@U?$less@K@std@@V?$allocator@UPLAYERINFO@CChannelMgr@@@4@@std@@@2@@std@@IAEPAU_Node@12@PAU312@W4_Redbl@12@@Z 004107c0 f i ChannelMgr.obj
 0001:0000f810       ?_Consval@?$_Tree@KU?$pair@$$CBKV?$map@KUPLAYERINFO@CChannelMgr@@U?$less@K@std@@V?$allocator@UPLAYERINFO@CChannelMgr@@@4@@std@@@std@@U_Kfn@?$map@KV?$map@KUPLAYERINFO@CChannelMgr@@U?$less@K@std@@V?$allocator@UPLAYERINFO@CChannelMgr@@@4@@std@@U?$less@K@2@V?$allocator@V?$map@KUPLAYERINFO@CChannelMgr@@U?$less@K@std@@V?$allocator@UPLAYERINFO@CChannelMgr@@@4@@std@@@2@@2@U?$less@K@2@V?$allocator@V?$map@KUPLAYERINFO@CChannelMgr@@U?$less@K@std@@V?$allocator@UPLAYERINFO@CChannelMgr@@@4@@std@@@2@@std@@IAEXPAU?$pair@$$CBKV?$map@KUPLAYERINFO@CChannelMgr@@U?$less@K@std@@V?$allocator@UPLAYERINFO@CChannelMgr@@@4@@std@@@2@ABU32@@Z 00410810 f i ChannelMgr.obj
 0001:0000f830       ?_Color@?$_Tree@KU?$pair@$$CBKUPLAYERINFO@CChannelMgr@@@std@@U_Kfn@?$map@KUPLAYERINFO@CChannelMgr@@U?$less@K@std@@V?$allocator@UPLAYERINFO@CChannelMgr@@@4@@2@U?$less@K@2@V?$allocator@UPLAYERINFO@CChannelMgr@@@2@@std@@KAAAW4_Redbl@12@PAU_Node@12@@Z 00410830 f i ChannelMgr.obj
 0001:0000f840       ?_Copy@?$_Tree@KU?$pair@$$CBKUPLAYERINFO@CChannelMgr@@@std@@U_Kfn@?$map@KUPLAYERINFO@CChannelMgr@@U?$less@K@std@@V?$allocator@UPLAYERINFO@CChannelMgr@@@4@@2@U?$less@K@2@V?$allocator@UPLAYERINFO@CChannelMgr@@@2@@std@@IAEPAU_Node@12@PAU312@0@Z 00410840 f i ChannelMgr.obj
 0001:0000f970       ?_Lrotate@?$_Tree@KU?$pair@$$CBKUPLAYERINFO@CChannelMgr@@@std@@U_Kfn@?$map@KUPLAYERINFO@CChannelMgr@@U?$less@K@std@@V?$allocator@UPLAYERINFO@CChannelMgr@@@4@@2@U?$less@K@2@V?$allocator@UPLAYERINFO@CChannelMgr@@@2@@std@@IAEXPAU_Node@12@@Z 00410970 f i ChannelMgr.obj
 0001:0000fae0       ?_Max@?$_Tree@KU?$pair@$$CBKUPLAYERINFO@CChannelMgr@@@std@@U_Kfn@?$map@KUPLAYERINFO@CChannelMgr@@U?$less@K@std@@V?$allocator@UPLAYERINFO@CChannelMgr@@@4@@2@U?$less@K@2@V?$allocator@UPLAYERINFO@CChannelMgr@@@2@@std@@KAPAU_Node@12@PAU312@@Z 00410ae0 f i ChannelMgr.obj
 0001:0000fb60       ?_Root@?$_Tree@KU?$pair@$$CBKUPLAYERINFO@CChannelMgr@@@std@@U_Kfn@?$map@KUPLAYERINFO@CChannelMgr@@U?$less@K@std@@V?$allocator@UPLAYERINFO@CChannelMgr@@@4@@2@U?$less@K@2@V?$allocator@UPLAYERINFO@CChannelMgr@@@2@@std@@IBEAAPAU_Node@12@XZ 00410b60 f i ChannelMgr.obj
 0001:0000fb80       ?_Rrotate@?$_Tree@KU?$pair@$$CBKUPLAYERINFO@CChannelMgr@@@std@@U_Kfn@?$map@KUPLAYERINFO@CChannelMgr@@U?$less@K@std@@V?$allocator@UPLAYERINFO@CChannelMgr@@@4@@2@U?$less@K@2@V?$allocator@UPLAYERINFO@CChannelMgr@@@2@@std@@IAEXPAU_Node@12@@Z 00410b80 f i ChannelMgr.obj
 0001:0000fcf0       ?_Ubound@?$_Tree@KU?$pair@$$CBKUPLAYERINFO@CChannelMgr@@@std@@U_Kfn@?$map@KUPLAYERINFO@CChannelMgr@@U?$less@K@std@@V?$allocator@UPLAYERINFO@CChannelMgr@@@4@@2@U?$less@K@2@V?$allocator@UPLAYERINFO@CChannelMgr@@@2@@std@@IBEPAU_Node@12@ABK@Z 00410cf0 f i ChannelMgr.obj
 0001:0000fdc0       ?_Buynode@?$_Tree@KU?$pair@$$CBKUPLAYERINFO@CChannelMgr@@@std@@U_Kfn@?$map@KUPLAYERINFO@CChannelMgr@@U?$less@K@std@@V?$allocator@UPLAYERINFO@CChannelMgr@@@4@@2@U?$less@K@2@V?$allocator@UPLAYERINFO@CChannelMgr@@@2@@std@@IAEPAU_Node@12@PAU312@W4_Redbl@12@@Z 00410dc0 f i ChannelMgr.obj
 0001:0000fe10       ?_Consval@?$_Tree@KU?$pair@$$CBKUPLAYERINFO@CChannelMgr@@@std@@U_Kfn@?$map@KUPLAYERINFO@CChannelMgr@@U?$less@K@std@@V?$allocator@UPLAYERINFO@CChannelMgr@@@4@@2@U?$less@K@2@V?$allocator@UPLAYERINFO@CChannelMgr@@@2@@std@@IAEXPAU?$pair@$$CBKUPLAYERINFO@CChannelMgr@@@2@ABU32@@Z 00410e10 f i ChannelMgr.obj
 0001:0000fe30       ?_Destval@?$_Tree@KU?$pair@$$CBKUPLAYERINFO@CChannelMgr@@@std@@U_Kfn@?$map@KUPLAYERINFO@CChannelMgr@@U?$less@K@std@@V?$allocator@UPLAYERINFO@CChannelMgr@@@4@@2@U?$less@K@2@V?$allocator@UPLAYERINFO@CChannelMgr@@@2@@std@@IAEXPAU?$pair@$$CBKUPLAYERINFO@CChannelMgr@@@2@@Z 00410e30 f i ChannelMgr.obj
 0001:0000fe50       ?_Dec@const_iterator@?$_Tree@KU?$pair@$$CBKUPLAYERINFO@CChannelMgr@@@std@@U_Kfn@?$map@KUPLAYERINFO@CChannelMgr@@U?$less@K@std@@V?$allocator@UPLAYERINFO@CChannelMgr@@@4@@2@U?$less@K@2@V?$allocator@UPLAYERINFO@CChannelMgr@@@2@@std@@QAEXXZ 00410e50 f i ChannelMgr.obj
 0001:0000ff60       ?_Dec@const_iterator@?$_Tree@KU?$pair@$$CBKV?$map@KUPLAYERINFO@CChannelMgr@@U?$less@K@std@@V?$allocator@UPLAYERINFO@CChannelMgr@@@4@@std@@@std@@U_Kfn@?$map@KV?$map@KUPLAYERINFO@CChannelMgr@@U?$less@K@std@@V?$allocator@UPLAYERINFO@CChannelMgr@@@4@@std@@U?$less@K@2@V?$allocator@V?$map@KUPLAYERINFO@CChannelMgr@@U?$less@K@std@@V?$allocator@UPLAYERINFO@CChannelMgr@@@4@@std@@@2@@2@U?$less@K@2@V?$allocator@V?$map@KUPLAYERINFO@CChannelMgr@@U?$less@K@std@@V?$allocator@UPLAYERINFO@CChannelMgr@@@4@@std@@@2@@std@@QAEXXZ 00410f60 f i ChannelMgr.obj
 0001:00010070       ?_Charalloc@?$allocator@UCHANNINFO@CChannelMgr@@@std@@QAEPADI@Z 00411070 f i ChannelMgr.obj
 0001:00010090       ?_Root@?$_Tree@KU?$pair@$$CBKUCHANNINFO@CChannelMgr@@@std@@U_Kfn@?$map@KUCHANNINFO@CChannelMgr@@U?$less@K@std@@V?$allocator@UCHANNINFO@CChannelMgr@@@4@@2@U?$less@K@2@V?$allocator@UCHANNINFO@CChannelMgr@@@2@@std@@IBEAAPAU_Node@12@XZ 00411090 f i ChannelMgr.obj
 0001:000100b0       ?_Consval@?$_Tree@KU?$pair@$$CBKUCHANNINFO@CChannelMgr@@@std@@U_Kfn@?$map@KUCHANNINFO@CChannelMgr@@U?$less@K@std@@V?$allocator@UCHANNINFO@CChannelMgr@@@4@@2@U?$less@K@2@V?$allocator@UCHANNINFO@CChannelMgr@@@2@@std@@IAEXPAU?$pair@$$CBKUCHANNINFO@CChannelMgr@@@2@ABU32@@Z 004110b0 f i ChannelMgr.obj
 0001:000100d0       ?_Dec@const_iterator@?$_Tree@KU?$pair@$$CBKUCHANNINFO@CChannelMgr@@@std@@U_Kfn@?$map@KUCHANNINFO@CChannelMgr@@U?$less@K@std@@V?$allocator@UCHANNINFO@CChannelMgr@@@4@@2@U?$less@K@2@V?$allocator@UCHANNINFO@CChannelMgr@@@2@@std@@QAEXXZ 004110d0 f i ChannelMgr.obj
 0001:000101e0       ?_Charalloc@?$allocator@K@std@@QAEPADI@Z 004111e0 f i ChannelMgr.obj
 0001:00010200       ?_Root@?$_Tree@V?$basic_string@DU?$char_traits@D@std@@V?$allocator@D@2@@std@@U?$pair@$$CBV?$basic_string@DU?$char_traits@D@std@@V?$allocator@D@2@@std@@K@2@U_Kfn@?$map@V?$basic_string@DU?$char_traits@D@std@@V?$allocator@D@2@@std@@KU_tstring_less@@V?$allocator@K@2@@2@U_tstring_less@@V?$allocator@K@2@@std@@IBEAAPAU_Node@12@XZ 00411200 f i ChannelMgr.obj
 0001:00010220       ?_Ubound@?$_Tree@V?$basic_string@DU?$char_traits@D@std@@V?$allocator@D@2@@std@@U?$pair@$$CBV?$basic_string@DU?$char_traits@D@std@@V?$allocator@D@2@@std@@K@2@U_Kfn@?$map@V?$basic_string@DU?$char_traits@D@std@@V?$allocator@D@2@@std@@KU_tstring_less@@V?$allocator@K@2@@2@U_tstring_less@@V?$allocator@K@2@@std@@IBEPAU_Node@12@ABV?$basic_string@DU?$char_traits@D@std@@V?$allocator@D@2@@2@@Z 00411220 f i ChannelMgr.obj
 0001:000102f0       ?_Consval@?$_Tree@V?$basic_string@DU?$char_traits@D@std@@V?$allocator@D@2@@std@@U?$pair@$$CBV?$basic_string@DU?$char_traits@D@std@@V?$allocator@D@2@@std@@K@2@U_Kfn@?$map@V?$basic_string@DU?$char_traits@D@std@@V?$allocator@D@2@@std@@KU_tstring_less@@V?$allocator@K@2@@2@U_tstring_less@@V?$allocator@K@2@@std@@IAEXPAU?$pair@$$CBV?$basic_string@DU?$char_traits@D@std@@V?$allocator@D@2@@std@@K@2@ABU32@@Z 004112f0 f i ChannelMgr.obj
 0001:00010310       ?_Dec@const_iterator@?$_Tree@V?$basic_string@DU?$char_traits@D@std@@V?$allocator@D@2@@std@@U?$pair@$$CBV?$basic_string@DU?$char_traits@D@std@@V?$allocator@D@2@@std@@K@2@U_Kfn@?$map@V?$basic_string@DU?$char_traits@D@std@@V?$allocator@D@2@@std@@KU_tstring_less@@V?$allocator@K@2@@2@U_tstring_less@@V?$allocator@K@2@@std@@QAEXXZ 00411310 f i ChannelMgr.obj
 0001:00010420       ?_Inc@const_iterator@?$_Tree@V?$basic_string@DU?$char_traits@D@std@@V?$allocator@D@2@@std@@U?$pair@$$CBV?$basic_string@DU?$char_traits@D@std@@V?$allocator@D@2@@std@@K@2@U_Kfn@?$map@V?$basic_string@DU?$char_traits@D@std@@V?$allocator@D@2@@std@@KU_tstring_less@@V?$allocator@K@2@@2@U_tstring_less@@V?$allocator@K@2@@std@@QAEXXZ 00411420 f i ChannelMgr.obj
 0001:00010500       ?_Charalloc@?$allocator@V?$list@PAU_BLOCKCHANNELOP@CChannelMgr@@V?$allocator@PAU_BLOCKCHANNELOP@CChannelMgr@@@std@@@std@@@std@@QAEPADI@Z 00411500 f i ChannelMgr.obj
 0001:00010520       ?_Charalloc@?$allocator@V?$map@KUPLAYERINFO@CChannelMgr@@U?$less@K@std@@V?$allocator@UPLAYERINFO@CChannelMgr@@@4@@std@@@std@@QAEPADI@Z 00411520 f i ChannelMgr.obj
 0001:00010540       ?_Charalloc@?$allocator@UPLAYERINFO@CChannelMgr@@@std@@QAEPADI@Z 00411540 f i ChannelMgr.obj
 0001:00010560       ?_SafeRelease@@YAXAAPAUIServer@@@Z 00411560 f i ChannelMgr.obj
 0001:00010590       ??8std@@YA_NABV?$allocator@D@0@0@Z 00411590 f i ChannelMgr.obj
 0001:000105a0       ?swap@std@@YAXAAW4_Redbl@?$_Tree@KU?$pair@$$CBKV?$map@KUPLAYERINFO@CChannelMgr@@U?$less@K@std@@V?$allocator@UPLAYERINFO@CChannelMgr@@@4@@std@@@std@@U_Kfn@?$map@KV?$map@KUPLAYERINFO@CChannelMgr@@U?$less@K@std@@V?$allocator@UPLAYERINFO@CChannelMgr@@@4@@std@@U?$less@K@2@V?$allocator@V?$map@KUPLAYERINFO@CChannelMgr@@U?$less@K@std@@V?$allocator@UPLAYERINFO@CChannelMgr@@@4@@std@@@2@@2@U?$less@K@2@V?$allocator@V?$map@KUPLAYERINFO@CChannelMgr@@U?$less@K@std@@V?$allocator@UPLAYERINFO@CChannelMgr@@@4@@std@@@2@@1@0@Z 004115a0 f i ChannelMgr.obj
 0001:000105d0       ?_Distance@std@@YAXViterator@?$_Tree@KU?$pair@$$CBKUPLAYERINFO@CChannelMgr@@@std@@U_Kfn@?$map@KUPLAYERINFO@CChannelMgr@@U?$less@K@std@@V?$allocator@UPLAYERINFO@CChannelMgr@@@4@@2@U?$less@K@2@V?$allocator@UPLAYERINFO@CChannelMgr@@@2@@1@0AAI@Z 004115d0 f i ChannelMgr.obj
 0001:00010600       ?swap@std@@YAXAAW4_Redbl@?$_Tree@KU?$pair@$$CBKUCHANNINFO@CChannelMgr@@@std@@U_Kfn@?$map@KUCHANNINFO@CChannelMgr@@U?$less@K@std@@V?$allocator@UCHANNINFO@CChannelMgr@@@4@@2@U?$less@K@2@V?$allocator@UCHANNINFO@CChannelMgr@@@2@@1@0@Z 00411600 f i ChannelMgr.obj
 0001:00010630       ?_Distance@std@@YAXViterator@?$_Tree@V?$basic_string@DU?$char_traits@D@std@@V?$allocator@D@2@@std@@U?$pair@$$CBV?$basic_string@DU?$char_traits@D@std@@V?$allocator@D@2@@std@@K@2@U_Kfn@?$map@V?$basic_string@DU?$char_traits@D@std@@V?$allocator@D@2@@std@@KU_tstring_less@@V?$allocator@K@2@@2@U_tstring_less@@V?$allocator@K@2@@1@0AAI@Z 00411630 f i ChannelMgr.obj
 0001:00010660       ?_Destroy@std@@YAXPAU?$pair@$$CBKV?$map@KUPLAYERINFO@CChannelMgr@@U?$less@K@std@@V?$allocator@UPLAYERINFO@CChannelMgr@@@4@@std@@@1@@Z 00411660 f i ChannelMgr.obj
 0001:00010670       ?_Destroy@std@@YAXPAU?$pair@$$CBKUCHANNINFO@CChannelMgr@@@1@@Z 00411670 f i ChannelMgr.obj
 0001:00010680       ?swap@std@@YAXAAW4_Redbl@?$_Tree@V?$basic_string@DU?$char_traits@D@std@@V?$allocator@D@2@@std@@U?$pair@$$CBV?$basic_string@DU?$char_traits@D@std@@V?$allocator@D@2@@std@@K@2@U_Kfn@?$map@V?$basic_string@DU?$char_traits@D@std@@V?$allocator@D@2@@std@@KU_tstring_less@@V?$allocator@K@2@@2@U_tstring_less@@V?$allocator@K@2@@1@0@Z 00411680 f i ChannelMgr.obj
 0001:000106b0       ?swap@std@@YAXAAW4_Redbl@?$_Tree@KU?$pair@$$CBKV?$list@PAU_BLOCKCHANNELOP@CChannelMgr@@V?$allocator@PAU_BLOCKCHANNELOP@CChannelMgr@@@std@@@std@@@std@@U_Kfn@?$map@KV?$list@PAU_BLOCKCHANNELOP@CChannelMgr@@V?$allocator@PAU_BLOCKCHANNELOP@CChannelMgr@@@std@@@std@@U?$less@K@2@V?$allocator@V?$list@PAU_BLOCKCHANNELOP@CChannelMgr@@V?$allocator@PAU_BLOCKCHANNELOP@CChannelMgr@@@std@@@std@@@2@@2@U?$less@K@2@V?$allocator@V?$list@PAU_BLOCKCHANNELOP@CChannelMgr@@V?$allocator@PAU_BLOCKCHANNELOP@CChannelMgr@@@std@@@std@@@2@@1@0@Z 004116b0 f i ChannelMgr.obj
 0001:000106e0       ?_Allocate@std@@YAPADHPAD@Z 004116e0 f i ChannelMgr.obj
 0001:00010700       ?_Construct@std@@YAXPAUtagPlusSrcInfo@@ABU2@@Z 00411700 f i ChannelMgr.obj
 0001:00010740       ??2@YAPAXIPAX@Z            00411740 f i ChannelMgr.obj
 0001:00010750       ?swap@std@@YAXAAW4_Redbl@?$_Tree@KU?$pair@$$CBKUPLAYERINFO@CChannelMgr@@@std@@U_Kfn@?$map@KUPLAYERINFO@CChannelMgr@@U?$less@K@std@@V?$allocator@UPLAYERINFO@CChannelMgr@@@4@@2@U?$less@K@2@V?$allocator@UPLAYERINFO@CChannelMgr@@@2@@1@0@Z 00411750 f i ChannelMgr.obj
 0001:00010780       ?_Destroy@std@@YAXPAU?$pair@$$CBV?$basic_string@DU?$char_traits@D@std@@V?$allocator@D@2@@std@@K@1@@Z 00411780 f i ChannelMgr.obj
 0001:00010790       ?_Destroy@std@@YAXPAU?$pair@$$CBKV?$list@PAU_BLOCKCHANNELOP@CChannelMgr@@V?$allocator@PAU_BLOCKCHANNELOP@CChannelMgr@@@std@@@std@@@1@@Z 00411790 f i ChannelMgr.obj
 0001:000107a0       ?_Destroy@std@@YAXPAUtagPlusSrcInfo@@@Z 004117a0 f i ChannelMgr.obj
 0001:000107b0       ?_Construct@std@@YAXPAU?$pair@$$CBKV?$map@KUPLAYERINFO@CChannelMgr@@U?$less@K@std@@V?$allocator@UPLAYERINFO@CChannelMgr@@@4@@std@@@1@ABU21@@Z 004117b0 f i ChannelMgr.obj
 0001:00010820       ??3@YAXPAX0@Z              00411820 f i ChannelMgr.obj
 0001:00010830       ?_Construct@std@@YAXPAU?$pair@$$CBKUPLAYERINFO@CChannelMgr@@@1@ABU21@@Z 00411830 f i ChannelMgr.obj
 0001:00010880       ?_Destroy@std@@YAXPAU?$pair@$$CBKUPLAYERINFO@CChannelMgr@@@1@@Z 00411880 f i ChannelMgr.obj
 0001:00010890       ?_Construct@std@@YAXPAU?$pair@$$CBKUCHANNINFO@CChannelMgr@@@1@ABU21@@Z 00411890 f i ChannelMgr.obj
 0001:00010900       ?_Construct@std@@YAXPAU?$pair@$$CBV?$basic_string@DU?$char_traits@D@std@@V?$allocator@D@2@@std@@K@1@ABU21@@Z 00411900 f i ChannelMgr.obj
 0001:00010970       ??_G?$pair@$$CBKV?$map@KUPLAYERINFO@CChannelMgr@@U?$less@K@std@@V?$allocator@UPLAYERINFO@CChannelMgr@@@4@@std@@@std@@QAEPAXI@Z 00411970 f i ChannelMgr.obj
 0001:000109a0       ??_G?$pair@$$CBKUCHANNINFO@CChannelMgr@@@std@@QAEPAXI@Z 004119a0 f i ChannelMgr.obj
 0001:000109d0       ??_G?$pair@$$CBV?$basic_string@DU?$char_traits@D@std@@V?$allocator@D@2@@std@@K@std@@QAEPAXI@Z 004119d0 f i ChannelMgr.obj
 0001:00010a00       ??_G?$pair@$$CBKV?$list@PAU_BLOCKCHANNELOP@CChannelMgr@@V?$allocator@PAU_BLOCKCHANNELOP@CChannelMgr@@@std@@@std@@@std@@QAEPAXI@Z 00411a00 f i ChannelMgr.obj
 0001:00010a30       ??1?$pair@$$CBKV?$list@PAU_BLOCKCHANNELOP@CChannelMgr@@V?$allocator@PAU_BLOCKCHANNELOP@CChannelMgr@@@std@@@std@@@std@@QAE@XZ 00411a30 f i ChannelMgr.obj
 0001:00010a50       ??1?$list@PAU_BLOCKCHANNELOP@CChannelMgr@@V?$allocator@PAU_BLOCKCHANNELOP@CChannelMgr@@@std@@@std@@QAE@XZ 00411a50 f i ChannelMgr.obj
 0001:00010ab0       ?erase@?$list@PAU_BLOCKCHANNELOP@CChannelMgr@@V?$allocator@PAU_BLOCKCHANNELOP@CChannelMgr@@@std@@@std@@QAE?AViterator@12@V312@0@Z 00411ab0 f i ChannelMgr.obj
 0001:00010b00       ?_Freenode@?$list@PAU_BLOCKCHANNELOP@CChannelMgr@@V?$allocator@PAU_BLOCKCHANNELOP@CChannelMgr@@@std@@@std@@IAEXPAU_Node@12@@Z 00411b00 f i ChannelMgr.obj
 0001:00010b20       ?erase@?$list@PAU_BLOCKCHANNELOP@CChannelMgr@@V?$allocator@PAU_BLOCKCHANNELOP@CChannelMgr@@@std@@@std@@QAE?AViterator@12@V312@@Z 00411b20 f i ChannelMgr.obj
 0001:00010be0       ?_Prev@_Acc@?$list@PAU_BLOCKCHANNELOP@CChannelMgr@@V?$allocator@PAU_BLOCKCHANNELOP@CChannelMgr@@@std@@@std@@SAAAPAU_Node@23@PAU423@@Z 00411be0 f i ChannelMgr.obj
 0001:00010bf0       ?_Mynode@const_iterator@?$list@PAU_BLOCKCHANNELOP@CChannelMgr@@V?$allocator@PAU_BLOCKCHANNELOP@CChannelMgr@@@std@@@std@@QBEPAU_Node@23@XZ 00411bf0 f i ChannelMgr.obj
 0001:00010c00       ?deallocate@?$allocator@PAU_BLOCKCHANNELOP@CChannelMgr@@@std@@QAEXPAXI@Z 00411c00 f i ChannelMgr.obj
 0001:00010c20       ?destroy@?$allocator@PAU_BLOCKCHANNELOP@CChannelMgr@@@std@@QAEXPAPAU_BLOCKCHANNELOP@CChannelMgr@@@Z 00411c20 f i ChannelMgr.obj
 0001:00010c40       ?_Destroy@std@@YAXPAPAU_BLOCKCHANNELOP@CChannelMgr@@@Z 00411c40 f i ChannelMgr.obj
 0001:00010c50       ??0?$pair@$$CBKV?$map@KUPLAYERINFO@CChannelMgr@@U?$less@K@std@@V?$allocator@UPLAYERINFO@CChannelMgr@@@4@@std@@@std@@QAE@ABU01@@Z 00411c50 f i ChannelMgr.obj
 0001:00010c80       ??0?$pair@$$CBKUCHANNINFO@CChannelMgr@@@std@@QAE@ABU01@@Z 00411c80 f i ChannelMgr.obj
 0001:00010cb0       ??0?$pair@$$CBV?$basic_string@DU?$char_traits@D@std@@V?$allocator@D@2@@std@@K@std@@QAE@ABU01@@Z 00411cb0 f i ChannelMgr.obj
 0001:00010ce0       ?_Iter_cat@std@@YA?AUbidirectional_iterator_tag@1@ABU?$iterator@Ubidirectional_iterator_tag@std@@U?$pair@$$CBKUPLAYERINFO@CChannelMgr@@@2@H@1@@Z 00411ce0 f i ChannelMgr.obj
 0001:00010d00       ?_Distance@std@@YAXViterator@?$_Tree@KU?$pair@$$CBKUPLAYERINFO@CChannelMgr@@@std@@U_Kfn@?$map@KUPLAYERINFO@CChannelMgr@@U?$less@K@std@@V?$allocator@UPLAYERINFO@CChannelMgr@@@4@@2@U?$less@K@2@V?$allocator@UPLAYERINFO@CChannelMgr@@@2@@1@0AAIUbidirectional_iterator_tag@1@@Z 00411d00 f i ChannelMgr.obj
 0001:00010d40       ?_Iter_cat@std@@YA?AUbidirectional_iterator_tag@1@ABU?$iterator@Ubidirectional_iterator_tag@std@@U?$pair@$$CBV?$basic_string@DU?$char_traits@D@std@@V?$allocator@D@2@@std@@K@2@H@1@@Z 00411d40 f i ChannelMgr.obj
 0001:00010d60       ?_Distance@std@@YAXViterator@?$_Tree@V?$basic_string@DU?$char_traits@D@std@@V?$allocator@D@2@@std@@U?$pair@$$CBV?$basic_string@DU?$char_traits@D@std@@V?$allocator@D@2@@std@@K@2@U_Kfn@?$map@V?$basic_string@DU?$char_traits@D@std@@V?$allocator@D@2@@std@@KU_tstring_less@@V?$allocator@K@2@@2@U_tstring_less@@V?$allocator@K@2@@1@0AAIUbidirectional_iterator_tag@1@@Z 00411d60 f i ChannelMgr.obj
 0001:00010da0       ?id@?$ctype@G@std@@$D      00411da0 f i ChannelMgr.obj
 0001:00010dd0       ?id@?$ctype@G@std@@$E      00411dd0 f i ChannelMgr.obj
 0001:00010de0       ??0CChatConnect@@QAE@PAVCChatServer@@K@Z 00411de0 f   ChatConnect.obj
 0001:00010e13       ??1CChatConnect@@UAE@XZ    00411e13 f   ChatConnect.obj
 0001:00010e39       ?OnClientConnectCreate@CChatConnect@@MAEXXZ 00411e39 f   ChatConnect.obj
 0001:00010e63       ?OnClientConnectClose@CChatConnect@@MAEXXZ 00411e63 f   ChatConnect.obj
 0001:00010e8d       ?RecvPackage@CChatConnect@@MAEXPBXI@Z 00411e8d f   ChatConnect.obj
 0001:00010f02       ?Proc0_SomeoneChat@CChatConnect@@AAEXPBXI@Z 00411f02 f   ChatConnect.obj
 0001:00010f3f       ?Proc0_ChannelChat@CChatConnect@@AAEXPBXI@Z 00411f3f f   ChatConnect.obj
 0001:00010f7c       ?Proc0_GroupMan@CChatConnect@@AAEXPBXI@Z 00411f7c f   ChatConnect.obj
 0001:00011180       ?BeginRoute@CNetConnect@@MAEXXZ 00412180 f i ChatConnect.obj
 0001:00011190       ?EndRoute@CNetConnect@@MAEXXZ 00412190 f i ChatConnect.obj
 0001:000111a0       ??_ECChatConnect@@UAEPAXI@Z 004121a0 f i ChatConnect.obj
 0001:000111a0       ??_GCChatConnect@@UAEPAXI@Z 004121a0 f i ChatConnect.obj
 0001:000111d0       ?GetIP@CNetConnect@@QBEKXZ 004121d0 f i ChatConnect.obj
 0001:000111f0       ?_ip2a@@YAPBDK@Z           004121f0 f i ChatConnect.obj
 0001:00011210       ??0CChatServer@@QAE@XZ     00412210 f   ChatServer.obj
 0001:00011280       ??1CChatServer@@UAE@XZ     00412280 f   ChatServer.obj
 0001:000112e3       ?CreateConnect@CChatServer@@MAEPAVCNetConnect@@PAVCNetServer@@K@Z 004122e3 f   ChatServer.obj
 0001:00011357       ?DestroyConnect@CChatServer@@MAEXPAVCNetConnect@@@Z 00412357 f   ChatServer.obj
 0001:00011390       ?OnBuildup@CChatServer@@MAEXXZ 00412390 f   ChatServer.obj
 0001:000113ee       ?OnClearup@CChatServer@@MAEXXZ 004123ee f   ChatServer.obj
 0001:00011457       ?OnClientConnectCreate@CChatServer@@MAEXPAVCNetConnect@@@Z 00412457 f   ChatServer.obj
 0001:000114c9       ?OnClientConnectClose@CChatServer@@MAEXPAVCNetConnect@@@Z 004124c9 f   ChatServer.obj
 0001:00011536       ?FindChatConnectByIP@CChatServer@@QAE?AVCNetConnectDup@@K@Z 00412536 f   ChatServer.obj
 0001:00011635       ?TraceInfo@CChatServer@@QAEHXZ 00412635 f   ChatServer.obj
 0001:00011800       ??_ECChatServer@@UAEPAXI@Z 00412800 f i ChatServer.obj
 0001:00011800       ??_GCChatServer@@UAEPAXI@Z 00412800 f i ChatServer.obj
 0001:00011830       ??1?$map@KPAVCChatConnect@@U?$less@K@std@@V?$allocator@PAVCChatConnect@@@3@@std@@QAE@XZ 00412830 f i ChatServer.obj
 0001:00011850       ??0KAutoLockWrite@@QAE@AAVALock@@@Z 00412850 f i ChatServer.obj
 0001:00011880       ??1KAutoLockWrite@@QAE@XZ  00412880 f i ChatServer.obj
 0001:000118a0       ??0KAutoLockRead@@QAE@AAVALock@@@Z 004128a0 f i ChatServer.obj
 0001:000118d0       ??1KAutoLockRead@@QAE@XZ   004128d0 f i ChatServer.obj
 0001:000118f0       ??0?$map@KPAVCChatConnect@@U?$less@K@std@@V?$allocator@PAVCChatConnect@@@3@@std@@QAE@ABU?$less@K@1@ABV?$allocator@PAVCChatConnect@@@1@@Z 004128f0 f i ChatServer.obj
 0001:00011920       ?begin@?$map@KPAVCChatConnect@@U?$less@K@std@@V?$allocator@PAVCChatConnect@@@3@@std@@QAE?AViterator@?$_Tree@KU?$pair@$$CBKPAVCChatConnect@@@std@@U_Kfn@?$map@KPAVCChatConnect@@U?$less@K@std@@V?$allocator@PAVCChatConnect@@@3@@2@U?$less@K@2@V?$allocator@PAVCChatConnect@@@2@@2@XZ 00412920 f i ChatServer.obj
 0001:00011950       ?end@?$map@KPAVCChatConnect@@U?$less@K@std@@V?$allocator@PAVCChatConnect@@@3@@std@@QAE?AViterator@?$_Tree@KU?$pair@$$CBKPAVCChatConnect@@@std@@U_Kfn@?$map@KPAVCChatConnect@@U?$less@K@std@@V?$allocator@PAVCChatConnect@@@3@@2@U?$less@K@2@V?$allocator@PAVCChatConnect@@@2@@2@XZ 00412950 f i ChatServer.obj
 0001:00011980       ?size@?$map@KPAVCChatConnect@@U?$less@K@std@@V?$allocator@PAVCChatConnect@@@3@@std@@QBEIXZ 00412980 f i ChatServer.obj
 0001:000119a0       ??A?$map@KPAVCChatConnect@@U?$less@K@std@@V?$allocator@PAVCChatConnect@@@3@@std@@QAEAAPAVCChatConnect@@ABK@Z 004129a0 f i ChatServer.obj
 0001:000119f0       ?erase@?$map@KPAVCChatConnect@@U?$less@K@std@@V?$allocator@PAVCChatConnect@@@3@@std@@QAEIABK@Z 004129f0 f i ChatServer.obj
 0001:00011a10       ?clear@?$map@KPAVCChatConnect@@U?$less@K@std@@V?$allocator@PAVCChatConnect@@@3@@std@@QAEXXZ 00412a10 f i ChatServer.obj
 0001:00011a30       ?find@?$map@KPAVCChatConnect@@U?$less@K@std@@V?$allocator@PAVCChatConnect@@@3@@std@@QAE?AViterator@?$_Tree@KU?$pair@$$CBKPAVCChatConnect@@@std@@U_Kfn@?$map@KPAVCChatConnect@@U?$less@K@std@@V?$allocator@PAVCChatConnect@@@3@@2@U?$less@K@2@V?$allocator@PAVCChatConnect@@@2@@2@ABK@Z 00412a30 f i ChatServer.obj
 0001:00011a60       ??1?$_Tree@KU?$pair@$$CBKPAVCChatConnect@@@std@@U_Kfn@?$map@KPAVCChatConnect@@U?$less@K@std@@V?$allocator@PAVCChatConnect@@@3@@2@U?$less@K@2@V?$allocator@PAVCChatConnect@@@2@@std@@QAE@XZ 00412a60 f i ChatServer.obj
 0001:00011b30       ??Diterator@?$_Tree@KU?$pair@$$CBKPAVCChatConnect@@@std@@U_Kfn@?$map@KPAVCChatConnect@@U?$less@K@std@@V?$allocator@PAVCChatConnect@@@3@@2@U?$less@K@2@V?$allocator@PAVCChatConnect@@@2@@std@@QBEAAU?$pair@$$CBKPAVCChatConnect@@@2@XZ 00412b30 f i ChatServer.obj
 0001:00011b50       ??Eiterator@?$_Tree@KU?$pair@$$CBKPAVCChatConnect@@@std@@U_Kfn@?$map@KPAVCChatConnect@@U?$less@K@std@@V?$allocator@PAVCChatConnect@@@3@@2@U?$less@K@2@V?$allocator@PAVCChatConnect@@@2@@std@@QAE?AV012@H@Z 00412b50 f i ChatServer.obj
 0001:00011b80       ??8iterator@?$_Tree@KU?$pair@$$CBKPAVCChatConnect@@@std@@U_Kfn@?$map@KPAVCChatConnect@@U?$less@K@std@@V?$allocator@PAVCChatConnect@@@3@@2@U?$less@K@2@V?$allocator@PAVCChatConnect@@@2@@std@@QBE_NABV012@@Z 00412b80 f i ChatServer.obj
 0001:00011ba0       ??9iterator@?$_Tree@KU?$pair@$$CBKPAVCChatConnect@@@std@@U_Kfn@?$map@KPAVCChatConnect@@U?$less@K@std@@V?$allocator@PAVCChatConnect@@@3@@2@U?$less@K@2@V?$allocator@PAVCChatConnect@@@2@@std@@QBE_NABV012@@Z 00412ba0 f i ChatServer.obj
 0001:00011bd0       ?insert@?$map@KPAVCChatConnect@@U?$less@K@std@@V?$allocator@PAVCChatConnect@@@3@@std@@QAE?AU?$pair@Viterator@?$_Tree@KU?$pair@$$CBKPAVCChatConnect@@@std@@U_Kfn@?$map@KPAVCChatConnect@@U?$less@K@std@@V?$allocator@PAVCChatConnect@@@3@@2@U?$less@K@2@V?$allocator@PAVCChatConnect@@@2@@std@@_N@2@ABU?$pair@$$CBKPAVCChatConnect@@@2@@Z 00412bd0 f i ChatServer.obj
 0001:00011c20       ?_Value@?$_Tree@KU?$pair@$$CBKPAVCChatConnect@@@std@@U_Kfn@?$map@KPAVCChatConnect@@U?$less@K@std@@V?$allocator@PAVCChatConnect@@@3@@2@U?$less@K@2@V?$allocator@PAVCChatConnect@@@2@@std@@KAAAU?$pair@$$CBKPAVCChatConnect@@@2@PAU_Node@12@@Z 00412c20 f i ChatServer.obj
 0001:00011c30       ??0?$_Tree@KU?$pair@$$CBKPAVCChatConnect@@@std@@U_Kfn@?$map@KPAVCChatConnect@@U?$less@K@std@@V?$allocator@PAVCChatConnect@@@3@@2@U?$less@K@2@V?$allocator@PAVCChatConnect@@@2@@std@@QAE@ABU?$less@K@1@_NABV?$allocator@PAVCChatConnect@@@1@@Z 00412c30 f i ChatServer.obj
 0001:00011c70       ?begin@?$_Tree@KU?$pair@$$CBKPAVCChatConnect@@@std@@U_Kfn@?$map@KPAVCChatConnect@@U?$less@K@std@@V?$allocator@PAVCChatConnect@@@3@@2@U?$less@K@2@V?$allocator@PAVCChatConnect@@@2@@std@@QAE?AViterator@12@XZ 00412c70 f i ChatServer.obj
 0001:00011ca0       ?end@?$_Tree@KU?$pair@$$CBKPAVCChatConnect@@@std@@U_Kfn@?$map@KPAVCChatConnect@@U?$less@K@std@@V?$allocator@PAVCChatConnect@@@3@@2@U?$less@K@2@V?$allocator@PAVCChatConnect@@@2@@std@@QAE?AViterator@12@XZ 00412ca0 f i ChatServer.obj
 0001:00011cd0       ?size@?$_Tree@KU?$pair@$$CBKPAVCChatConnect@@@std@@U_Kfn@?$map@KPAVCChatConnect@@U?$less@K@std@@V?$allocator@PAVCChatConnect@@@3@@2@U?$less@K@2@V?$allocator@PAVCChatConnect@@@2@@std@@QBEIXZ 00412cd0 f i ChatServer.obj
 0001:00011cf0       ?erase@?$_Tree@KU?$pair@$$CBKPAVCChatConnect@@@std@@U_Kfn@?$map@KPAVCChatConnect@@U?$less@K@std@@V?$allocator@PAVCChatConnect@@@3@@2@U?$less@K@2@V?$allocator@PAVCChatConnect@@@2@@std@@QAE?AViterator@12@V312@0@Z 00412cf0 f i ChatServer.obj
 0001:00011e30       ?erase@?$_Tree@KU?$pair@$$CBKPAVCChatConnect@@@std@@U_Kfn@?$map@KPAVCChatConnect@@U?$less@K@std@@V?$allocator@PAVCChatConnect@@@3@@2@U?$less@K@2@V?$allocator@PAVCChatConnect@@@2@@std@@QAEIABK@Z 00412e30 f i ChatServer.obj
 0001:00011e90       ?clear@?$_Tree@KU?$pair@$$CBKPAVCChatConnect@@@std@@U_Kfn@?$map@KPAVCChatConnect@@U?$less@K@std@@V?$allocator@PAVCChatConnect@@@3@@2@U?$less@K@2@V?$allocator@PAVCChatConnect@@@2@@std@@QAEXXZ 00412e90 f i ChatServer.obj
 0001:00011ed0       ?find@?$_Tree@KU?$pair@$$CBKPAVCChatConnect@@@std@@U_Kfn@?$map@KPAVCChatConnect@@U?$less@K@std@@V?$allocator@PAVCChatConnect@@@3@@2@U?$less@K@2@V?$allocator@PAVCChatConnect@@@2@@std@@QAE?AViterator@12@ABK@Z 00412ed0 f i ChatServer.obj
 0001:00011f70       ?_Freenode@?$_Tree@KU?$pair@$$CBKPAVCChatConnect@@@std@@U_Kfn@?$map@KPAVCChatConnect@@U?$less@K@std@@V?$allocator@PAVCChatConnect@@@3@@2@U?$less@K@2@V?$allocator@PAVCChatConnect@@@2@@std@@IAEXPAU_Node@12@@Z 00412f70 f i ChatServer.obj
 0001:00011f90       ??0?$pair@$$CBKPAVCChatConnect@@@std@@QAE@ABKABQAVCChatConnect@@@Z 00412f90 f i ChatServer.obj
 0001:00011fc0       ??Eiterator@?$_Tree@KU?$pair@$$CBKPAVCChatConnect@@@std@@U_Kfn@?$map@KPAVCChatConnect@@U?$less@K@std@@V?$allocator@PAVCChatConnect@@@3@@2@U?$less@K@2@V?$allocator@PAVCChatConnect@@@2@@std@@QAEAAV012@XZ 00412fc0 f i ChatServer.obj
 0001:00011fe0       ?deallocate@?$allocator@PAVCChatConnect@@@std@@QAEXPAXI@Z 00412fe0 f i ChatServer.obj
 0001:00012000       ?_Key@?$_Tree@KU?$pair@$$CBKPAVCChatConnect@@@std@@U_Kfn@?$map@KPAVCChatConnect@@U?$less@K@std@@V?$allocator@PAVCChatConnect@@@3@@2@U?$less@K@2@V?$allocator@PAVCChatConnect@@@2@@std@@KAABKPAU_Node@12@@Z 00413000 f i ChatServer.obj
 0001:00012020       ?insert@?$_Tree@KU?$pair@$$CBKPAVCChatConnect@@@std@@U_Kfn@?$map@KPAVCChatConnect@@U?$less@K@std@@V?$allocator@PAVCChatConnect@@@3@@2@U?$less@K@2@V?$allocator@PAVCChatConnect@@@2@@std@@QAE?AU?$pair@Viterator@?$_Tree@KU?$pair@$$CBKPAVCChatConnect@@@std@@U_Kfn@?$map@KPAVCChatConnect@@U?$less@K@std@@V?$allocator@PAVCChatConnect@@@3@@2@U?$less@K@2@V?$allocator@PAVCChatConnect@@@2@@std@@_N@2@ABU?$pair@$$CBKPAVCChatConnect@@@2@@Z 00413020 f i ChatServer.obj
 0001:00012260       ?erase@?$_Tree@KU?$pair@$$CBKPAVCChatConnect@@@std@@U_Kfn@?$map@KPAVCChatConnect@@U?$less@K@std@@V?$allocator@PAVCChatConnect@@@3@@2@U?$less@K@2@V?$allocator@PAVCChatConnect@@@2@@std@@QAE?AViterator@12@V312@@Z 00413260 f i ChatServer.obj
 0001:00012ab0       ?lower_bound@?$_Tree@KU?$pair@$$CBKPAVCChatConnect@@@std@@U_Kfn@?$map@KPAVCChatConnect@@U?$less@K@std@@V?$allocator@PAVCChatConnect@@@3@@2@U?$less@K@2@V?$allocator@PAVCChatConnect@@@2@@std@@QAE?AViterator@12@ABK@Z 00413ab0 f i ChatServer.obj
 0001:00012ae0       ?equal_range@?$_Tree@KU?$pair@$$CBKPAVCChatConnect@@@std@@U_Kfn@?$map@KPAVCChatConnect@@U?$less@K@std@@V?$allocator@PAVCChatConnect@@@3@@2@U?$less@K@2@V?$allocator@PAVCChatConnect@@@2@@std@@QAE?AU?$pair@Viterator@?$_Tree@KU?$pair@$$CBKPAVCChatConnect@@@std@@U_Kfn@?$map@KPAVCChatConnect@@U?$less@K@std@@V?$allocator@PAVCChatConnect@@@3@@2@U?$less@K@2@V?$allocator@PAVCChatConnect@@@2@@std@@V123@@2@ABK@Z 00413ae0 f i ChatServer.obj
 0001:00012b30       ?_Erase@?$_Tree@KU?$pair@$$CBKPAVCChatConnect@@@std@@U_Kfn@?$map@KPAVCChatConnect@@U?$less@K@std@@V?$allocator@PAVCChatConnect@@@3@@2@U?$less@K@2@V?$allocator@PAVCChatConnect@@@2@@std@@IAEXPAU_Node@12@@Z 00413b30 f i ChatServer.obj
 0001:00012be0       ?_Init@?$_Tree@KU?$pair@$$CBKPAVCChatConnect@@@std@@U_Kfn@?$map@KPAVCChatConnect@@U?$less@K@std@@V?$allocator@PAVCChatConnect@@@3@@2@U?$less@K@2@V?$allocator@PAVCChatConnect@@@2@@std@@IAEXXZ 00413be0 f i ChatServer.obj
 0001:00012cc0       ?_Lmost@?$_Tree@KU?$pair@$$CBKPAVCChatConnect@@@std@@U_Kfn@?$map@KPAVCChatConnect@@U?$less@K@std@@V?$allocator@PAVCChatConnect@@@3@@2@U?$less@K@2@V?$allocator@PAVCChatConnect@@@2@@std@@IAEAAPAU_Node@12@XZ 00413cc0 f i ChatServer.obj
 0001:00012ce0       ?_Rmost@?$_Tree@KU?$pair@$$CBKPAVCChatConnect@@@std@@U_Kfn@?$map@KPAVCChatConnect@@U?$less@K@std@@V?$allocator@PAVCChatConnect@@@3@@2@U?$less@K@2@V?$allocator@PAVCChatConnect@@@2@@std@@IAEAAPAU_Node@12@XZ 00413ce0 f i ChatServer.obj
 0001:00012d00       ?_Root@?$_Tree@KU?$pair@$$CBKPAVCChatConnect@@@std@@U_Kfn@?$map@KPAVCChatConnect@@U?$less@K@std@@V?$allocator@PAVCChatConnect@@@3@@2@U?$less@K@2@V?$allocator@PAVCChatConnect@@@2@@std@@IAEAAPAU_Node@12@XZ 00413d00 f i ChatServer.obj
 0001:00012d20       ?_Inc@const_iterator@?$_Tree@KU?$pair@$$CBKPAVCChatConnect@@@std@@U_Kfn@?$map@KPAVCChatConnect@@U?$less@K@std@@V?$allocator@PAVCChatConnect@@@3@@2@U?$less@K@2@V?$allocator@PAVCChatConnect@@@2@@std@@QAEXXZ 00413d20 f i ChatServer.obj
 0001:00012e00       ?_Mynode@const_iterator@?$_Tree@KU?$pair@$$CBKPAVCChatConnect@@@std@@U_Kfn@?$map@KPAVCChatConnect@@U?$less@K@std@@V?$allocator@PAVCChatConnect@@@3@@2@U?$less@K@2@V?$allocator@PAVCChatConnect@@@2@@std@@QBEPAU_Node@23@XZ 00413e00 f i ChatServer.obj
 0001:00012e10       ??0iterator@?$_Tree@KU?$pair@$$CBKPAVCChatConnect@@@std@@U_Kfn@?$map@KPAVCChatConnect@@U?$less@K@std@@V?$allocator@PAVCChatConnect@@@3@@2@U?$less@K@2@V?$allocator@PAVCChatConnect@@@2@@std@@QAE@PAU_Node@12@@Z 00413e10 f i ChatServer.obj
 0001:00012e30       ??0?$pair@Viterator@?$_Tree@KU?$pair@$$CBKPAVCChatConnect@@@std@@U_Kfn@?$map@KPAVCChatConnect@@U?$less@K@std@@V?$allocator@PAVCChatConnect@@@3@@2@U?$less@K@2@V?$allocator@PAVCChatConnect@@@2@@std@@_N@std@@QAE@ABViterator@?$_Tree@KU?$pair@$$CBKPAVCChatConnect@@@std@@U_Kfn@?$map@KPAVCChatConnect@@U?$less@K@std@@V?$allocator@PAVCChatConnect@@@3@@2@U?$less@K@2@V?$allocator@PAVCChatConnect@@@2@@1@AB_N@Z 00413e30 f i ChatServer.obj
 0001:00012e60       ??R_Kfn@?$map@KPAVCChatConnect@@U?$less@K@std@@V?$allocator@PAVCChatConnect@@@3@@std@@QBEABKABU?$pair@$$CBKPAVCChatConnect@@@2@@Z 00413e60 f i ChatServer.obj
 0001:00012e70       ?_Color@?$_Tree@KU?$pair@$$CBKPAVCChatConnect@@@std@@U_Kfn@?$map@KPAVCChatConnect@@U?$less@K@std@@V?$allocator@PAVCChatConnect@@@3@@2@U?$less@K@2@V?$allocator@PAVCChatConnect@@@2@@std@@KAAAW4_Redbl@12@PAU_Node@12@@Z 00413e70 f i ChatServer.obj
 0001:00012e80       ?_Left@?$_Tree@KU?$pair@$$CBKPAVCChatConnect@@@std@@U_Kfn@?$map@KPAVCChatConnect@@U?$less@K@std@@V?$allocator@PAVCChatConnect@@@3@@2@U?$less@K@2@V?$allocator@PAVCChatConnect@@@2@@std@@KAAAPAU_Node@12@PAU312@@Z 00413e80 f i ChatServer.obj
 0001:00012e90       ?_Parent@?$_Tree@KU?$pair@$$CBKPAVCChatConnect@@@std@@U_Kfn@?$map@KPAVCChatConnect@@U?$less@K@std@@V?$allocator@PAVCChatConnect@@@3@@2@U?$less@K@2@V?$allocator@PAVCChatConnect@@@2@@std@@KAAAPAU_Node@12@PAU312@@Z 00413e90 f i ChatServer.obj
 0001:00012ea0       ?_Right@?$_Tree@KU?$pair@$$CBKPAVCChatConnect@@@std@@U_Kfn@?$map@KPAVCChatConnect@@U?$less@K@std@@V?$allocator@PAVCChatConnect@@@3@@2@U?$less@K@2@V?$allocator@PAVCChatConnect@@@2@@std@@KAAAPAU_Node@12@PAU312@@Z 00413ea0 f i ChatServer.obj
 0001:00012eb0       ?upper_bound@?$_Tree@KU?$pair@$$CBKPAVCChatConnect@@@std@@U_Kfn@?$map@KPAVCChatConnect@@U?$less@K@std@@V?$allocator@PAVCChatConnect@@@3@@2@U?$less@K@2@V?$allocator@PAVCChatConnect@@@2@@std@@QAE?AViterator@12@ABK@Z 00413eb0 f i ChatServer.obj
 0001:00012ee0       ?_Insert@?$_Tree@KU?$pair@$$CBKPAVCChatConnect@@@std@@U_Kfn@?$map@KPAVCChatConnect@@U?$less@K@std@@V?$allocator@PAVCChatConnect@@@3@@2@U?$less@K@2@V?$allocator@PAVCChatConnect@@@2@@std@@IAE?AViterator@12@PAU_Node@12@0ABU?$pair@$$CBKPAVCChatConnect@@@2@@Z 00413ee0 f i ChatServer.obj
 0001:000133b0       ?_Lbound@?$_Tree@KU?$pair@$$CBKPAVCChatConnect@@@std@@U_Kfn@?$map@KPAVCChatConnect@@U?$less@K@std@@V?$allocator@PAVCChatConnect@@@3@@2@U?$less@K@2@V?$allocator@PAVCChatConnect@@@2@@std@@IBEPAU_Node@12@ABK@Z 004143b0 f i ChatServer.obj
 0001:00013480       ?_Lrotate@?$_Tree@KU?$pair@$$CBKPAVCChatConnect@@@std@@U_Kfn@?$map@KPAVCChatConnect@@U?$less@K@std@@V?$allocator@PAVCChatConnect@@@3@@2@U?$less@K@2@V?$allocator@PAVCChatConnect@@@2@@std@@IAEXPAU_Node@12@@Z 00414480 f i ChatServer.obj
 0001:000135f0       ?_Max@?$_Tree@KU?$pair@$$CBKPAVCChatConnect@@@std@@U_Kfn@?$map@KPAVCChatConnect@@U?$less@K@std@@V?$allocator@PAVCChatConnect@@@3@@2@U?$less@K@2@V?$allocator@PAVCChatConnect@@@2@@std@@KAPAU_Node@12@PAU312@@Z 004145f0 f i ChatServer.obj
 0001:00013670       ?_Min@?$_Tree@KU?$pair@$$CBKPAVCChatConnect@@@std@@U_Kfn@?$map@KPAVCChatConnect@@U?$less@K@std@@V?$allocator@PAVCChatConnect@@@3@@2@U?$less@K@2@V?$allocator@PAVCChatConnect@@@2@@std@@KAPAU_Node@12@PAU312@@Z 00414670 f i ChatServer.obj
 0001:000136f0       ?_Rrotate@?$_Tree@KU?$pair@$$CBKPAVCChatConnect@@@std@@U_Kfn@?$map@KPAVCChatConnect@@U?$less@K@std@@V?$allocator@PAVCChatConnect@@@3@@2@U?$less@K@2@V?$allocator@PAVCChatConnect@@@2@@std@@IAEXPAU_Node@12@@Z 004146f0 f i ChatServer.obj
 0001:00013860       ?_Buynode@?$_Tree@KU?$pair@$$CBKPAVCChatConnect@@@std@@U_Kfn@?$map@KPAVCChatConnect@@U?$less@K@std@@V?$allocator@PAVCChatConnect@@@3@@2@U?$less@K@2@V?$allocator@PAVCChatConnect@@@2@@std@@IAEPAU_Node@12@PAU312@W4_Redbl@12@@Z 00414860 f i ChatServer.obj
 0001:000138b0       ?_Destval@?$_Tree@KU?$pair@$$CBKPAVCChatConnect@@@std@@U_Kfn@?$map@KPAVCChatConnect@@U?$less@K@std@@V?$allocator@PAVCChatConnect@@@3@@2@U?$less@K@2@V?$allocator@PAVCChatConnect@@@2@@std@@IAEXPAU?$pair@$$CBKPAVCChatConnect@@@2@@Z 004148b0 f i ChatServer.obj
 0001:000138d0       ??0const_iterator@?$_Tree@KU?$pair@$$CBKPAVCChatConnect@@@std@@U_Kfn@?$map@KPAVCChatConnect@@U?$less@K@std@@V?$allocator@PAVCChatConnect@@@3@@2@U?$less@K@2@V?$allocator@PAVCChatConnect@@@2@@std@@QAE@PAU_Node@12@@Z 004148d0 f i ChatServer.obj
 0001:000138f0       ??Fiterator@?$_Tree@KU?$pair@$$CBKPAVCChatConnect@@@std@@U_Kfn@?$map@KPAVCChatConnect@@U?$less@K@std@@V?$allocator@PAVCChatConnect@@@3@@2@U?$less@K@2@V?$allocator@PAVCChatConnect@@@2@@std@@QAEAAV012@XZ 004148f0 f i ChatServer.obj
 0001:00013910       ??0?$pair@Viterator@?$_Tree@KU?$pair@$$CBKPAVCChatConnect@@@std@@U_Kfn@?$map@KPAVCChatConnect@@U?$less@K@std@@V?$allocator@PAVCChatConnect@@@3@@2@U?$less@K@2@V?$allocator@PAVCChatConnect@@@2@@std@@V123@@std@@QAE@ABViterator@?$_Tree@KU?$pair@$$CBKPAVCChatConnect@@@std@@U_Kfn@?$map@KPAVCChatConnect@@U?$less@K@std@@V?$allocator@PAVCChatConnect@@@3@@2@U?$less@K@2@V?$allocator@PAVCChatConnect@@@2@@1@0@Z 00414910 f i ChatServer.obj
 0001:00013940       ?_Charalloc@?$allocator@PAVCChatConnect@@@std@@QAEPADI@Z 00414940 f i ChatServer.obj
 0001:00013960       ?_Root@?$_Tree@KU?$pair@$$CBKPAVCChatConnect@@@std@@U_Kfn@?$map@KPAVCChatConnect@@U?$less@K@std@@V?$allocator@PAVCChatConnect@@@3@@2@U?$less@K@2@V?$allocator@PAVCChatConnect@@@2@@std@@IBEAAPAU_Node@12@XZ 00414960 f i ChatServer.obj
 0001:00013980       ?_Ubound@?$_Tree@KU?$pair@$$CBKPAVCChatConnect@@@std@@U_Kfn@?$map@KPAVCChatConnect@@U?$less@K@std@@V?$allocator@PAVCChatConnect@@@3@@2@U?$less@K@2@V?$allocator@PAVCChatConnect@@@2@@std@@IBEPAU_Node@12@ABK@Z 00414980 f i ChatServer.obj
 0001:00013a50       ?_Consval@?$_Tree@KU?$pair@$$CBKPAVCChatConnect@@@std@@U_Kfn@?$map@KPAVCChatConnect@@U?$less@K@std@@V?$allocator@PAVCChatConnect@@@3@@2@U?$less@K@2@V?$allocator@PAVCChatConnect@@@2@@std@@IAEXPAU?$pair@$$CBKPAVCChatConnect@@@2@ABU32@@Z 00414a50 f i ChatServer.obj
 0001:00013a70       ?_Dec@const_iterator@?$_Tree@KU?$pair@$$CBKPAVCChatConnect@@@std@@U_Kfn@?$map@KPAVCChatConnect@@U?$less@K@std@@V?$allocator@PAVCChatConnect@@@3@@2@U?$less@K@2@V?$allocator@PAVCChatConnect@@@2@@std@@QAEXXZ 00414a70 f i ChatServer.obj
 0001:00013b80       ?_Distance@std@@YAXViterator@?$_Tree@KU?$pair@$$CBKPAVCChatConnect@@@std@@U_Kfn@?$map@KPAVCChatConnect@@U?$less@K@std@@V?$allocator@PAVCChatConnect@@@3@@2@U?$less@K@2@V?$allocator@PAVCChatConnect@@@2@@1@0AAI@Z 00414b80 f i ChatServer.obj
 0001:00013bb0       ?swap@std@@YAXAAW4_Redbl@?$_Tree@KU?$pair@$$CBKPAVCChatConnect@@@std@@U_Kfn@?$map@KPAVCChatConnect@@U?$less@K@std@@V?$allocator@PAVCChatConnect@@@3@@2@U?$less@K@2@V?$allocator@PAVCChatConnect@@@2@@1@0@Z 00414bb0 f i ChatServer.obj
 0001:00013be0       ?_Destroy@std@@YAXPAU?$pair@$$CBKPAVCChatConnect@@@1@@Z 00414be0 f i ChatServer.obj
 0001:00013bf0       ?_Construct@std@@YAXPAU?$pair@$$CBKPAVCChatConnect@@@1@ABU21@@Z 00414bf0 f i ChatServer.obj
 0001:00013c30       ?_Iter_cat@std@@YA?AUbidirectional_iterator_tag@1@ABU?$iterator@Ubidirectional_iterator_tag@std@@U?$pair@$$CBKPAVCChatConnect@@@2@H@1@@Z 00414c30 f i ChatServer.obj
 0001:00013c50       ?_Distance@std@@YAXViterator@?$_Tree@KU?$pair@$$CBKPAVCChatConnect@@@std@@U_Kfn@?$map@KPAVCChatConnect@@U?$less@K@std@@V?$allocator@PAVCChatConnect@@@3@@2@U?$less@K@2@V?$allocator@PAVCChatConnect@@@2@@1@0AAIUbidirectional_iterator_tag@1@@Z 00414c50 f i ChatServer.obj
 0001:00013c90       ??0CDBCenter@@QAE@XZ       00414c90 f   DBConnect.obj
 0001:00013caf       ??1CDBCenter@@UAE@XZ       00414caf f   DBConnect.obj
 0001:00013ccb       ?TraceInfo@CDBCenter@@QAEHXZ 00414ccb f   DBConnect.obj
 0001:00013db6       ??0CDBClient@@QAE@PAVCDBCenter@@H@Z 00414db6 f   DBConnect.obj
 0001:00013ddf       ??1CDBClient@@UAE@XZ       00414ddf f   DBConnect.obj
 0001:00013dfb       ?OnServerEventCreate@CDBClient@@MAEXXZ 00414dfb f   DBConnect.obj
 0001:00013e2f       ?OnServerEventClose@CDBClient@@MAEXXZ 00414e2f f   DBConnect.obj
 0001:00013e63       ?RecvPackage@CDBClient@@MAEXPBXI@Z 00414e63 f   DBConnect.obj
 0001:00014050       ?OnBuildup@CNetCenter@@MAEXXZ 00415050 f i DBConnect.obj
 0001:00014060       ?OnClearup@CNetCenter@@MAEXXZ 00415060 f i DBConnect.obj
 0001:00014070       ?OnServerEventCreate@CNetCenter@@MAEXPAVCNetClient@@@Z 00415070 f i DBConnect.obj
 0001:00014080       ?OnServerEventClose@CNetCenter@@MAEXPAVCNetClient@@@Z 00415080 f i DBConnect.obj
 0001:00014090       ??_ECDBCenter@@UAEPAXI@Z   00415090 f i DBConnect.obj
 0001:00014090       ??_GCDBCenter@@UAEPAXI@Z   00415090 f i DBConnect.obj
 0001:000140c0       ?GetSvrIP@CNetClient@@QBEKXZ 004150c0 f i DBConnect.obj
 0001:000140e0       ?OnStartupFail@CNetClient@@MAEXXZ 004150e0 f i DBConnect.obj
 0001:000140f0       ?OnShutdownFail@CNetClient@@MAEXXZ 004150f0 f i DBConnect.obj
 0001:00014100       ?BeginRoute@CNetClient@@MAEXXZ 00415100 f i DBConnect.obj
 0001:00014110       ?EndRoute@CNetClient@@MAEXXZ 00415110 f i DBConnect.obj
 0001:00014120       ?DeleteThis@CNetClient@@MAEXXZ 00415120 f i DBConnect.obj
 0001:00014130       ??_GCDBClient@@UAEPAXI@Z   00415130 f i DBConnect.obj
 0001:00014130       ??_ECDBClient@@UAEPAXI@Z   00415130 f i DBConnect.obj
 0001:00014160       ??0CDBDump@@QAE@XZ         00415160 f   DBDumpLoad.obj
 0001:000141a4       ?Open@CDBDump@@QAE_NPAD@Z  004151a4 f   DBDumpLoad.obj
 0001:00014244       ?Close@CDBDump@@QAE_NXZ    00415244 f   DBDumpLoad.obj
 0001:000142ab       ?AddData@CDBDump@@QAE_NPADI0I@Z 004152ab f   DBDumpLoad.obj
 0001:000143da       ??0CDBLoad@@QAE@XZ         004153da f   DBDumpLoad.obj
 0001:0001441e       ?Open@CDBLoad@@QAE_NPAD@Z  0041541e f   DBDumpLoad.obj
 0001:000144be       ?Close@CDBLoad@@QAE_NXZ    004154be f   DBDumpLoad.obj
 0001:00014525       ?ReadData@CDBLoad@@QAE_NPADAAI01@Z 00415525 f   DBDumpLoad.obj
 0001:000145e2       ?GotoHead@CDBLoad@@QAEXXZ  004155e2 f   DBDumpLoad.obj
 0001:00014620       ?SearchData@CDBLoad@@QAE_NPAD0AAI@Z 00415620 f   DBDumpLoad.obj
 0001:00014700       ??_GCDBDump@@UAEPAXI@Z     00415700 f i DBDumpLoad.obj
 0001:00014700       ??_ECDBDump@@UAEPAXI@Z     00415700 f i DBDumpLoad.obj
 0001:00014730       ??1CDBDump@@UAE@XZ         00415730 f i DBDumpLoad.obj
 0001:00014750       ??_ECDBLoad@@UAEPAXI@Z     00415750 f i DBDumpLoad.obj
 0001:00014750       ??_GCDBLoad@@UAEPAXI@Z     00415750 f i DBDumpLoad.obj
 0001:00014780       ??1CDBLoad@@UAE@XZ         00415780 f i DBDumpLoad.obj
 0001:000147a0       ??0ZDBTable@@QAE@PBD0@Z    004157a0 f   DBTable.obj
 0001:000148de       ??1ZDBTable@@UAE@XZ        004158de f   DBTable.obj
 0001:0001491c       ?addIndex@ZDBTable@@QAEHP6AHPAU__db@@PBU__db_dbt@@1PAU3@@Z_N@Z 0041591c f   DBTable.obj
 0001:0001499d       ?open@ZDBTable@@QAE_NXZ    0041599d f   DBTable.obj
 0001:00014c55       ?close@ZDBTable@@QAEXXZ    00415c55 f   DBTable.obj
 0001:00014cca       ?commit@ZDBTable@@QAE_NXZ  00415cca f   DBTable.obj
 0001:00014cd7       ?add@ZDBTable@@QAE_NPBDH0H@Z 00415cd7 f   DBTable.obj
 0001:00014d4d       ?remove@ZDBTable@@QAE_NPBDHH@Z 00415d4d f   DBTable.obj
 0001:00014db3       ?_search@ZDBTable@@IAEPAD_NPBDHAAHH@Z 00415db3 f   DBTable.obj
 0001:00015070       ?_next@ZDBTable@@IAEPAD_NAAH@Z 00416070 f   DBTable.obj
 0001:000151fa       ?GetRecord@ZDBTable@@QAEPADAAHW4CursorPointer@1@H@Z 004161fa f   DBTable.obj
 0001:00015316       ?GetRecord_key@ZDBTable@@QAEPADAAHW4CursorPointer@1@H@Z 00416316 f   DBTable.obj
 0001:00015432       ?GetRecordEx@ZDBTable@@QAE_NPADAAH01W4CursorPointer@1@H@Z 00416432 f   DBTable.obj
 0001:00015554       ??0CDBTableReadOnly@@QAE@PBD0@Z 00416554 f   DBTable.obj
 0001:0001567f       ??1CDBTableReadOnly@@UAE@XZ 0041667f f   DBTable.obj
 0001:000156bd       ?open@CDBTableReadOnly@@QAE_NXZ 004166bd f   DBTable.obj
 0001:0001572b       ?close@CDBTableReadOnly@@QAEXXZ 0041672b f   DBTable.obj
 0001:0001575c       ?_search@CDBTableReadOnly@@IAEPAD_NPBDHAAH@Z 0041675c f   DBTable.obj
 0001:0001584e       ?_next@CDBTableReadOnly@@IAEPAD_NAAH@Z 0041684e f   DBTable.obj
 0001:000159b7       ?GetRecord@CDBTableReadOnly@@QAEPADAAHW4CursorPointer@1@@Z 004169b7 f   DBTable.obj
 0001:00015ab3       ?GetRecord_key@CDBTableReadOnly@@QAEPADAAHW4CursorPointer@1@@Z 00416ab3 f   DBTable.obj
 0001:00015baf       ?GetRecordEx@CDBTableReadOnly@@QAE_NPADAAH01W4CursorPointer@1@@Z 00416baf f   DBTable.obj
 0001:00015ce0       ??_EZDBTable@@UAEPAXI@Z    00416ce0 f i DBTable.obj
 0001:00015ce0       ??_GZDBTable@@UAEPAXI@Z    00416ce0 f i DBTable.obj
 0001:00015d10       ??_GCDBTableReadOnly@@UAEPAXI@Z 00416d10 f i DBTable.obj
 0001:00015d10       ??_ECDBTableReadOnly@@UAEPAXI@Z 00416d10 f i DBTable.obj
 0001:00015d40       ?_Proc2_Relay_AskWay_AccountRoleID@dealrelay@@YAXABVCNetSockDupEx@@PBXI@Z 00416d40 f   DealRelay.obj
 0001:00015ea6       ?_Proc1_Relay_Data@dealrelay@@YAXABVCNetSockDupEx@@PBXI@Z 00416ea6 f   DealRelay.obj
 0001:00015fd2       ?_Proc1_Relay_AskWay@dealrelay@@YAXABVCNetSockDupEx@@PBXI@Z 00416fd2 f   DealRelay.obj
 0001:00016002       ?_Proc1_Relay_LoseWay@dealrelay@@YAXABVCNetSockDupEx@@PBXI@Z 00417002 f   DealRelay.obj
 0001:000160fb       ?_Proc0_Relay@dealrelay@@YAXABVCNetSockDupEx@@PBXI@Z 004170fb f   DealRelay.obj
 0001:00016170       ?_RecvPackage@dealrelay@@YAXABVCNetSockDupEx@@PBXI@Z 00417170 f   DealRelay.obj
 0001:0001619e       ?DoRecvPackage@dealrelay@@YAXPAVCRelayConnect@@PBXI@Z 0041719e f   DealRelay.obj
 0001:0001622b       ?DoRecvPackage@dealrelay@@YAXPAVCRelayClient@@PBXI@Z 0041722b f   DealRelay.obj
 0001:000162b8       ?FindRelaySockByIP@dealrelay@@YA?AVCNetSockDupEx@@K@Z 004172b8 f   DealRelay.obj
 0001:000163b5       ?BroadPackage@dealrelay@@YAHPBXI@Z 004173b5 f   DealRelay.obj
 0001:00016410       ??1CNetClientDup@@UAE@XZ   00417410 f i DealRelay.obj
 0001:00016440       ??_ECNetClientDup@@UAEPAXI@Z 00417440 f i DealRelay.obj
 0001:00016440       ??_GCNetClientDup@@UAEPAXI@Z 00417440 f i DealRelay.obj
 0001:00016470       ??0CNetClientDup@@QAE@XZ   00417470 f i DealRelay.obj
 0001:000164a0       ?_SafeRelease@@YAXAAPAUIClient@@@Z 004174a0 f i DealRelay.obj
 0001:000164d0       ?BroadGlobal@@YAXPBXIKK@Z  004174d0 f   DoScript.obj
 0001:0001659d       ?BroadGame@@YAXKPBXIKK@Z   0041759d f   DoScript.obj
 0001:000166d4       ?RootSend@@YAXKKPBXI@Z     004176d4 f   DoScript.obj
 0001:000167d1       ?LuaGlobalExecute@@YAHPAUlua_State@@@Z 004177d1 f   DoScript.obj
 0001:000168db       ?LuaGameExecute@@YAHPAUlua_State@@@Z 004178db f   DoScript.obj
 0001:00016a09       ?LuaMsg2IP@@YAHPAUlua_State@@@Z 00417a09 f   DoScript.obj
 0001:00016bde       ?LuaGetIP@@YAHPAUlua_State@@@Z 00417bde f   DoScript.obj
 0001:00016cb8       ?g_GetGameScriptFunNum@@YAHXZ 00417cb8 f   DoScript.obj
 0001:00016cc2       ?InitScript@@YAHXZ         00417cc2 f   DoScript.obj
 0001:00016cf9       ?ExcuteScript@@YAHKKPBD@Z  00417cf9 f   DoScript.obj
 0001:00016d4f       ?UninitScript@@YAHXZ       00417d4f f   DoScript.obj
 0001:00016d80       ?IsValid@CNetSockDupEx@@QBEHXZ 00417d80 f i DoScript.obj
 0001:00016dc0       ?IsValid@CNetClientDup@@QBEHXZ 00417dc0 f i DoScript.obj
 0001:00016de0       ?_a2ip@@YAKPBD@Z           00417de0 f i DoScript.obj
 0001:00016e9c       ??0CFriendMgr@@QAE@XZ      00417e9c f   FriendMgr.obj
 0001:00016fbd       ??1CFriendMgr@@UAE@XZ      00417fbd f   FriendMgr.obj
 0001:00017068       ?Initialize@CFriendMgr@@QAEHXZ 00418068 f   FriendMgr.obj
 0001:000171c6       ?Uninitialize@CFriendMgr@@QAEHXZ 004181c6 f   FriendMgr.obj
 0001:00017327       ?SomeoneLogin@CFriendMgr@@QAEHABV?$basic_string@DU?$char_traits@D@std@@V?$allocator@D@2@@std@@@Z 00418327 f   FriendMgr.obj
 0001:000178c3       ?SomeoneLogout@CFriendMgr@@QAEHABV?$basic_string@DU?$char_traits@D@std@@V?$allocator@D@2@@std@@@Z 004188c3 f   FriendMgr.obj
 0001:00017ba9       ?SomeoneSyncFriends@CFriendMgr@@QAEHABV?$basic_string@DU?$char_traits@D@std@@V?$allocator@D@2@@std@@KKABVCNetConnectDup@@HE@Z 00418ba9 f   FriendMgr.obj
 0001:000181d3       ?PlayerAddFriend@CFriendMgr@@QAEHABV?$basic_string@DU?$char_traits@D@std@@V?$allocator@D@2@@std@@0@Z 004191d3 f   FriendMgr.obj
 0001:000182dd       ?PlayerDelFriend@CFriendMgr@@QAEHABV?$basic_string@DU?$char_traits@D@std@@V?$allocator@D@2@@std@@0@Z 004192dd f   FriendMgr.obj
 0001:00018567       ?PlayerIsFriend@CFriendMgr@@QAEHABV?$basic_string@DU?$char_traits@D@std@@V?$allocator@D@2@@std@@0H@Z 00419567 f   FriendMgr.obj
 0001:000186d4       ?SetFriendGroup@CFriendMgr@@QAEHABV?$basic_string@DU?$char_traits@D@std@@V?$allocator@D@2@@std@@00@Z 004196d4 f   FriendMgr.obj
 0001:0001888b       ?GetFriendGroup@CFriendMgr@@QAE?AV?$basic_string@DU?$char_traits@D@std@@V?$allocator@D@2@@std@@ABV23@0@Z 0041988b f   FriendMgr.obj
 0001:00018a59       ?TrackAddFriend@CFriendMgr@@QAEHABV?$basic_string@DU?$char_traits@D@std@@V?$allocator@D@2@@std@@0E@Z 00419a59 f   FriendMgr.obj
 0001:00018b09       ?ExtractAddFriend@CFriendMgr@@QAEHABV?$basic_string@DU?$char_traits@D@std@@V?$allocator@D@2@@std@@0E@Z 00419b09 f   FriendMgr.obj
 0001:00018c38       ?TidyAddFriend@CFriendMgr@@QAEHXZ 00419c38 f   FriendMgr.obj
 0001:00018c48       ?_LoadSomeone@CFriendMgr@@AAE?AViterator@?$_Tree@V?$basic_string@DU?$char_traits@D@std@@V?$allocator@D@2@@std@@U?$pair@$$CBV?$basic_string@DU?$char_traits@D@std@@V?$allocator@D@2@@std@@UPLAYERINFO@CFriendMgr@@@2@U_Kfn@?$map@V?$basic_string@DU?$char_traits@D@std@@V?$allocator@D@2@@std@@UPLAYERINFO@CFriendMgr@@U_tstring_less@@V?$allocator@UPLAYERINFO@CFriendMgr@@@2@@2@U_tstring_less@@V?$allocator@UPLAYERINFO@CFriendMgr@@@2@@std@@ABV?$basic_string@DU?$char_traits@D@std@@V?$allocator@D@2@@4@@Z 00419c48 f   FriendMgr.obj
 0001:00019078       ?_StoreSomeone@CFriendMgr@@AAEHViterator@?$_Tree@V?$basic_string@DU?$char_traits@D@std@@V?$allocator@D@2@@std@@U?$pair@$$CBV?$basic_string@DU?$char_traits@D@std@@V?$allocator@D@2@@std@@UPLAYERINFO@CFriendMgr@@@2@U_Kfn@?$map@V?$basic_string@DU?$char_traits@D@std@@V?$allocator@D@2@@std@@UPLAYERINFO@CFriendMgr@@U_tstring_less@@V?$allocator@UPLAYERINFO@CFriendMgr@@@2@@2@U_tstring_less@@V?$allocator@UPLAYERINFO@CFriendMgr@@@2@@std@@@Z 0041a078 f   FriendMgr.obj
 0001:00019380       ?NameToDBKey@CFriendMgr@@AAE?AV?$basic_string@DU?$char_traits@D@std@@V?$allocator@D@2@@std@@ABV23@@Z 0041a380 f   FriendMgr.obj
 0001:000193ae       ?DB_AddSomeone@CFriendMgr@@AAEHABV?$basic_string@DU?$char_traits@D@std@@V?$allocator@D@2@@std@@ABV?$list@UMEM_FRIENDRECORD@CFriendMgr@@V?$allocator@UMEM_FRIENDRECORD@CFriendMgr@@@std@@@3@@Z 0041a3ae f   FriendMgr.obj
 0001:000193cb       ?DB_DeleteSomeone@CFriendMgr@@AAEHABV?$basic_string@DU?$char_traits@D@std@@V?$allocator@D@2@@std@@@Z 0041a3cb f   FriendMgr.obj
 0001:0001946d       ?DB_LoadSomeone@CFriendMgr@@AAEHABV?$basic_string@DU?$char_traits@D@std@@V?$allocator@D@2@@std@@PAV?$list@UMEM_FRIENDRECORD@CFriendMgr@@V?$allocator@UMEM_FRIENDRECORD@CFriendMgr@@@std@@@3@@Z 0041a46d f   FriendMgr.obj
 0001:000195ff       ?DB_StoreSomeone@CFriendMgr@@AAEHABV?$basic_string@DU?$char_traits@D@std@@V?$allocator@D@2@@std@@ABV?$list@UMEM_FRIENDRECORD@CFriendMgr@@V?$allocator@UMEM_FRIENDRECORD@CFriendMgr@@@std@@@3@@Z 0041a5ff f   FriendMgr.obj
 0001:00019815       ?BkgrndUpdateDB@CFriendMgr@@QAEHXZ 0041a815 f   FriendMgr.obj
 0001:0001a0b6       ?GetPlayerCount@CFriendMgr@@QAEIXZ 0041b0b6 f   FriendMgr.obj
 0001:0001a118       ?GetAFQSize@CFriendMgr@@QAEIXZ 0041b118 f   FriendMgr.obj
 0001:0001a17a       ?PlayerAssociate@CFriendMgr@@QAEHABV?$basic_string@DU?$char_traits@D@std@@V?$allocator@D@2@@std@@00E@Z 0041b17a f   FriendMgr.obj
 0001:0001a29b       ?PlayerAssociateBevy@CFriendMgr@@QAEHABV?$vector@V?$basic_string@DU?$char_traits@D@std@@V?$allocator@D@2@@std@@V?$allocator@V?$basic_string@DU?$char_traits@D@std@@V?$allocator@D@2@@std@@@2@@std@@ABV?$basic_string@DU?$char_traits@D@std@@V?$allocator@D@2@@3@@Z 0041b29b f   FriendMgr.obj
 0001:0001a610       ??_ECFriendMgr@@UAEPAXI@Z  0041b610 f i FriendMgr.obj
 0001:0001a610       ??_GCFriendMgr@@UAEPAXI@Z  0041b610 f i FriendMgr.obj
 0001:0001a640       ??1?$map@V?$basic_string@DU?$char_traits@D@std@@V?$allocator@D@2@@std@@UPLAYERINFO@CFriendMgr@@U_tstring_less@@V?$allocator@UPLAYERINFO@CFriendMgr@@@2@@std@@QAE@XZ 0041b640 f i FriendMgr.obj
 0001:0001a660       ??1?$map@UADDFRIENDKEY@CFriendMgr@@UADDFRIENDVALUE@2@U?$less@UADDFRIENDKEY@CFriendMgr@@@std@@V?$allocator@UADDFRIENDVALUE@CFriendMgr@@@5@@std@@QAE@XZ 0041b660 f i FriendMgr.obj
 0001:0001a680       ??4CNetConnectDup@@QAEAAV0@ABV0@@Z 0041b680 f i FriendMgr.obj
 0001:0001a6e0       ??1?$map@KV?$list@UtagPlusSrcInfo@@V?$allocator@UtagPlusSrcInfo@@@std@@@std@@U?$less@K@2@V?$allocator@V?$list@UtagPlusSrcInfo@@V?$allocator@UtagPlusSrcInfo@@@std@@@std@@@2@@std@@QAE@XZ 0041b6e0 f i FriendMgr.obj
 0001:0001a700       ??1?$map@V?$basic_string@DU?$char_traits@D@std@@V?$allocator@D@2@@std@@V?$list@U?$pair@EV?$basic_string@DU?$char_traits@D@std@@V?$allocator@D@2@@std@@@std@@V?$allocator@U?$pair@EV?$basic_string@DU?$char_traits@D@std@@V?$allocator@D@2@@std@@@std@@@2@@2@U_tstring_less@@V?$allocator@V?$list@U?$pair@EV?$basic_string@DU?$char_traits@D@std@@V?$allocator@D@2@@std@@@std@@V?$allocator@U?$pair@EV?$basic_string@DU?$char_traits@D@std@@V?$allocator@D@2@@std@@@std@@@2@@std@@@2@@std@@QAE@XZ 0041b700 f i FriendMgr.obj
 0001:0001a720       ??1?$pair@EV?$basic_string@DU?$char_traits@D@std@@V?$allocator@D@2@@std@@@std@@QAE@XZ 0041b720 f i FriendMgr.obj
 0001:0001a740       ??0?$pair@EV?$basic_string@DU?$char_traits@D@std@@V?$allocator@D@2@@std@@@std@@QAE@ABU01@@Z 0041b740 f i FriendMgr.obj
 0001:0001a770       ??0ADDFRIENDKEY@CFriendMgr@@QAE@EABV?$basic_string@DU?$char_traits@D@std@@V?$allocator@D@2@@std@@@Z 0041b770 f i FriendMgr.obj
 0001:0001a7a0       ??1ADDFRIENDKEY@CFriendMgr@@QAE@XZ 0041b7a0 f i FriendMgr.obj
 0001:0001a7c0       ??0FRIENDINFO@CFriendMgr@@QAE@XZ 0041b7c0 f i FriendMgr.obj
 0001:0001a810       ??0PLAYERINFO@CFriendMgr@@QAE@XZ 0041b810 f i FriendMgr.obj
 0001:0001a850       ??1PLAYERINFO@CFriendMgr@@QAE@XZ 0041b850 f i FriendMgr.obj
 0001:0001a870       ??1?$map@V?$basic_string@DU?$char_traits@D@std@@V?$allocator@D@2@@std@@UFRIENDINFO@CFriendMgr@@U_tstring_less@@V?$allocator@UFRIENDINFO@CFriendMgr@@@2@@std@@QAE@XZ 0041b870 f i FriendMgr.obj
 0001:0001a890       ??1?$pair@$$CBV?$basic_string@DU?$char_traits@D@std@@V?$allocator@D@2@@std@@UPLAYERINFO@CFriendMgr@@@std@@QAE@XZ 0041b890 f i FriendMgr.obj
 0001:0001a8e0       ??1FRIENDINFO@CFriendMgr@@QAE@XZ 0041b8e0 f i FriendMgr.obj
 0001:0001a900       ??1?$pair@$$CBV?$basic_string@DU?$char_traits@D@std@@V?$allocator@D@2@@std@@UFRIENDINFO@CFriendMgr@@@std@@QAE@XZ 0041b900 f i FriendMgr.obj
 0001:0001a950       ??0MEM_FRIENDRECORD@CFriendMgr@@QAE@XZ 0041b950 f i FriendMgr.obj
 0001:0001a9b0       ??1MEM_FRIENDRECORD@CFriendMgr@@QAE@XZ 0041b9b0 f i FriendMgr.obj
 0001:0001aa00       ?search@CDBTableReadOnly@@QAEPADPBDHAAH@Z 0041ba00 f i FriendMgr.obj
 0001:0001aa30       ??0ONEPLAYER@CFriendMgr@@QAE@XZ 0041ba30 f i FriendMgr.obj
 0001:0001aa90       ??1ONEPLAYER@CFriendMgr@@QAE@XZ 0041ba90 f i FriendMgr.obj
 0001:0001aae0       ??0?$map@V?$basic_string@DU?$char_traits@D@std@@V?$allocator@D@2@@std@@UFRIENDINFO@CFriendMgr@@U_tstring_less@@V?$allocator@UFRIENDINFO@CFriendMgr@@@2@@std@@QAE@ABU_tstring_less@@ABV?$allocator@UFRIENDINFO@CFriendMgr@@@1@@Z 0041bae0 f i FriendMgr.obj
 0001:0001ab10       ?begin@?$map@V?$basic_string@DU?$char_traits@D@std@@V?$allocator@D@2@@std@@UFRIENDINFO@CFriendMgr@@U_tstring_less@@V?$allocator@UFRIENDINFO@CFriendMgr@@@2@@std@@QAE?AViterator@?$_Tree@V?$basic_string@DU?$char_traits@D@std@@V?$allocator@D@2@@std@@U?$pair@$$CBV?$basic_string@DU?$char_traits@D@std@@V?$allocator@D@2@@std@@UFRIENDINFO@CFriendMgr@@@2@U_Kfn@?$map@V?$basic_string@DU?$char_traits@D@std@@V?$allocator@D@2@@std@@UFRIENDINFO@CFriendMgr@@U_tstring_less@@V?$allocator@UFRIENDINFO@CFriendMgr@@@2@@2@U_tstring_less@@V?$allocator@UFRIENDINFO@CFriendMgr@@@2@@2@XZ 0041bb10 f i FriendMgr.obj
 0001:0001ab40       ?end@?$map@V?$basic_string@DU?$char_traits@D@std@@V?$allocator@D@2@@std@@UFRIENDINFO@CFriendMgr@@U_tstring_less@@V?$allocator@UFRIENDINFO@CFriendMgr@@@2@@std@@QAE?AViterator@?$_Tree@V?$basic_string@DU?$char_traits@D@std@@V?$allocator@D@2@@std@@U?$pair@$$CBV?$basic_string@DU?$char_traits@D@std@@V?$allocator@D@2@@std@@UFRIENDINFO@CFriendMgr@@@2@U_Kfn@?$map@V?$basic_string@DU?$char_traits@D@std@@V?$allocator@D@2@@std@@UFRIENDINFO@CFriendMgr@@U_tstring_less@@V?$allocator@UFRIENDINFO@CFriendMgr@@@2@@2@U_tstring_less@@V?$allocator@UFRIENDINFO@CFriendMgr@@@2@@2@XZ 0041bb40 f i FriendMgr.obj
 0001:0001ab70       ??A?$map@V?$basic_string@DU?$char_traits@D@std@@V?$allocator@D@2@@std@@UFRIENDINFO@CFriendMgr@@U_tstring_less@@V?$allocator@UFRIENDINFO@CFriendMgr@@@2@@std@@QAEAAUFRIENDINFO@CFriendMgr@@ABV?$basic_string@DU?$char_traits@D@std@@V?$allocator@D@2@@1@@Z 0041bb70 f i FriendMgr.obj
 0001:0001ac10       ?insert@?$map@V?$basic_string@DU?$char_traits@D@std@@V?$allocator@D@2@@std@@UFRIENDINFO@CFriendMgr@@U_tstring_less@@V?$allocator@UFRIENDINFO@CFriendMgr@@@2@@std@@QAE?AU?$pair@Viterator@?$_Tree@V?$basic_string@DU?$char_traits@D@std@@V?$allocator@D@2@@std@@U?$pair@$$CBV?$basic_string@DU?$char_traits@D@std@@V?$allocator@D@2@@std@@UFRIENDINFO@CFriendMgr@@@2@U_Kfn@?$map@V?$basic_string@DU?$char_traits@D@std@@V?$allocator@D@2@@std@@UFRIENDINFO@CFriendMgr@@U_tstring_less@@V?$allocator@UFRIENDINFO@CFriendMgr@@@2@@2@U_tstring_less@@V?$allocator@UFRIENDINFO@CFriendMgr@@@2@@std@@_N@2@ABU?$pair@$$CBV?$basic_string@DU?$char_traits@D@std@@V?$allocator@D@2@@std@@UFRIENDINFO@CFriendMgr@@@2@@Z 0041bc10 f i FriendMgr.obj
 0001:0001ac60       ?erase@?$map@V?$basic_string@DU?$char_traits@D@std@@V?$allocator@D@2@@std@@UFRIENDINFO@CFriendMgr@@U_tstring_less@@V?$allocator@UFRIENDINFO@CFriendMgr@@@2@@std@@QAE?AViterator@?$_Tree@V?$basic_string@DU?$char_traits@D@std@@V?$allocator@D@2@@std@@U?$pair@$$CBV?$basic_string@DU?$char_traits@D@std@@V?$allocator@D@2@@std@@UFRIENDINFO@CFriendMgr@@@2@U_Kfn@?$map@V?$basic_string@DU?$char_traits@D@std@@V?$allocator@D@2@@std@@UFRIENDINFO@CFriendMgr@@U_tstring_less@@V?$allocator@UFRIENDINFO@CFriendMgr@@@2@@2@U_tstring_less@@V?$allocator@UFRIENDINFO@CFriendMgr@@@2@@2@V342@@Z 0041bc60 f i FriendMgr.obj
 0001:0001ac90       ?erase@?$map@V?$basic_string@DU?$char_traits@D@std@@V?$allocator@D@2@@std@@UFRIENDINFO@CFriendMgr@@U_tstring_less@@V?$allocator@UFRIENDINFO@CFriendMgr@@@2@@std@@QAEIABV?$basic_string@DU?$char_traits@D@std@@V?$allocator@D@2@@2@@Z 0041bc90 f i FriendMgr.obj
 0001:0001acb0       ?find@?$map@V?$basic_string@DU?$char_traits@D@std@@V?$allocator@D@2@@std@@UFRIENDINFO@CFriendMgr@@U_tstring_less@@V?$allocator@UFRIENDINFO@CFriendMgr@@@2@@std@@QAE?AViterator@?$_Tree@V?$basic_string@DU?$char_traits@D@std@@V?$allocator@D@2@@std@@U?$pair@$$CBV?$basic_string@DU?$char_traits@D@std@@V?$allocator@D@2@@std@@UFRIENDINFO@CFriendMgr@@@2@U_Kfn@?$map@V?$basic_string@DU?$char_traits@D@std@@V?$allocator@D@2@@std@@UFRIENDINFO@CFriendMgr@@U_tstring_less@@V?$allocator@UFRIENDINFO@CFriendMgr@@@2@@2@U_tstring_less@@V?$allocator@UFRIENDINFO@CFriendMgr@@@2@@2@ABV?$basic_string@DU?$char_traits@D@std@@V?$allocator@D@2@@2@@Z 0041bcb0 f i FriendMgr.obj
 0001:0001ace0       ??1?$_Tree@V?$basic_string@DU?$char_traits@D@std@@V?$allocator@D@2@@std@@U?$pair@$$CBV?$basic_string@DU?$char_traits@D@std@@V?$allocator@D@2@@std@@UFRIENDINFO@CFriendMgr@@@2@U_Kfn@?$map@V?$basic_string@DU?$char_traits@D@std@@V?$allocator@D@2@@std@@UFRIENDINFO@CFriendMgr@@U_tstring_less@@V?$allocator@UFRIENDINFO@CFriendMgr@@@2@@2@U_tstring_less@@V?$allocator@UFRIENDINFO@CFriendMgr@@@2@@std@@QAE@XZ 0041bce0 f i FriendMgr.obj
 0001:0001adb0       ??0?$pair@$$CBV?$basic_string@DU?$char_traits@D@std@@V?$allocator@D@2@@std@@UFRIENDINFO@CFriendMgr@@@std@@QAE@ABV?$basic_string@DU?$char_traits@D@std@@V?$allocator@D@2@@1@ABUFRIENDINFO@CFriendMgr@@@Z 0041bdb0 f i FriendMgr.obj
 0001:0001ae10       ??Diterator@?$_Tree@V?$basic_string@DU?$char_traits@D@std@@V?$allocator@D@2@@std@@U?$pair@$$CBV?$basic_string@DU?$char_traits@D@std@@V?$allocator@D@2@@std@@UFRIENDINFO@CFriendMgr@@@2@U_Kfn@?$map@V?$basic_string@DU?$char_traits@D@std@@V?$allocator@D@2@@std@@UFRIENDINFO@CFriendMgr@@U_tstring_less@@V?$allocator@UFRIENDINFO@CFriendMgr@@@2@@2@U_tstring_less@@V?$allocator@UFRIENDINFO@CFriendMgr@@@2@@std@@QBEAAU?$pair@$$CBV?$basic_string@DU?$char_traits@D@std@@V?$allocator@D@2@@std@@UFRIENDINFO@CFriendMgr@@@2@XZ 0041be10 f i FriendMgr.obj
 0001:0001ae30       ??Eiterator@?$_Tree@V?$basic_string@DU?$char_traits@D@std@@V?$allocator@D@2@@std@@U?$pair@$$CBV?$basic_string@DU?$char_traits@D@std@@V?$allocator@D@2@@std@@UFRIENDINFO@CFriendMgr@@@2@U_Kfn@?$map@V?$basic_string@DU?$char_traits@D@std@@V?$allocator@D@2@@std@@UFRIENDINFO@CFriendMgr@@U_tstring_less@@V?$allocator@UFRIENDINFO@CFriendMgr@@@2@@2@U_tstring_less@@V?$allocator@UFRIENDINFO@CFriendMgr@@@2@@std@@QAE?AV012@H@Z 0041be30 f i FriendMgr.obj
 0001:0001ae60       ??8iterator@?$_Tree@V?$basic_string@DU?$char_traits@D@std@@V?$allocator@D@2@@std@@U?$pair@$$CBV?$basic_string@DU?$char_traits@D@std@@V?$allocator@D@2@@std@@UFRIENDINFO@CFriendMgr@@@2@U_Kfn@?$map@V?$basic_string@DU?$char_traits@D@std@@V?$allocator@D@2@@std@@UFRIENDINFO@CFriendMgr@@U_tstring_less@@V?$allocator@UFRIENDINFO@CFriendMgr@@@2@@2@U_tstring_less@@V?$allocator@UFRIENDINFO@CFriendMgr@@@2@@std@@QBE_NABV012@@Z 0041be60 f i FriendMgr.obj
 0001:0001ae80       ??9iterator@?$_Tree@V?$basic_string@DU?$char_traits@D@std@@V?$allocator@D@2@@std@@U?$pair@$$CBV?$basic_string@DU?$char_traits@D@std@@V?$allocator@D@2@@std@@UFRIENDINFO@CFriendMgr@@@2@U_Kfn@?$map@V?$basic_string@DU?$char_traits@D@std@@V?$allocator@D@2@@std@@UFRIENDINFO@CFriendMgr@@U_tstring_less@@V?$allocator@UFRIENDINFO@CFriendMgr@@@2@@2@U_tstring_less@@V?$allocator@UFRIENDINFO@CFriendMgr@@@2@@std@@QBE_NABV012@@Z 0041be80 f i FriendMgr.obj
 0001:0001aeb0       ??0?$map@V?$basic_string@DU?$char_traits@D@std@@V?$allocator@D@2@@std@@UPLAYERINFO@CFriendMgr@@U_tstring_less@@V?$allocator@UPLAYERINFO@CFriendMgr@@@2@@std@@QAE@ABU_tstring_less@@ABV?$allocator@UPLAYERINFO@CFriendMgr@@@1@@Z 0041beb0 f i FriendMgr.obj
 0001:0001aee0       ?begin@?$map@V?$basic_string@DU?$char_traits@D@std@@V?$allocator@D@2@@std@@UPLAYERINFO@CFriendMgr@@U_tstring_less@@V?$allocator@UPLAYERINFO@CFriendMgr@@@2@@std@@QAE?AViterator@?$_Tree@V?$basic_string@DU?$char_traits@D@std@@V?$allocator@D@2@@std@@U?$pair@$$CBV?$basic_string@DU?$char_traits@D@std@@V?$allocator@D@2@@std@@UPLAYERINFO@CFriendMgr@@@2@U_Kfn@?$map@V?$basic_string@DU?$char_traits@D@std@@V?$allocator@D@2@@std@@UPLAYERINFO@CFriendMgr@@U_tstring_less@@V?$allocator@UPLAYERINFO@CFriendMgr@@@2@@2@U_tstring_less@@V?$allocator@UPLAYERINFO@CFriendMgr@@@2@@2@XZ 0041bee0 f i FriendMgr.obj
 0001:0001af10       ?end@?$map@V?$basic_string@DU?$char_traits@D@std@@V?$allocator@D@2@@std@@UPLAYERINFO@CFriendMgr@@U_tstring_less@@V?$allocator@UPLAYERINFO@CFriendMgr@@@2@@std@@QAE?AViterator@?$_Tree@V?$basic_string@DU?$char_traits@D@std@@V?$allocator@D@2@@std@@U?$pair@$$CBV?$basic_string@DU?$char_traits@D@std@@V?$allocator@D@2@@std@@UPLAYERINFO@CFriendMgr@@@2@U_Kfn@?$map@V?$basic_string@DU?$char_traits@D@std@@V?$allocator@D@2@@std@@UPLAYERINFO@CFriendMgr@@U_tstring_less@@V?$allocator@UPLAYERINFO@CFriendMgr@@@2@@2@U_tstring_less@@V?$allocator@UPLAYERINFO@CFriendMgr@@@2@@2@XZ 0041bf10 f i FriendMgr.obj
 0001:0001af40       ?size@?$map@V?$basic_string@DU?$char_traits@D@std@@V?$allocator@D@2@@std@@UPLAYERINFO@CFriendMgr@@U_tstring_less@@V?$allocator@UPLAYERINFO@CFriendMgr@@@2@@std@@QBEIXZ 0041bf40 f i FriendMgr.obj
 0001:0001af60       ??A?$map@V?$basic_string@DU?$char_traits@D@std@@V?$allocator@D@2@@std@@UPLAYERINFO@CFriendMgr@@U_tstring_less@@V?$allocator@UPLAYERINFO@CFriendMgr@@@2@@std@@QAEAAUPLAYERINFO@CFriendMgr@@ABV?$basic_string@DU?$char_traits@D@std@@V?$allocator@D@2@@1@@Z 0041bf60 f i FriendMgr.obj
 0001:0001b000       ?insert@?$map@V?$basic_string@DU?$char_traits@D@std@@V?$allocator@D@2@@std@@UPLAYERINFO@CFriendMgr@@U_tstring_less@@V?$allocator@UPLAYERINFO@CFriendMgr@@@2@@std@@QAE?AU?$pair@Viterator@?$_Tree@V?$basic_string@DU?$char_traits@D@std@@V?$allocator@D@2@@std@@U?$pair@$$CBV?$basic_string@DU?$char_traits@D@std@@V?$allocator@D@2@@std@@UPLAYERINFO@CFriendMgr@@@2@U_Kfn@?$map@V?$basic_string@DU?$char_traits@D@std@@V?$allocator@D@2@@std@@UPLAYERINFO@CFriendMgr@@U_tstring_less@@V?$allocator@UPLAYERINFO@CFriendMgr@@@2@@2@U_tstring_less@@V?$allocator@UPLAYERINFO@CFriendMgr@@@2@@std@@_N@2@ABU?$pair@$$CBV?$basic_string@DU?$char_traits@D@std@@V?$allocator@D@2@@std@@UPLAYERINFO@CFriendMgr@@@2@@Z 0041c000 f i FriendMgr.obj
 0001:0001b050       ?clear@?$map@V?$basic_string@DU?$char_traits@D@std@@V?$allocator@D@2@@std@@UPLAYERINFO@CFriendMgr@@U_tstring_less@@V?$allocator@UPLAYERINFO@CFriendMgr@@@2@@std@@QAEXXZ 0041c050 f i FriendMgr.obj
 0001:0001b070       ?find@?$map@V?$basic_string@DU?$char_traits@D@std@@V?$allocator@D@2@@std@@UPLAYERINFO@CFriendMgr@@U_tstring_less@@V?$allocator@UPLAYERINFO@CFriendMgr@@@2@@std@@QAE?AViterator@?$_Tree@V?$basic_string@DU?$char_traits@D@std@@V?$allocator@D@2@@std@@U?$pair@$$CBV?$basic_string@DU?$char_traits@D@std@@V?$allocator@D@2@@std@@UPLAYERINFO@CFriendMgr@@@2@U_Kfn@?$map@V?$basic_string@DU?$char_traits@D@std@@V?$allocator@D@2@@std@@UPLAYERINFO@CFriendMgr@@U_tstring_less@@V?$allocator@UPLAYERINFO@CFriendMgr@@@2@@2@U_tstring_less@@V?$allocator@UPLAYERINFO@CFriendMgr@@@2@@2@ABV?$basic_string@DU?$char_traits@D@std@@V?$allocator@D@2@@2@@Z 0041c070 f i FriendMgr.obj
 0001:0001b0a0       ??1?$_Tree@V?$basic_string@DU?$char_traits@D@std@@V?$allocator@D@2@@std@@U?$pair@$$CBV?$basic_string@DU?$char_traits@D@std@@V?$allocator@D@2@@std@@UPLAYERINFO@CFriendMgr@@@2@U_Kfn@?$map@V?$basic_string@DU?$char_traits@D@std@@V?$allocator@D@2@@std@@UPLAYERINFO@CFriendMgr@@U_tstring_less@@V?$allocator@UPLAYERINFO@CFriendMgr@@@2@@2@U_tstring_less@@V?$allocator@UPLAYERINFO@CFriendMgr@@@2@@std@@QAE@XZ 0041c0a0 f i FriendMgr.obj
 0001:0001b170       ??0?$pair@$$CBV?$basic_string@DU?$char_traits@D@std@@V?$allocator@D@2@@std@@UPLAYERINFO@CFriendMgr@@@std@@QAE@ABV?$basic_string@DU?$char_traits@D@std@@V?$allocator@D@2@@1@ABUPLAYERINFO@CFriendMgr@@@Z 0041c170 f i FriendMgr.obj
 0001:0001b1d0       ??0iterator@?$_Tree@V?$basic_string@DU?$char_traits@D@std@@V?$allocator@D@2@@std@@U?$pair@$$CBV?$basic_string@DU?$char_traits@D@std@@V?$allocator@D@2@@std@@UPLAYERINFO@CFriendMgr@@@2@U_Kfn@?$map@V?$basic_string@DU?$char_traits@D@std@@V?$allocator@D@2@@std@@UPLAYERINFO@CFriendMgr@@U_tstring_less@@V?$allocator@UPLAYERINFO@CFriendMgr@@@2@@2@U_tstring_less@@V?$allocator@UPLAYERINFO@CFriendMgr@@@2@@std@@QAE@XZ 0041c1d0 f i FriendMgr.obj
 0001:0001b1f0       ??Diterator@?$_Tree@V?$basic_string@DU?$char_traits@D@std@@V?$allocator@D@2@@std@@U?$pair@$$CBV?$basic_string@DU?$char_traits@D@std@@V?$allocator@D@2@@std@@UPLAYERINFO@CFriendMgr@@@2@U_Kfn@?$map@V?$basic_string@DU?$char_traits@D@std@@V?$allocator@D@2@@std@@UPLAYERINFO@CFriendMgr@@U_tstring_less@@V?$allocator@UPLAYERINFO@CFriendMgr@@@2@@2@U_tstring_less@@V?$allocator@UPLAYERINFO@CFriendMgr@@@2@@std@@QBEAAU?$pair@$$CBV?$basic_string@DU?$char_traits@D@std@@V?$allocator@D@2@@std@@UPLAYERINFO@CFriendMgr@@@2@XZ 0041c1f0 f i FriendMgr.obj
 0001:0001b210       ??Eiterator@?$_Tree@V?$basic_string@DU?$char_traits@D@std@@V?$allocator@D@2@@std@@U?$pair@$$CBV?$basic_string@DU?$char_traits@D@std@@V?$allocator@D@2@@std@@UPLAYERINFO@CFriendMgr@@@2@U_Kfn@?$map@V?$basic_string@DU?$char_traits@D@std@@V?$allocator@D@2@@std@@UPLAYERINFO@CFriendMgr@@U_tstring_less@@V?$allocator@UPLAYERINFO@CFriendMgr@@@2@@2@U_tstring_less@@V?$allocator@UPLAYERINFO@CFriendMgr@@@2@@std@@QAEAAV012@XZ 0041c210 f i FriendMgr.obj
 0001:0001b230       ??Eiterator@?$_Tree@V?$basic_string@DU?$char_traits@D@std@@V?$allocator@D@2@@std@@U?$pair@$$CBV?$basic_string@DU?$char_traits@D@std@@V?$allocator@D@2@@std@@UPLAYERINFO@CFriendMgr@@@2@U_Kfn@?$map@V?$basic_string@DU?$char_traits@D@std@@V?$allocator@D@2@@std@@UPLAYERINFO@CFriendMgr@@U_tstring_less@@V?$allocator@UPLAYERINFO@CFriendMgr@@@2@@2@U_tstring_less@@V?$allocator@UPLAYERINFO@CFriendMgr@@@2@@std@@QAE?AV012@H@Z 0041c230 f i FriendMgr.obj
 0001:0001b260       ??Fiterator@?$_Tree@V?$basic_string@DU?$char_traits@D@std@@V?$allocator@D@2@@std@@U?$pair@$$CBV?$basic_string@DU?$char_traits@D@std@@V?$allocator@D@2@@std@@UPLAYERINFO@CFriendMgr@@@2@U_Kfn@?$map@V?$basic_string@DU?$char_traits@D@std@@V?$allocator@D@2@@std@@UPLAYERINFO@CFriendMgr@@U_tstring_less@@V?$allocator@UPLAYERINFO@CFriendMgr@@@2@@2@U_tstring_less@@V?$allocator@UPLAYERINFO@CFriendMgr@@@2@@std@@QAEAAV012@XZ 0041c260 f i FriendMgr.obj
 0001:0001b280       ??8iterator@?$_Tree@V?$basic_string@DU?$char_traits@D@std@@V?$allocator@D@2@@std@@U?$pair@$$CBV?$basic_string@DU?$char_traits@D@std@@V?$allocator@D@2@@std@@UPLAYERINFO@CFriendMgr@@@2@U_Kfn@?$map@V?$basic_string@DU?$char_traits@D@std@@V?$allocator@D@2@@std@@UPLAYERINFO@CFriendMgr@@U_tstring_less@@V?$allocator@UPLAYERINFO@CFriendMgr@@@2@@2@U_tstring_less@@V?$allocator@UPLAYERINFO@CFriendMgr@@@2@@std@@QBE_NABV012@@Z 0041c280 f i FriendMgr.obj
 0001:0001b2a0       ??9iterator@?$_Tree@V?$basic_string@DU?$char_traits@D@std@@V?$allocator@D@2@@std@@U?$pair@$$CBV?$basic_string@DU?$char_traits@D@std@@V?$allocator@D@2@@std@@UPLAYERINFO@CFriendMgr@@@2@U_Kfn@?$map@V?$basic_string@DU?$char_traits@D@std@@V?$allocator@D@2@@std@@UPLAYERINFO@CFriendMgr@@U_tstring_less@@V?$allocator@UPLAYERINFO@CFriendMgr@@@2@@2@U_tstring_less@@V?$allocator@UPLAYERINFO@CFriendMgr@@@2@@std@@QBE_NABV012@@Z 0041c2a0 f i FriendMgr.obj
 0001:0001b2d0       ??0?$map@UADDFRIENDKEY@CFriendMgr@@UADDFRIENDVALUE@2@U?$less@UADDFRIENDKEY@CFriendMgr@@@std@@V?$allocator@UADDFRIENDVALUE@CFriendMgr@@@5@@std@@QAE@ABU?$less@UADDFRIENDKEY@CFriendMgr@@@1@ABV?$allocator@UADDFRIENDVALUE@CFriendMgr@@@1@@Z 0041c2d0 f i FriendMgr.obj
 0001:0001b300       ?end@?$map@UADDFRIENDKEY@CFriendMgr@@UADDFRIENDVALUE@2@U?$less@UADDFRIENDKEY@CFriendMgr@@@std@@V?$allocator@UADDFRIENDVALUE@CFriendMgr@@@5@@std@@QAE?AViterator@?$_Tree@UADDFRIENDKEY@CFriendMgr@@U?$pair@$$CBUADDFRIENDKEY@CFriendMgr@@UADDFRIENDVALUE@2@@std@@U_Kfn@?$map@UADDFRIENDKEY@CFriendMgr@@UADDFRIENDVALUE@2@U?$less@UADDFRIENDKEY@CFriendMgr@@@std@@V?$allocator@UADDFRIENDVALUE@CFriendMgr@@@5@@4@U?$less@UADDFRIENDKEY@CFriendMgr@@@4@V?$allocator@UADDFRIENDVALUE@CFriendMgr@@@4@@2@XZ 0041c300 f i FriendMgr.obj
 0001:0001b330       ?size@?$map@UADDFRIENDKEY@CFriendMgr@@UADDFRIENDVALUE@2@U?$less@UADDFRIENDKEY@CFriendMgr@@@std@@V?$allocator@UADDFRIENDVALUE@CFriendMgr@@@5@@std@@QBEIXZ 0041c330 f i FriendMgr.obj
 0001:0001b350       ??A?$map@UADDFRIENDKEY@CFriendMgr@@UADDFRIENDVALUE@2@U?$less@UADDFRIENDKEY@CFriendMgr@@@std@@V?$allocator@UADDFRIENDVALUE@CFriendMgr@@@5@@std@@QAEAAUADDFRIENDVALUE@CFriendMgr@@ABUADDFRIENDKEY@3@@Z 0041c350 f i FriendMgr.obj
 0001:0001b3f0       ?erase@?$map@UADDFRIENDKEY@CFriendMgr@@UADDFRIENDVALUE@2@U?$less@UADDFRIENDKEY@CFriendMgr@@@std@@V?$allocator@UADDFRIENDVALUE@CFriendMgr@@@5@@std@@QAE?AViterator@?$_Tree@UADDFRIENDKEY@CFriendMgr@@U?$pair@$$CBUADDFRIENDKEY@CFriendMgr@@UADDFRIENDVALUE@2@@std@@U_Kfn@?$map@UADDFRIENDKEY@CFriendMgr@@UADDFRIENDVALUE@2@U?$less@UADDFRIENDKEY@CFriendMgr@@@std@@V?$allocator@UADDFRIENDVALUE@CFriendMgr@@@5@@4@U?$less@UADDFRIENDKEY@CFriendMgr@@@4@V?$allocator@UADDFRIENDVALUE@CFriendMgr@@@4@@2@V342@@Z 0041c3f0 f i FriendMgr.obj
 0001:0001b420       ?find@?$map@UADDFRIENDKEY@CFriendMgr@@UADDFRIENDVALUE@2@U?$less@UADDFRIENDKEY@CFriendMgr@@@std@@V?$allocator@UADDFRIENDVALUE@CFriendMgr@@@5@@std@@QAE?AViterator@?$_Tree@UADDFRIENDKEY@CFriendMgr@@U?$pair@$$CBUADDFRIENDKEY@CFriendMgr@@UADDFRIENDVALUE@2@@std@@U_Kfn@?$map@UADDFRIENDKEY@CFriendMgr@@UADDFRIENDVALUE@2@U?$less@UADDFRIENDKEY@CFriendMgr@@@std@@V?$allocator@UADDFRIENDVALUE@CFriendMgr@@@5@@4@U?$less@UADDFRIENDKEY@CFriendMgr@@@4@V?$allocator@UADDFRIENDVALUE@CFriendMgr@@@4@@2@ABUADDFRIENDKEY@CFriendMgr@@@Z 0041c420 f i FriendMgr.obj
 0001:0001b450       ??1?$_Tree@UADDFRIENDKEY@CFriendMgr@@U?$pair@$$CBUADDFRIENDKEY@CFriendMgr@@UADDFRIENDVALUE@2@@std@@U_Kfn@?$map@UADDFRIENDKEY@CFriendMgr@@UADDFRIENDVALUE@2@U?$less@UADDFRIENDKEY@CFriendMgr@@@std@@V?$allocator@UADDFRIENDVALUE@CFriendMgr@@@5@@4@U?$less@UADDFRIENDKEY@CFriendMgr@@@4@V?$allocator@UADDFRIENDVALUE@CFriendMgr@@@4@@std@@QAE@XZ 0041c450 f i FriendMgr.obj
 0001:0001b520       ??Diterator@?$_Tree@UADDFRIENDKEY@CFriendMgr@@U?$pair@$$CBUADDFRIENDKEY@CFriendMgr@@UADDFRIENDVALUE@2@@std@@U_Kfn@?$map@UADDFRIENDKEY@CFriendMgr@@UADDFRIENDVALUE@2@U?$less@UADDFRIENDKEY@CFriendMgr@@@std@@V?$allocator@UADDFRIENDVALUE@CFriendMgr@@@5@@4@U?$less@UADDFRIENDKEY@CFriendMgr@@@4@V?$allocator@UADDFRIENDVALUE@CFriendMgr@@@4@@std@@QBEAAU?$pair@$$CBUADDFRIENDKEY@CFriendMgr@@UADDFRIENDVALUE@2@@2@XZ 0041c520 f i FriendMgr.obj
 0001:0001b540       ??8iterator@?$_Tree@UADDFRIENDKEY@CFriendMgr@@U?$pair@$$CBUADDFRIENDKEY@CFriendMgr@@UADDFRIENDVALUE@2@@std@@U_Kfn@?$map@UADDFRIENDKEY@CFriendMgr@@UADDFRIENDVALUE@2@U?$less@UADDFRIENDKEY@CFriendMgr@@@std@@V?$allocator@UADDFRIENDVALUE@CFriendMgr@@@5@@4@U?$less@UADDFRIENDKEY@CFriendMgr@@@4@V?$allocator@UADDFRIENDVALUE@CFriendMgr@@@4@@std@@QBE_NABV012@@Z 0041c540 f i FriendMgr.obj
 0001:0001b560       ??0?$list@UMEM_FRIENDRECORD@CFriendMgr@@V?$allocator@UMEM_FRIENDRECORD@CFriendMgr@@@std@@@std@@QAE@ABV?$allocator@UMEM_FRIENDRECORD@CFriendMgr@@@1@@Z 0041c560 f i FriendMgr.obj
 0001:0001b5a0       ??1?$list@UMEM_FRIENDRECORD@CFriendMgr@@V?$allocator@UMEM_FRIENDRECORD@CFriendMgr@@@std@@@std@@QAE@XZ 0041c5a0 f i FriendMgr.obj
 0001:0001b600       ?begin@?$list@UMEM_FRIENDRECORD@CFriendMgr@@V?$allocator@UMEM_FRIENDRECORD@CFriendMgr@@@std@@@std@@QAE?AViterator@12@XZ 0041c600 f i FriendMgr.obj
 0001:0001b640       ?begin@?$list@UMEM_FRIENDRECORD@CFriendMgr@@V?$allocator@UMEM_FRIENDRECORD@CFriendMgr@@@std@@@std@@QBE?AVconst_iterator@12@XZ 0041c640 f i FriendMgr.obj
 0001:0001b680       ?end@?$list@UMEM_FRIENDRECORD@CFriendMgr@@V?$allocator@UMEM_FRIENDRECORD@CFriendMgr@@@std@@@std@@QAE?AViterator@12@XZ 0041c680 f i FriendMgr.obj
 0001:0001b6b0       ?end@?$list@UMEM_FRIENDRECORD@CFriendMgr@@V?$allocator@UMEM_FRIENDRECORD@CFriendMgr@@@std@@@std@@QBE?AVconst_iterator@12@XZ 0041c6b0 f i FriendMgr.obj
 0001:0001b6e0       ?size@?$list@UMEM_FRIENDRECORD@CFriendMgr@@V?$allocator@UMEM_FRIENDRECORD@CFriendMgr@@@std@@@std@@QBEIXZ 0041c6e0 f i FriendMgr.obj
 0001:0001b700       ?push_back@?$list@UMEM_FRIENDRECORD@CFriendMgr@@V?$allocator@UMEM_FRIENDRECORD@CFriendMgr@@@std@@@std@@QAEXABUMEM_FRIENDRECORD@CFriendMgr@@@Z 0041c700 f i FriendMgr.obj
 0001:0001b730       ??Dconst_iterator@?$list@UMEM_FRIENDRECORD@CFriendMgr@@V?$allocator@UMEM_FRIENDRECORD@CFriendMgr@@@std@@@std@@QBEABUMEM_FRIENDRECORD@CFriendMgr@@XZ 0041c730 f i FriendMgr.obj
 0001:0001b750       ??Econst_iterator@?$list@UMEM_FRIENDRECORD@CFriendMgr@@V?$allocator@UMEM_FRIENDRECORD@CFriendMgr@@@std@@@std@@QAE?AV012@H@Z 0041c750 f i FriendMgr.obj
 0001:0001b780       ??9const_iterator@?$list@UMEM_FRIENDRECORD@CFriendMgr@@V?$allocator@UMEM_FRIENDRECORD@CFriendMgr@@@std@@@std@@QBE_NABV012@@Z 0041c780 f i FriendMgr.obj
 0001:0001b7b0       ??Diterator@?$list@UMEM_FRIENDRECORD@CFriendMgr@@V?$allocator@UMEM_FRIENDRECORD@CFriendMgr@@@std@@@std@@QBEAAUMEM_FRIENDRECORD@CFriendMgr@@XZ 0041c7b0 f i FriendMgr.obj
 0001:0001b7d0       ??Eiterator@?$list@UMEM_FRIENDRECORD@CFriendMgr@@V?$allocator@UMEM_FRIENDRECORD@CFriendMgr@@@std@@@std@@QAE?AV012@H@Z 0041c7d0 f i FriendMgr.obj
 0001:0001b800       ??9iterator@?$list@UMEM_FRIENDRECORD@CFriendMgr@@V?$allocator@UMEM_FRIENDRECORD@CFriendMgr@@@std@@@std@@QBE_NABV012@@Z 0041c800 f i FriendMgr.obj
 0001:0001b830       ??0?$map@KV?$list@UtagPlusSrcInfo@@V?$allocator@UtagPlusSrcInfo@@@std@@@std@@U?$less@K@2@V?$allocator@V?$list@UtagPlusSrcInfo@@V?$allocator@UtagPlusSrcInfo@@@std@@@std@@@2@@std@@QAE@ABU?$less@K@1@ABV?$allocator@V?$list@UtagPlusSrcInfo@@V?$allocator@UtagPlusSrcInfo@@@std@@@std@@@1@@Z 0041c830 f i FriendMgr.obj
 0001:0001b860       ?begin@?$map@KV?$list@UtagPlusSrcInfo@@V?$allocator@UtagPlusSrcInfo@@@std@@@std@@U?$less@K@2@V?$allocator@V?$list@UtagPlusSrcInfo@@V?$allocator@UtagPlusSrcInfo@@@std@@@std@@@2@@std@@QAE?AViterator@?$_Tree@KU?$pair@$$CBKV?$list@UtagPlusSrcInfo@@V?$allocator@UtagPlusSrcInfo@@@std@@@std@@@std@@U_Kfn@?$map@KV?$list@UtagPlusSrcInfo@@V?$allocator@UtagPlusSrcInfo@@@std@@@std@@U?$less@K@2@V?$allocator@V?$list@UtagPlusSrcInfo@@V?$allocator@UtagPlusSrcInfo@@@std@@@std@@@2@@2@U?$less@K@2@V?$allocator@V?$list@UtagPlusSrcInfo@@V?$allocator@UtagPlusSrcInfo@@@std@@@std@@@2@@2@XZ 0041c860 f i FriendMgr.obj
 0001:0001b890       ?end@?$map@KV?$list@UtagPlusSrcInfo@@V?$allocator@UtagPlusSrcInfo@@@std@@@std@@U?$less@K@2@V?$allocator@V?$list@UtagPlusSrcInfo@@V?$allocator@UtagPlusSrcInfo@@@std@@@std@@@2@@std@@QAE?AViterator@?$_Tree@KU?$pair@$$CBKV?$list@UtagPlusSrcInfo@@V?$allocator@UtagPlusSrcInfo@@@std@@@std@@@std@@U_Kfn@?$map@KV?$list@UtagPlusSrcInfo@@V?$allocator@UtagPlusSrcInfo@@@std@@@std@@U?$less@K@2@V?$allocator@V?$list@UtagPlusSrcInfo@@V?$allocator@UtagPlusSrcInfo@@@std@@@std@@@2@@2@U?$less@K@2@V?$allocator@V?$list@UtagPlusSrcInfo@@V?$allocator@UtagPlusSrcInfo@@@std@@@std@@@2@@2@XZ 0041c890 f i FriendMgr.obj
 0001:0001b8c0       ?empty@?$map@KV?$list@UtagPlusSrcInfo@@V?$allocator@UtagPlusSrcInfo@@@std@@@std@@U?$less@K@2@V?$allocator@V?$list@UtagPlusSrcInfo@@V?$allocator@UtagPlusSrcInfo@@@std@@@std@@@2@@std@@QBE_NXZ 0041c8c0 f i FriendMgr.obj
 0001:0001b8e0       ??A?$map@KV?$list@UtagPlusSrcInfo@@V?$allocator@UtagPlusSrcInfo@@@std@@@std@@U?$less@K@2@V?$allocator@V?$list@UtagPlusSrcInfo@@V?$allocator@UtagPlusSrcInfo@@@std@@@std@@@2@@std@@QAEAAV?$list@UtagPlusSrcInfo@@V?$allocator@UtagPlusSrcInfo@@@std@@@1@ABK@Z 0041c8e0 f i FriendMgr.obj
 0001:0001b990       ??1?$_Tree@KU?$pair@$$CBKV?$list@UtagPlusSrcInfo@@V?$allocator@UtagPlusSrcInfo@@@std@@@std@@@std@@U_Kfn@?$map@KV?$list@UtagPlusSrcInfo@@V?$allocator@UtagPlusSrcInfo@@@std@@@std@@U?$less@K@2@V?$allocator@V?$list@UtagPlusSrcInfo@@V?$allocator@UtagPlusSrcInfo@@@std@@@std@@@2@@2@U?$less@K@2@V?$allocator@V?$list@UtagPlusSrcInfo@@V?$allocator@UtagPlusSrcInfo@@@std@@@std@@@2@@std@@QAE@XZ 0041c990 f i FriendMgr.obj
 0001:0001ba60       ??Diterator@?$list@UtagPlusSrcInfo@@V?$allocator@UtagPlusSrcInfo@@@std@@@std@@QBEAAUtagPlusSrcInfo@@XZ 0041ca60 f i FriendMgr.obj
 0001:0001ba80       ??Diterator@?$_Tree@KU?$pair@$$CBKV?$list@UtagPlusSrcInfo@@V?$allocator@UtagPlusSrcInfo@@@std@@@std@@@std@@U_Kfn@?$map@KV?$list@UtagPlusSrcInfo@@V?$allocator@UtagPlusSrcInfo@@@std@@@std@@U?$less@K@2@V?$allocator@V?$list@UtagPlusSrcInfo@@V?$allocator@UtagPlusSrcInfo@@@std@@@std@@@2@@2@U?$less@K@2@V?$allocator@V?$list@UtagPlusSrcInfo@@V?$allocator@UtagPlusSrcInfo@@@std@@@std@@@2@@std@@QBEAAU?$pair@$$CBKV?$list@UtagPlusSrcInfo@@V?$allocator@UtagPlusSrcInfo@@@std@@@std@@@2@XZ 0041ca80 f i FriendMgr.obj
 0001:0001baa0       ??Eiterator@?$_Tree@KU?$pair@$$CBKV?$list@UtagPlusSrcInfo@@V?$allocator@UtagPlusSrcInfo@@@std@@@std@@@std@@U_Kfn@?$map@KV?$list@UtagPlusSrcInfo@@V?$allocator@UtagPlusSrcInfo@@@std@@@std@@U?$less@K@2@V?$allocator@V?$list@UtagPlusSrcInfo@@V?$allocator@UtagPlusSrcInfo@@@std@@@std@@@2@@2@U?$less@K@2@V?$allocator@V?$list@UtagPlusSrcInfo@@V?$allocator@UtagPlusSrcInfo@@@std@@@std@@@2@@std@@QAE?AV012@H@Z 0041caa0 f i FriendMgr.obj
 0001:0001bad0       ??9iterator@?$_Tree@KU?$pair@$$CBKV?$list@UtagPlusSrcInfo@@V?$allocator@UtagPlusSrcInfo@@@std@@@std@@@std@@U_Kfn@?$map@KV?$list@UtagPlusSrcInfo@@V?$allocator@UtagPlusSrcInfo@@@std@@@std@@U?$less@K@2@V?$allocator@V?$list@UtagPlusSrcInfo@@V?$allocator@UtagPlusSrcInfo@@@std@@@std@@@2@@2@U?$less@K@2@V?$allocator@V?$list@UtagPlusSrcInfo@@V?$allocator@UtagPlusSrcInfo@@@std@@@std@@@2@@std@@QBE_NABV012@@Z 0041cad0 f i FriendMgr.obj
 0001:0001bb00       ??0?$map@V?$basic_string@DU?$char_traits@D@std@@V?$allocator@D@2@@std@@V?$list@U?$pair@EV?$basic_string@DU?$char_traits@D@std@@V?$allocator@D@2@@std@@@std@@V?$allocator@U?$pair@EV?$basic_string@DU?$char_traits@D@std@@V?$allocator@D@2@@std@@@std@@@2@@2@U_tstring_less@@V?$allocator@V?$list@U?$pair@EV?$basic_string@DU?$char_traits@D@std@@V?$allocator@D@2@@std@@@std@@V?$allocator@U?$pair@EV?$basic_string@DU?$char_traits@D@std@@V?$allocator@D@2@@std@@@std@@@2@@std@@@2@@std@@QAE@ABU_tstring_less@@ABV?$allocator@V?$list@U?$pair@EV?$basic_string@DU?$char_traits@D@std@@V?$allocator@D@2@@std@@@std@@V?$allocator@U?$pair@EV?$basic_string@DU?$char_traits@D@std@@V?$allocator@D@2@@std@@@std@@@2@@std@@@1@@Z 0041cb00 f i FriendMgr.obj
 0001:0001bb30       ?begin@?$map@V?$basic_string@DU?$char_traits@D@std@@V?$allocator@D@2@@std@@V?$list@U?$pair@EV?$basic_string@DU?$char_traits@D@std@@V?$allocator@D@2@@std@@@std@@V?$allocator@U?$pair@EV?$basic_string@DU?$char_traits@D@std@@V?$allocator@D@2@@std@@@std@@@2@@2@U_tstring_less@@V?$allocator@V?$list@U?$pair@EV?$basic_string@DU?$char_traits@D@std@@V?$allocator@D@2@@std@@@std@@V?$allocator@U?$pair@EV?$basic_string@DU?$char_traits@D@std@@V?$allocator@D@2@@std@@@std@@@2@@std@@@2@@std@@QAE?AViterator@?$_Tree@V?$basic_string@DU?$char_traits@D@std@@V?$allocator@D@2@@std@@U?$pair@$$CBV?$basic_string@DU?$char_traits@D@std@@V?$allocator@D@2@@std@@V?$list@U?$pair@EV?$basic_string@DU?$char_traits@D@std@@V?$allocator@D@2@@std@@@std@@V?$allocator@U?$pair@EV?$basic_string@DU?$char_traits@D@std@@V?$allocator@D@2@@std@@@std@@@2@@2@@2@U_Kfn@?$map@V?$basic_string@DU?$char_traits@D@std@@V?$allocator@D@2@@std@@V?$list@U?$pair@EV?$basic_string@DU?$char_traits@D@std@@V?$allocator@D@2@@std@@@std@@V?$allocator@U?$pair@EV?$basic_string@DU?$char_traits@D@std@@V?$allocator@D@2@@std@@@std@@@2@@2@U_tstring_less@@V?$allocator@V?$list@U?$pair@EV?$basic_string@DU?$char_traits@D@std@@V?$allocator@D@2@@std@@@std@@V?$allocator@U?$pair@EV?$basic_string@DU?$char_traits@D@std@@V?$allocator@D@2@@std@@@std@@@2@@std@@@2@@2@U_tstring_less@@V?$allocator@V?$list@U?$pair@EV?$basic_string@DU?$char_traits@D@std@@V?$allocator@D@2@@std@@@std@@V?$allocator@U?$pair@EV?$basic_string@DU?$char_traits@D@std@@V?$allocator@D@2@@std@@@std@@@2@@std@@@2@@2@XZ 0041cb30 f i FriendMgr.obj
 0001:0001bb60       ?end@?$map@V?$basic_string@DU?$char_traits@D@std@@V?$allocator@D@2@@std@@V?$list@U?$pair@EV?$basic_string@DU?$char_traits@D@std@@V?$allocator@D@2@@std@@@std@@V?$allocator@U?$pair@EV?$basic_string@DU?$char_traits@D@std@@V?$allocator@D@2@@std@@@std@@@2@@2@U_tstring_less@@V?$allocator@V?$list@U?$pair@EV?$basic_string@DU?$char_traits@D@std@@V?$allocator@D@2@@std@@@std@@V?$allocator@U?$pair@EV?$basic_string@DU?$char_traits@D@std@@V?$allocator@D@2@@std@@@std@@@2@@std@@@2@@std@@QAE?AViterator@?$_Tree@V?$basic_string@DU?$char_traits@D@std@@V?$allocator@D@2@@std@@U?$pair@$$CBV?$basic_string@DU?$char_traits@D@std@@V?$allocator@D@2@@std@@V?$list@U?$pair@EV?$basic_string@DU?$char_traits@D@std@@V?$allocator@D@2@@std@@@std@@V?$allocator@U?$pair@EV?$basic_string@DU?$char_traits@D@std@@V?$allocator@D@2@@std@@@std@@@2@@2@@2@U_Kfn@?$map@V?$basic_string@DU?$char_traits@D@std@@V?$allocator@D@2@@std@@V?$list@U?$pair@EV?$basic_string@DU?$char_traits@D@std@@V?$allocator@D@2@@std@@@std@@V?$allocator@U?$pair@EV?$basic_string@DU?$char_traits@D@std@@V?$allocator@D@2@@std@@@std@@@2@@2@U_tstring_less@@V?$allocator@V?$list@U?$pair@EV?$basic_string@DU?$char_traits@D@std@@V?$allocator@D@2@@std@@@std@@V?$allocator@U?$pair@EV?$basic_string@DU?$char_traits@D@std@@V?$allocator@D@2@@std@@@std@@@2@@std@@@2@@2@U_tstring_less@@V?$allocator@V?$list@U?$pair@EV?$basic_string@DU?$char_traits@D@std@@V?$allocator@D@2@@std@@@std@@V?$allocator@U?$pair@EV?$basic_string@DU?$char_traits@D@std@@V?$allocator@D@2@@std@@@std@@@2@@std@@@2@@2@XZ 0041cb60 f i FriendMgr.obj
 0001:0001bb90       ?empty@?$map@V?$basic_string@DU?$char_traits@D@std@@V?$allocator@D@2@@std@@V?$list@U?$pair@EV?$basic_string@DU?$char_traits@D@std@@V?$allocator@D@2@@std@@@std@@V?$allocator@U?$pair@EV?$basic_string@DU?$char_traits@D@std@@V?$allocator@D@2@@std@@@std@@@2@@2@U_tstring_less@@V?$allocator@V?$list@U?$pair@EV?$basic_string@DU?$char_traits@D@std@@V?$allocator@D@2@@std@@@std@@V?$allocator@U?$pair@EV?$basic_string@DU?$char_traits@D@std@@V?$allocator@D@2@@std@@@std@@@2@@std@@@2@@std@@QBE_NXZ 0041cb90 f i FriendMgr.obj
 0001:0001bbb0       ??A?$map@V?$basic_string@DU?$char_traits@D@std@@V?$allocator@D@2@@std@@V?$list@U?$pair@EV?$basic_string@DU?$char_traits@D@std@@V?$allocator@D@2@@std@@@std@@V?$allocator@U?$pair@EV?$basic_string@DU?$char_traits@D@std@@V?$allocator@D@2@@std@@@std@@@2@@2@U_tstring_less@@V?$allocator@V?$list@U?$pair@EV?$basic_string@DU?$char_traits@D@std@@V?$allocator@D@2@@std@@@std@@V?$allocator@U?$pair@EV?$basic_string@DU?$char_traits@D@std@@V?$allocator@D@2@@std@@@std@@@2@@std@@@2@@std@@QAEAAV?$list@U?$pair@EV?$basic_string@DU?$char_traits@D@std@@V?$allocator@D@2@@std@@@std@@V?$allocator@U?$pair@EV?$basic_string@DU?$char_traits@D@std@@V?$allocator@D@2@@std@@@std@@@2@@1@ABV?$basic_string@DU?$char_traits@D@std@@V?$allocator@D@2@@1@@Z 0041cbb0 f i FriendMgr.obj
 0001:0001bc60       ??1?$_Tree@V?$basic_string@DU?$char_traits@D@std@@V?$allocator@D@2@@std@@U?$pair@$$CBV?$basic_string@DU?$char_traits@D@std@@V?$allocator@D@2@@std@@V?$list@U?$pair@EV?$basic_string@DU?$char_traits@D@std@@V?$allocator@D@2@@std@@@std@@V?$allocator@U?$pair@EV?$basic_string@DU?$char_traits@D@std@@V?$allocator@D@2@@std@@@std@@@2@@2@@2@U_Kfn@?$map@V?$basic_string@DU?$char_traits@D@std@@V?$allocator@D@2@@std@@V?$list@U?$pair@EV?$basic_string@DU?$char_traits@D@std@@V?$allocator@D@2@@std@@@std@@V?$allocator@U?$pair@EV?$basic_string@DU?$char_traits@D@std@@V?$allocator@D@2@@std@@@std@@@2@@2@U_tstring_less@@V?$allocator@V?$list@U?$pair@EV?$basic_string@DU?$char_traits@D@std@@V?$allocator@D@2@@std@@@std@@V?$allocator@U?$pair@EV?$basic_string@DU?$char_traits@D@std@@V?$allocator@D@2@@std@@@std@@@2@@std@@@2@@2@U_tstring_less@@V?$allocator@V?$list@U?$pair@EV?$basic_string@DU?$char_traits@D@std@@V?$allocator@D@2@@std@@@std@@V?$allocator@U?$pair@EV?$basic_string@DU?$char_traits@D@std@@V?$allocator@D@2@@std@@@std@@@2@@std@@@2@@std@@QAE@XZ 0041cc60 f i FriendMgr.obj
 0001:0001bd30       ?begin@?$list@U?$pair@EV?$basic_string@DU?$char_traits@D@std@@V?$allocator@D@2@@std@@@std@@V?$allocator@U?$pair@EV?$basic_string@DU?$char_traits@D@std@@V?$allocator@D@2@@std@@@std@@@2@@std@@QAE?AViterator@12@XZ 0041cd30 f i FriendMgr.obj
 0001:0001bd70       ?end@?$list@U?$pair@EV?$basic_string@DU?$char_traits@D@std@@V?$allocator@D@2@@std@@@std@@V?$allocator@U?$pair@EV?$basic_string@DU?$char_traits@D@std@@V?$allocator@D@2@@std@@@std@@@2@@std@@QAE?AViterator@12@XZ 0041cd70 f i FriendMgr.obj
 0001:0001bda0       ?push_back@?$list@U?$pair@EV?$basic_string@DU?$char_traits@D@std@@V?$allocator@D@2@@std@@@std@@V?$allocator@U?$pair@EV?$basic_string@DU?$char_traits@D@std@@V?$allocator@D@2@@std@@@std@@@2@@std@@QAEXABU?$pair@EV?$basic_string@DU?$char_traits@D@std@@V?$allocator@D@2@@std@@@2@@Z 0041cda0 f i FriendMgr.obj
 0001:0001bdd0       ??0?$pair@EV?$basic_string@DU?$char_traits@D@std@@V?$allocator@D@2@@std@@@std@@QAE@ABEABV?$basic_string@DU?$char_traits@D@std@@V?$allocator@D@2@@1@@Z 0041cdd0 f i FriendMgr.obj
 0001:0001be00       ??Diterator@?$list@U?$pair@EV?$basic_string@DU?$char_traits@D@std@@V?$allocator@D@2@@std@@@std@@V?$allocator@U?$pair@EV?$basic_string@DU?$char_traits@D@std@@V?$allocator@D@2@@std@@@std@@@2@@std@@QBEAAU?$pair@EV?$basic_string@DU?$char_traits@D@std@@V?$allocator@D@2@@std@@@2@XZ 0041ce00 f i FriendMgr.obj
 0001:0001be20       ??Eiterator@?$list@U?$pair@EV?$basic_string@DU?$char_traits@D@std@@V?$allocator@D@2@@std@@@std@@V?$allocator@U?$pair@EV?$basic_string@DU?$char_traits@D@std@@V?$allocator@D@2@@std@@@std@@@2@@std@@QAE?AV012@H@Z 0041ce20 f i FriendMgr.obj
 0001:0001be50       ??9iterator@?$list@U?$pair@EV?$basic_string@DU?$char_traits@D@std@@V?$allocator@D@2@@std@@@std@@V?$allocator@U?$pair@EV?$basic_string@DU?$char_traits@D@std@@V?$allocator@D@2@@std@@@std@@@2@@std@@QBE_NABV012@@Z 0041ce50 f i FriendMgr.obj
 0001:0001be80       ??Diterator@?$_Tree@V?$basic_string@DU?$char_traits@D@std@@V?$allocator@D@2@@std@@U?$pair@$$CBV?$basic_string@DU?$char_traits@D@std@@V?$allocator@D@2@@std@@V?$list@U?$pair@EV?$basic_string@DU?$char_traits@D@std@@V?$allocator@D@2@@std@@@std@@V?$allocator@U?$pair@EV?$basic_string@DU?$char_traits@D@std@@V?$allocator@D@2@@std@@@std@@@2@@2@@2@U_Kfn@?$map@V?$basic_string@DU?$char_traits@D@std@@V?$allocator@D@2@@std@@V?$list@U?$pair@EV?$basic_string@DU?$char_traits@D@std@@V?$allocator@D@2@@std@@@std@@V?$allocator@U?$pair@EV?$basic_string@DU?$char_traits@D@std@@V?$allocator@D@2@@std@@@std@@@2@@2@U_tstring_less@@V?$allocator@V?$list@U?$pair@EV?$basic_string@DU?$char_traits@D@std@@V?$allocator@D@2@@std@@@std@@V?$allocator@U?$pair@EV?$basic_string@DU?$char_traits@D@std@@V?$allocator@D@2@@std@@@std@@@2@@std@@@2@@2@U_tstring_less@@V?$allocator@V?$list@U?$pair@EV?$basic_string@DU?$char_traits@D@std@@V?$allocator@D@2@@std@@@std@@V?$allocator@U?$pair@EV?$basic_string@DU?$char_traits@D@std@@V?$allocator@D@2@@std@@@std@@@2@@std@@@2@@std@@QBEAAU?$pair@$$CBV?$basic_string@DU?$char_traits@D@std@@V?$allocator@D@2@@std@@V?$list@U?$pair@EV?$basic_string@DU?$char_traits@D@std@@V?$allocator@D@2@@std@@@std@@V?$allocator@U?$pair@EV?$basic_string@DU?$char_traits@D@std@@V?$allocator@D@2@@std@@@std@@@2@@2@@2@XZ 0041ce80 f i FriendMgr.obj
 0001:0001bea0       ??Eiterator@?$_Tree@V?$basic_string@DU?$char_traits@D@std@@V?$allocator@D@2@@std@@U?$pair@$$CBV?$basic_string@DU?$char_traits@D@std@@V?$allocator@D@2@@std@@V?$list@U?$pair@EV?$basic_string@DU?$char_traits@D@std@@V?$allocator@D@2@@std@@@std@@V?$allocator@U?$pair@EV?$basic_string@DU?$char_traits@D@std@@V?$allocator@D@2@@std@@@std@@@2@@2@@2@U_Kfn@?$map@V?$basic_string@DU?$char_traits@D@std@@V?$allocator@D@2@@std@@V?$list@U?$pair@EV?$basic_string@DU?$char_traits@D@std@@V?$allocator@D@2@@std@@@std@@V?$allocator@U?$pair@EV?$basic_string@DU?$char_traits@D@std@@V?$allocator@D@2@@std@@@std@@@2@@2@U_tstring_less@@V?$allocator@V?$list@U?$pair@EV?$basic_string@DU?$char_traits@D@std@@V?$allocator@D@2@@std@@@std@@V?$allocator@U?$pair@EV?$basic_string@DU?$char_traits@D@std@@V?$allocator@D@2@@std@@@std@@@2@@std@@@2@@2@U_tstring_less@@V?$allocator@V?$list@U?$pair@EV?$basic_string@DU?$char_traits@D@std@@V?$allocator@D@2@@std@@@std@@V?$allocator@U?$pair@EV?$basic_string@DU?$char_traits@D@std@@V?$allocator@D@2@@std@@@std@@@2@@std@@@2@@std@@QAE?AV012@H@Z 0041cea0 f i FriendMgr.obj
 0001:0001bed0       ??9iterator@?$_Tree@V?$basic_string@DU?$char_traits@D@std@@V?$allocator@D@2@@std@@U?$pair@$$CBV?$basic_string@DU?$char_traits@D@std@@V?$allocator@D@2@@std@@V?$list@U?$pair@EV?$basic_string@DU?$char_traits@D@std@@V?$allocator@D@2@@std@@@std@@V?$allocator@U?$pair@EV?$basic_string@DU?$char_traits@D@std@@V?$allocator@D@2@@std@@@std@@@2@@2@@2@U_Kfn@?$map@V?$basic_string@DU?$char_traits@D@std@@V?$allocator@D@2@@std@@V?$list@U?$pair@EV?$basic_string@DU?$char_traits@D@std@@V?$allocator@D@2@@std@@@std@@V?$allocator@U?$pair@EV?$basic_string@DU?$char_traits@D@std@@V?$allocator@D@2@@std@@@std@@@2@@2@U_tstring_less@@V?$allocator@V?$list@U?$pair@EV?$basic_string@DU?$char_traits@D@std@@V?$allocator@D@2@@std@@@std@@V?$allocator@U?$pair@EV?$basic_string@DU?$char_traits@D@std@@V?$allocator@D@2@@std@@@std@@@2@@std@@@2@@2@U_tstring_less@@V?$allocator@V?$list@U?$pair@EV?$basic_string@DU?$char_traits@D@std@@V?$allocator@D@2@@std@@@std@@V?$allocator@U?$pair@EV?$basic_string@DU?$char_traits@D@std@@V?$allocator@D@2@@std@@@std@@@2@@std@@@2@@std@@QBE_NABV012@@Z 0041ced0 f i FriendMgr.obj
 0001:0001bf00       ??0?$list@UONEPLAYER@CFriendMgr@@V?$allocator@UONEPLAYER@CFriendMgr@@@std@@@std@@QAE@ABV?$allocator@UONEPLAYER@CFriendMgr@@@1@@Z 0041cf00 f i FriendMgr.obj
 0001:0001bf40       ??1?$list@UONEPLAYER@CFriendMgr@@V?$allocator@UONEPLAYER@CFriendMgr@@@std@@@std@@QAE@XZ 0041cf40 f i FriendMgr.obj
 0001:0001bfa0       ?begin@?$list@UONEPLAYER@CFriendMgr@@V?$allocator@UONEPLAYER@CFriendMgr@@@std@@@std@@QAE?AViterator@12@XZ 0041cfa0 f i FriendMgr.obj
 0001:0001bfe0       ?end@?$list@UONEPLAYER@CFriendMgr@@V?$allocator@UONEPLAYER@CFriendMgr@@@std@@@std@@QAE?AViterator@12@XZ 0041cfe0 f i FriendMgr.obj
 0001:0001c010       ?size@?$list@UONEPLAYER@CFriendMgr@@V?$allocator@UONEPLAYER@CFriendMgr@@@std@@@std@@QBEIXZ 0041d010 f i FriendMgr.obj
 0001:0001c030       ?back@?$list@UONEPLAYER@CFriendMgr@@V?$allocator@UONEPLAYER@CFriendMgr@@@std@@@std@@QAEAAUONEPLAYER@CFriendMgr@@XZ 0041d030 f i FriendMgr.obj
 0001:0001c060       ?push_back@?$list@UONEPLAYER@CFriendMgr@@V?$allocator@UONEPLAYER@CFriendMgr@@@std@@@std@@QAEXABUONEPLAYER@CFriendMgr@@@Z 0041d060 f i FriendMgr.obj
 0001:0001c090       ?pop_back@?$list@UONEPLAYER@CFriendMgr@@V?$allocator@UONEPLAYER@CFriendMgr@@@std@@@std@@QAEXXZ 0041d090 f i FriendMgr.obj
 0001:0001c0c0       ??Diterator@?$list@UONEPLAYER@CFriendMgr@@V?$allocator@UONEPLAYER@CFriendMgr@@@std@@@std@@QBEAAUONEPLAYER@CFriendMgr@@XZ 0041d0c0 f i FriendMgr.obj
 0001:0001c0e0       ??Eiterator@?$list@UONEPLAYER@CFriendMgr@@V?$allocator@UONEPLAYER@CFriendMgr@@@std@@@std@@QAE?AV012@H@Z 0041d0e0 f i FriendMgr.obj
 0001:0001c110       ??9iterator@?$list@UONEPLAYER@CFriendMgr@@V?$allocator@UONEPLAYER@CFriendMgr@@@std@@@std@@QBE_NABV012@@Z 0041d110 f i FriendMgr.obj
 0001:0001c140       ??0?$list@V?$basic_string@DU?$char_traits@D@std@@V?$allocator@D@2@@std@@V?$allocator@V?$basic_string@DU?$char_traits@D@std@@V?$allocator@D@2@@std@@@2@@std@@QAE@ABV?$allocator@V?$basic_string@DU?$char_traits@D@std@@V?$allocator@D@2@@std@@@1@@Z 0041d140 f i FriendMgr.obj
 0001:0001c180       ??1?$list@V?$basic_string@DU?$char_traits@D@std@@V?$allocator@D@2@@std@@V?$allocator@V?$basic_string@DU?$char_traits@D@std@@V?$allocator@D@2@@std@@@2@@std@@QAE@XZ 0041d180 f i FriendMgr.obj
 0001:0001c1e0       ?begin@?$list@V?$basic_string@DU?$char_traits@D@std@@V?$allocator@D@2@@std@@V?$allocator@V?$basic_string@DU?$char_traits@D@std@@V?$allocator@D@2@@std@@@2@@std@@QAE?AViterator@12@XZ 0041d1e0 f i FriendMgr.obj
 0001:0001c220       ?end@?$list@V?$basic_string@DU?$char_traits@D@std@@V?$allocator@D@2@@std@@V?$allocator@V?$basic_string@DU?$char_traits@D@std@@V?$allocator@D@2@@std@@@2@@std@@QAE?AViterator@12@XZ 0041d220 f i FriendMgr.obj
 0001:0001c250       ?size@?$list@V?$basic_string@DU?$char_traits@D@std@@V?$allocator@D@2@@std@@V?$allocator@V?$basic_string@DU?$char_traits@D@std@@V?$allocator@D@2@@std@@@2@@std@@QBEIXZ 0041d250 f i FriendMgr.obj
 0001:0001c270       ?empty@?$list@V?$basic_string@DU?$char_traits@D@std@@V?$allocator@D@2@@std@@V?$allocator@V?$basic_string@DU?$char_traits@D@std@@V?$allocator@D@2@@std@@@2@@std@@QBE_NXZ 0041d270 f i FriendMgr.obj
 0001:0001c290       ?push_back@?$list@V?$basic_string@DU?$char_traits@D@std@@V?$allocator@D@2@@std@@V?$allocator@V?$basic_string@DU?$char_traits@D@std@@V?$allocator@D@2@@std@@@2@@std@@QAEXABV?$basic_string@DU?$char_traits@D@std@@V?$allocator@D@2@@2@@Z 0041d290 f i FriendMgr.obj
 0001:0001c2c0       ??Diterator@?$list@V?$basic_string@DU?$char_traits@D@std@@V?$allocator@D@2@@std@@V?$allocator@V?$basic_string@DU?$char_traits@D@std@@V?$allocator@D@2@@std@@@2@@std@@QBEAAV?$basic_string@DU?$char_traits@D@std@@V?$allocator@D@2@@2@XZ 0041d2c0 f i FriendMgr.obj
 0001:0001c2e0       ??Eiterator@?$list@V?$basic_string@DU?$char_traits@D@std@@V?$allocator@D@2@@std@@V?$allocator@V?$basic_string@DU?$char_traits@D@std@@V?$allocator@D@2@@std@@@2@@std@@QAE?AV012@H@Z 0041d2e0 f i FriendMgr.obj
 0001:0001c310       ??9iterator@?$list@V?$basic_string@DU?$char_traits@D@std@@V?$allocator@D@2@@std@@V?$allocator@V?$basic_string@DU?$char_traits@D@std@@V?$allocator@D@2@@std@@@2@@std@@QBE_NABV012@@Z 0041d310 f i FriendMgr.obj
 0001:0001c340       ?size@?$vector@V?$basic_string@DU?$char_traits@D@std@@V?$allocator@D@2@@std@@V?$allocator@V?$basic_string@DU?$char_traits@D@std@@V?$allocator@D@2@@std@@@2@@std@@QBEIXZ 0041d340 f i FriendMgr.obj
 0001:0001c380       ??0?$vector@Viterator@?$_Tree@V?$basic_string@DU?$char_traits@D@std@@V?$allocator@D@2@@std@@U?$pair@$$CBV?$basic_string@DU?$char_traits@D@std@@V?$allocator@D@2@@std@@UPLAYERINFO@CFriendMgr@@@2@U_Kfn@?$map@V?$basic_string@DU?$char_traits@D@std@@V?$allocator@D@2@@std@@UPLAYERINFO@CFriendMgr@@U_tstring_less@@V?$allocator@UPLAYERINFO@CFriendMgr@@@2@@2@U_tstring_less@@V?$allocator@UPLAYERINFO@CFriendMgr@@@2@@std@@V?$allocator@Viterator@?$_Tree@V?$basic_string@DU?$char_traits@D@std@@V?$allocator@D@2@@std@@U?$pair@$$CBV?$basic_string@DU?$char_traits@D@std@@V?$allocator@D@2@@std@@UPLAYERINFO@CFriendMgr@@@2@U_Kfn@?$map@V?$basic_string@DU?$char_traits@D@std@@V?$allocator@D@2@@std@@UPLAYERINFO@CFriendMgr@@U_tstring_less@@V?$allocator@UPLAYERINFO@CFriendMgr@@@2@@2@U_tstring_less@@V?$allocator@UPLAYERINFO@CFriendMgr@@@2@@std@@@3@@std@@QAE@ABV?$allocator@Viterator@?$_Tree@V?$basic_string@DU?$char_traits@D@std@@V?$allocator@D@2@@std@@U?$pair@$$CBV?$basic_string@DU?$char_traits@D@std@@V?$allocator@D@2@@std@@UPLAYERINFO@CFriendMgr@@@2@U_Kfn@?$map@V?$basic_string@DU?$char_traits@D@std@@V?$allocator@D@2@@std@@UPLAYERINFO@CFriendMgr@@U_tstring_less@@V?$allocator@UPLAYERINFO@CFriendMgr@@@2@@2@U_tstring_less@@V?$allocator@UPLAYERINFO@CFriendMgr@@@2@@std@@@1@@Z 0041d380 f i FriendMgr.obj
 0001:0001c3c0       ??1?$vector@Viterator@?$_Tree@V?$basic_string@DU?$char_traits@D@std@@V?$allocator@D@2@@std@@U?$pair@$$CBV?$basic_string@DU?$char_traits@D@std@@V?$allocator@D@2@@std@@UPLAYERINFO@CFriendMgr@@@2@U_Kfn@?$map@V?$basic_string@DU?$char_traits@D@std@@V?$allocator@D@2@@std@@UPLAYERINFO@CFriendMgr@@U_tstring_less@@V?$allocator@UPLAYERINFO@CFriendMgr@@@2@@2@U_tstring_less@@V?$allocator@UPLAYERINFO@CFriendMgr@@@2@@std@@V?$allocator@Viterator@?$_Tree@V?$basic_string@DU?$char_traits@D@std@@V?$allocator@D@2@@std@@U?$pair@$$CBV?$basic_string@DU?$char_traits@D@std@@V?$allocator@D@2@@std@@UPLAYERINFO@CFriendMgr@@@2@U_Kfn@?$map@V?$basic_string@DU?$char_traits@D@std@@V?$allocator@D@2@@std@@UPLAYERINFO@CFriendMgr@@U_tstring_less@@V?$allocator@UPLAYERINFO@CFriendMgr@@@2@@2@U_tstring_less@@V?$allocator@UPLAYERINFO@CFriendMgr@@@2@@std@@@3@@std@@QAE@XZ 0041d3c0 f i FriendMgr.obj
 0001:0001c420       ?size@?$vector@Viterator@?$_Tree@V?$basic_string@DU?$char_traits@D@std@@V?$allocator@D@2@@std@@U?$pair@$$CBV?$basic_string@DU?$char_traits@D@std@@V?$allocator@D@2@@std@@UPLAYERINFO@CFriendMgr@@@2@U_Kfn@?$map@V?$basic_string@DU?$char_traits@D@std@@V?$allocator@D@2@@std@@UPLAYERINFO@CFriendMgr@@U_tstring_less@@V?$allocator@UPLAYERINFO@CFriendMgr@@@2@@2@U_tstring_less@@V?$allocator@UPLAYERINFO@CFriendMgr@@@2@@std@@V?$allocator@Viterator@?$_Tree@V?$basic_string@DU?$char_traits@D@std@@V?$allocator@D@2@@std@@U?$pair@$$CBV?$basic_string@DU?$char_traits@D@std@@V?$allocator@D@2@@std@@UPLAYERINFO@CFriendMgr@@@2@U_Kfn@?$map@V?$basic_string@DU?$char_traits@D@std@@V?$allocator@D@2@@std@@UPLAYERINFO@CFriendMgr@@U_tstring_less@@V?$allocator@UPLAYERINFO@CFriendMgr@@@2@@2@U_tstring_less@@V?$allocator@UPLAYERINFO@CFriendMgr@@@2@@std@@@3@@std@@QBEIXZ 0041d420 f i FriendMgr.obj
 0001:0001c460       ??A?$vector@Viterator@?$_Tree@V?$basic_string@DU?$char_traits@D@std@@V?$allocator@D@2@@std@@U?$pair@$$CBV?$basic_string@DU?$char_traits@D@std@@V?$allocator@D@2@@std@@UPLAYERINFO@CFriendMgr@@@2@U_Kfn@?$map@V?$basic_string@DU?$char_traits@D@std@@V?$allocator@D@2@@std@@UPLAYERINFO@CFriendMgr@@U_tstring_less@@V?$allocator@UPLAYERINFO@CFriendMgr@@@2@@2@U_tstring_less@@V?$allocator@UPLAYERINFO@CFriendMgr@@@2@@std@@V?$allocator@Viterator@?$_Tree@V?$basic_string@DU?$char_traits@D@std@@V?$allocator@D@2@@std@@U?$pair@$$CBV?$basic_string@DU?$char_traits@D@std@@V?$allocator@D@2@@std@@UPLAYERINFO@CFriendMgr@@@2@U_Kfn@?$map@V?$basic_string@DU?$char_traits@D@std@@V?$allocator@D@2@@std@@UPLAYERINFO@CFriendMgr@@U_tstring_less@@V?$allocator@UPLAYERINFO@CFriendMgr@@@2@@2@U_tstring_less@@V?$allocator@UPLAYERINFO@CFriendMgr@@@2@@std@@@3@@std@@QAEAAViterator@?$_Tree@V?$basic_string@DU?$char_traits@D@std@@V?$allocator@D@2@@std@@U?$pair@$$CBV?$basic_string@DU?$char_traits@D@std@@V?$allocator@D@2@@std@@UPLAYERINFO@CFriendMgr@@@2@U_Kfn@?$map@V?$basic_string@DU?$char_traits@D@std@@V?$allocator@D@2@@std@@UPLAYERINFO@CFriendMgr@@U_tstring_less@@V?$allocator@UPLAYERINFO@CFriendMgr@@@2@@2@U_tstring_less@@V?$allocator@UPLAYERINFO@CFriendMgr@@@2@@1@I@Z 0041d460 f i FriendMgr.obj
 0001:0001c480       ?push_back@?$vector@Viterator@?$_Tree@V?$basic_string@DU?$char_traits@D@std@@V?$allocator@D@2@@std@@U?$pair@$$CBV?$basic_string@DU?$char_traits@D@std@@V?$allocator@D@2@@std@@UPLAYERINFO@CFriendMgr@@@2@U_Kfn@?$map@V?$basic_string@DU?$char_traits@D@std@@V?$allocator@D@2@@std@@UPLAYERINFO@CFriendMgr@@U_tstring_less@@V?$allocator@UPLAYERINFO@CFriendMgr@@@2@@2@U_tstring_less@@V?$allocator@UPLAYERINFO@CFriendMgr@@@2@@std@@V?$allocator@Viterator@?$_Tree@V?$basic_string@DU?$char_traits@D@std@@V?$allocator@D@2@@std@@U?$pair@$$CBV?$basic_string@DU?$char_traits@D@std@@V?$allocator@D@2@@std@@UPLAYERINFO@CFriendMgr@@@2@U_Kfn@?$map@V?$basic_string@DU?$char_traits@D@std@@V?$allocator@D@2@@std@@UPLAYERINFO@CFriendMgr@@U_tstring_less@@V?$allocator@UPLAYERINFO@CFriendMgr@@@2@@2@U_tstring_less@@V?$allocator@UPLAYERINFO@CFriendMgr@@@2@@std@@@3@@std@@QAEXABViterator@?$_Tree@V?$basic_string@DU?$char_traits@D@std@@V?$allocator@D@2@@std@@U?$pair@$$CBV?$basic_string@DU?$char_traits@D@std@@V?$allocator@D@2@@std@@UPLAYERINFO@CFriendMgr@@@2@U_Kfn@?$map@V?$basic_string@DU?$char_traits@D@std@@V?$allocator@D@2@@std@@UPLAYERINFO@CFriendMgr@@U_tstring_less@@V?$allocator@UPLAYERINFO@CFriendMgr@@@2@@2@U_tstring_less@@V?$allocator@UPLAYERINFO@CFriendMgr@@@2@@2@@Z 0041d480 f i FriendMgr.obj
 0001:0001c4b0       ??0FRIENDINFO@CFriendMgr@@QAE@ABU01@@Z 0041d4b0 f i FriendMgr.obj
 0001:0001c500       ??0PLAYERINFO@CFriendMgr@@QAE@ABU01@@Z 0041d500 f i FriendMgr.obj
 0001:0001c540       ??0ADDFRIENDVALUE@CFriendMgr@@QAE@XZ 0041d540 f i FriendMgr.obj
 0001:0001c560       ??1ADDFRIENDVALUE@CFriendMgr@@QAE@XZ 0041d560 f i FriendMgr.obj
 0001:0001c580       ??1?$pair@$$CBUADDFRIENDKEY@CFriendMgr@@UADDFRIENDVALUE@2@@std@@QAE@XZ 0041d580 f i FriendMgr.obj
 0001:0001c5d0       ??1?$pair@$$CBKV?$list@UtagPlusSrcInfo@@V?$allocator@UtagPlusSrcInfo@@@std@@@std@@@std@@QAE@XZ 0041d5d0 f i FriendMgr.obj
 0001:0001c5f0       ??1?$pair@$$CBV?$basic_string@DU?$char_traits@D@std@@V?$allocator@D@2@@std@@V?$list@U?$pair@EV?$basic_string@DU?$char_traits@D@std@@V?$allocator@D@2@@std@@@std@@V?$allocator@U?$pair@EV?$basic_string@DU?$char_traits@D@std@@V?$allocator@D@2@@std@@@std@@@2@@2@@std@@QAE@XZ 0041d5f0 f i FriendMgr.obj
 0001:0001c640       ??0?$map@V?$basic_string@DU?$char_traits@D@std@@V?$allocator@D@2@@std@@UFRIENDINFO@CFriendMgr@@U_tstring_less@@V?$allocator@UFRIENDINFO@CFriendMgr@@@2@@std@@QAE@ABV01@@Z 0041d640 f i FriendMgr.obj
 0001:0001c660       ?_Value@?$_Tree@V?$basic_string@DU?$char_traits@D@std@@V?$allocator@D@2@@std@@U?$pair@$$CBV?$basic_string@DU?$char_traits@D@std@@V?$allocator@D@2@@std@@UFRIENDINFO@CFriendMgr@@@2@U_Kfn@?$map@V?$basic_string@DU?$char_traits@D@std@@V?$allocator@D@2@@std@@UFRIENDINFO@CFriendMgr@@U_tstring_less@@V?$allocator@UFRIENDINFO@CFriendMgr@@@2@@2@U_tstring_less@@V?$allocator@UFRIENDINFO@CFriendMgr@@@2@@std@@KAAAU?$pair@$$CBV?$basic_string@DU?$char_traits@D@std@@V?$allocator@D@2@@std@@UFRIENDINFO@CFriendMgr@@@2@PAU_Node@12@@Z 0041d660 f i FriendMgr.obj
 0001:0001c670       ??0?$_Tree@V?$basic_string@DU?$char_traits@D@std@@V?$allocator@D@2@@std@@U?$pair@$$CBV?$basic_string@DU?$char_traits@D@std@@V?$allocator@D@2@@std@@UFRIENDINFO@CFriendMgr@@@2@U_Kfn@?$map@V?$basic_string@DU?$char_traits@D@std@@V?$allocator@D@2@@std@@UFRIENDINFO@CFriendMgr@@U_tstring_less@@V?$allocator@UFRIENDINFO@CFriendMgr@@@2@@2@U_tstring_less@@V?$allocator@UFRIENDINFO@CFriendMgr@@@2@@std@@QAE@ABU_tstring_less@@_NABV?$allocator@UFRIENDINFO@CFriendMgr@@@1@@Z 0041d670 f i FriendMgr.obj
 0001:0001c6b0       ??0?$_Tree@V?$basic_string@DU?$char_traits@D@std@@V?$allocator@D@2@@std@@U?$pair@$$CBV?$basic_string@DU?$char_traits@D@std@@V?$allocator@D@2@@std@@UFRIENDINFO@CFriendMgr@@@2@U_Kfn@?$map@V?$basic_string@DU?$char_traits@D@std@@V?$allocator@D@2@@std@@UFRIENDINFO@CFriendMgr@@U_tstring_less@@V?$allocator@UFRIENDINFO@CFriendMgr@@@2@@2@U_tstring_less@@V?$allocator@UFRIENDINFO@CFriendMgr@@@2@@std@@QAE@ABV01@@Z 0041d6b0 f i FriendMgr.obj
 0001:0001c700       ?begin@?$_Tree@V?$basic_string@DU?$char_traits@D@std@@V?$allocator@D@2@@std@@U?$pair@$$CBV?$basic_string@DU?$char_traits@D@std@@V?$allocator@D@2@@std@@UFRIENDINFO@CFriendMgr@@@2@U_Kfn@?$map@V?$basic_string@DU?$char_traits@D@std@@V?$allocator@D@2@@std@@UFRIENDINFO@CFriendMgr@@U_tstring_less@@V?$allocator@UFRIENDINFO@CFriendMgr@@@2@@2@U_tstring_less@@V?$allocator@UFRIENDINFO@CFriendMgr@@@2@@std@@QAE?AViterator@12@XZ 0041d700 f i FriendMgr.obj
 0001:0001c730       ?end@?$_Tree@V?$basic_string@DU?$char_traits@D@std@@V?$allocator@D@2@@std@@U?$pair@$$CBV?$basic_string@DU?$char_traits@D@std@@V?$allocator@D@2@@std@@UFRIENDINFO@CFriendMgr@@@2@U_Kfn@?$map@V?$basic_string@DU?$char_traits@D@std@@V?$allocator@D@2@@std@@UFRIENDINFO@CFriendMgr@@U_tstring_less@@V?$allocator@UFRIENDINFO@CFriendMgr@@@2@@2@U_tstring_less@@V?$allocator@UFRIENDINFO@CFriendMgr@@@2@@std@@QAE?AViterator@12@XZ 0041d730 f i FriendMgr.obj
 0001:0001c760       ?insert@?$_Tree@V?$basic_string@DU?$char_traits@D@std@@V?$allocator@D@2@@std@@U?$pair@$$CBV?$basic_string@DU?$char_traits@D@std@@V?$allocator@D@2@@std@@UFRIENDINFO@CFriendMgr@@@2@U_Kfn@?$map@V?$basic_string@DU?$char_traits@D@std@@V?$allocator@D@2@@std@@UFRIENDINFO@CFriendMgr@@U_tstring_less@@V?$allocator@UFRIENDINFO@CFriendMgr@@@2@@2@U_tstring_less@@V?$allocator@UFRIENDINFO@CFriendMgr@@@2@@std@@QAE?AU?$pair@Viterator@?$_Tree@V?$basic_string@DU?$char_traits@D@std@@V?$allocator@D@2@@std@@U?$pair@$$CBV?$basic_string@DU?$char_traits@D@std@@V?$allocator@D@2@@std@@UFRIENDINFO@CFriendMgr@@@2@U_Kfn@?$map@V?$basic_string@DU?$char_traits@D@std@@V?$allocator@D@2@@std@@UFRIENDINFO@CFriendMgr@@U_tstring_less@@V?$allocator@UFRIENDINFO@CFriendMgr@@@2@@2@U_tstring_less@@V?$allocator@UFRIENDINFO@CFriendMgr@@@2@@std@@_N@2@ABU?$pair@$$CBV?$basic_string@DU?$char_traits@D@std@@V?$allocator@D@2@@std@@UFRIENDINFO@CFriendMgr@@@2@@Z 0041d760 f i FriendMgr.obj
 0001:0001c9a0       ?erase@?$_Tree@V?$basic_string@DU?$char_traits@D@std@@V?$allocator@D@2@@std@@U?$pair@$$CBV?$basic_string@DU?$char_traits@D@std@@V?$allocator@D@2@@std@@UFRIENDINFO@CFriendMgr@@@2@U_Kfn@?$map@V?$basic_string@DU?$char_traits@D@std@@V?$allocator@D@2@@std@@UFRIENDINFO@CFriendMgr@@U_tstring_less@@V?$allocator@UFRIENDINFO@CFriendMgr@@@2@@2@U_tstring_less@@V?$allocator@UFRIENDINFO@CFriendMgr@@@2@@std@@QAE?AViterator@12@V312@@Z 0041d9a0 f i FriendMgr.obj
 0001:0001d1f0       ?erase@?$_Tree@V?$basic_string@DU?$char_traits@D@std@@V?$allocator@D@2@@std@@U?$pair@$$CBV?$basic_string@DU?$char_traits@D@std@@V?$allocator@D@2@@std@@UFRIENDINFO@CFriendMgr@@@2@U_Kfn@?$map@V?$basic_string@DU?$char_traits@D@std@@V?$allocator@D@2@@std@@UFRIENDINFO@CFriendMgr@@U_tstring_less@@V?$allocator@UFRIENDINFO@CFriendMgr@@@2@@2@U_tstring_less@@V?$allocator@UFRIENDINFO@CFriendMgr@@@2@@std@@QAE?AViterator@12@V312@0@Z 0041e1f0 f i FriendMgr.obj
 0001:0001d330       ?erase@?$_Tree@V?$basic_string@DU?$char_traits@D@std@@V?$allocator@D@2@@std@@U?$pair@$$CBV?$basic_string@DU?$char_traits@D@std@@V?$allocator@D@2@@std@@UFRIENDINFO@CFriendMgr@@@2@U_Kfn@?$map@V?$basic_string@DU?$char_traits@D@std@@V?$allocator@D@2@@std@@UFRIENDINFO@CFriendMgr@@U_tstring_less@@V?$allocator@UFRIENDINFO@CFriendMgr@@@2@@2@U_tstring_less@@V?$allocator@UFRIENDINFO@CFriendMgr@@@2@@std@@QAEIABV?$basic_string@DU?$char_traits@D@std@@V?$allocator@D@2@@2@@Z 0041e330 f i FriendMgr.obj
 0001:0001d390       ?find@?$_Tree@V?$basic_string@DU?$char_traits@D@std@@V?$allocator@D@2@@std@@U?$pair@$$CBV?$basic_string@DU?$char_traits@D@std@@V?$allocator@D@2@@std@@UFRIENDINFO@CFriendMgr@@@2@U_Kfn@?$map@V?$basic_string@DU?$char_traits@D@std@@V?$allocator@D@2@@std@@UFRIENDINFO@CFriendMgr@@U_tstring_less@@V?$allocator@UFRIENDINFO@CFriendMgr@@@2@@2@U_tstring_less@@V?$allocator@UFRIENDINFO@CFriendMgr@@@2@@std@@QAE?AViterator@12@ABV?$basic_string@DU?$char_traits@D@std@@V?$allocator@D@2@@2@@Z 0041e390 f i FriendMgr.obj
 0001:0001d430       ?_Freenode@?$_Tree@V?$basic_string@DU?$char_traits@D@std@@V?$allocator@D@2@@std@@U?$pair@$$CBV?$basic_string@DU?$char_traits@D@std@@V?$allocator@D@2@@std@@UFRIENDINFO@CFriendMgr@@@2@U_Kfn@?$map@V?$basic_string@DU?$char_traits@D@std@@V?$allocator@D@2@@std@@UFRIENDINFO@CFriendMgr@@U_tstring_less@@V?$allocator@UFRIENDINFO@CFriendMgr@@@2@@2@U_tstring_less@@V?$allocator@UFRIENDINFO@CFriendMgr@@@2@@std@@IAEXPAU_Node@12@@Z 0041e430 f i FriendMgr.obj
 0001:0001d450       ??Eiterator@?$_Tree@V?$basic_string@DU?$char_traits@D@std@@V?$allocator@D@2@@std@@U?$pair@$$CBV?$basic_string@DU?$char_traits@D@std@@V?$allocator@D@2@@std@@UFRIENDINFO@CFriendMgr@@@2@U_Kfn@?$map@V?$basic_string@DU?$char_traits@D@std@@V?$allocator@D@2@@std@@UFRIENDINFO@CFriendMgr@@U_tstring_less@@V?$allocator@UFRIENDINFO@CFriendMgr@@@2@@2@U_tstring_less@@V?$allocator@UFRIENDINFO@CFriendMgr@@@2@@std@@QAEAAV012@XZ 0041e450 f i FriendMgr.obj
 0001:0001d470       ?_Value@?$_Tree@V?$basic_string@DU?$char_traits@D@std@@V?$allocator@D@2@@std@@U?$pair@$$CBV?$basic_string@DU?$char_traits@D@std@@V?$allocator@D@2@@std@@UPLAYERINFO@CFriendMgr@@@2@U_Kfn@?$map@V?$basic_string@DU?$char_traits@D@std@@V?$allocator@D@2@@std@@UPLAYERINFO@CFriendMgr@@U_tstring_less@@V?$allocator@UPLAYERINFO@CFriendMgr@@@2@@2@U_tstring_less@@V?$allocator@UPLAYERINFO@CFriendMgr@@@2@@std@@KAAAU?$pair@$$CBV?$basic_string@DU?$char_traits@D@std@@V?$allocator@D@2@@std@@UPLAYERINFO@CFriendMgr@@@2@PAU_Node@12@@Z 0041e470 f i FriendMgr.obj
 0001:0001d480       ??0?$_Tree@V?$basic_string@DU?$char_traits@D@std@@V?$allocator@D@2@@std@@U?$pair@$$CBV?$basic_string@DU?$char_traits@D@std@@V?$allocator@D@2@@std@@UPLAYERINFO@CFriendMgr@@@2@U_Kfn@?$map@V?$basic_string@DU?$char_traits@D@std@@V?$allocator@D@2@@std@@UPLAYERINFO@CFriendMgr@@U_tstring_less@@V?$allocator@UPLAYERINFO@CFriendMgr@@@2@@2@U_tstring_less@@V?$allocator@UPLAYERINFO@CFriendMgr@@@2@@std@@QAE@ABU_tstring_less@@_NABV?$allocator@UPLAYERINFO@CFriendMgr@@@1@@Z 0041e480 f i FriendMgr.obj
 0001:0001d4c0       ?begin@?$_Tree@V?$basic_string@DU?$char_traits@D@std@@V?$allocator@D@2@@std@@U?$pair@$$CBV?$basic_string@DU?$char_traits@D@std@@V?$allocator@D@2@@std@@UPLAYERINFO@CFriendMgr@@@2@U_Kfn@?$map@V?$basic_string@DU?$char_traits@D@std@@V?$allocator@D@2@@std@@UPLAYERINFO@CFriendMgr@@U_tstring_less@@V?$allocator@UPLAYERINFO@CFriendMgr@@@2@@2@U_tstring_less@@V?$allocator@UPLAYERINFO@CFriendMgr@@@2@@std@@QAE?AViterator@12@XZ 0041e4c0 f i FriendMgr.obj
 0001:0001d4f0       ?end@?$_Tree@V?$basic_string@DU?$char_traits@D@std@@V?$allocator@D@2@@std@@U?$pair@$$CBV?$basic_string@DU?$char_traits@D@std@@V?$allocator@D@2@@std@@UPLAYERINFO@CFriendMgr@@@2@U_Kfn@?$map@V?$basic_string@DU?$char_traits@D@std@@V?$allocator@D@2@@std@@UPLAYERINFO@CFriendMgr@@U_tstring_less@@V?$allocator@UPLAYERINFO@CFriendMgr@@@2@@2@U_tstring_less@@V?$allocator@UPLAYERINFO@CFriendMgr@@@2@@std@@QAE?AViterator@12@XZ 0041e4f0 f i FriendMgr.obj
 0001:0001d520       ?size@?$_Tree@V?$basic_string@DU?$char_traits@D@std@@V?$allocator@D@2@@std@@U?$pair@$$CBV?$basic_string@DU?$char_traits@D@std@@V?$allocator@D@2@@std@@UPLAYERINFO@CFriendMgr@@@2@U_Kfn@?$map@V?$basic_string@DU?$char_traits@D@std@@V?$allocator@D@2@@std@@UPLAYERINFO@CFriendMgr@@U_tstring_less@@V?$allocator@UPLAYERINFO@CFriendMgr@@@2@@2@U_tstring_less@@V?$allocator@UPLAYERINFO@CFriendMgr@@@2@@std@@QBEIXZ 0041e520 f i FriendMgr.obj
 0001:0001d540       ?insert@?$_Tree@V?$basic_string@DU?$char_traits@D@std@@V?$allocator@D@2@@std@@U?$pair@$$CBV?$basic_string@DU?$char_traits@D@std@@V?$allocator@D@2@@std@@UPLAYERINFO@CFriendMgr@@@2@U_Kfn@?$map@V?$basic_string@DU?$char_traits@D@std@@V?$allocator@D@2@@std@@UPLAYERINFO@CFriendMgr@@U_tstring_less@@V?$allocator@UPLAYERINFO@CFriendMgr@@@2@@2@U_tstring_less@@V?$allocator@UPLAYERINFO@CFriendMgr@@@2@@std@@QAE?AU?$pair@Viterator@?$_Tree@V?$basic_string@DU?$char_traits@D@std@@V?$allocator@D@2@@std@@U?$pair@$$CBV?$basic_string@DU?$char_traits@D@std@@V?$allocator@D@2@@std@@UPLAYERINFO@CFriendMgr@@@2@U_Kfn@?$map@V?$basic_string@DU?$char_traits@D@std@@V?$allocator@D@2@@std@@UPLAYERINFO@CFriendMgr@@U_tstring_less@@V?$allocator@UPLAYERINFO@CFriendMgr@@@2@@2@U_tstring_less@@V?$allocator@UPLAYERINFO@CFriendMgr@@@2@@std@@_N@2@ABU?$pair@$$CBV?$basic_string@DU?$char_traits@D@std@@V?$allocator@D@2@@std@@UPLAYERINFO@CFriendMgr@@@2@@Z 0041e540 f i FriendMgr.obj
 0001:0001d780       ?erase@?$_Tree@V?$basic_string@DU?$char_traits@D@std@@V?$allocator@D@2@@std@@U?$pair@$$CBV?$basic_string@DU?$char_traits@D@std@@V?$allocator@D@2@@std@@UPLAYERINFO@CFriendMgr@@@2@U_Kfn@?$map@V?$basic_string@DU?$char_traits@D@std@@V?$allocator@D@2@@std@@UPLAYERINFO@CFriendMgr@@U_tstring_less@@V?$allocator@UPLAYERINFO@CFriendMgr@@@2@@2@U_tstring_less@@V?$allocator@UPLAYERINFO@CFriendMgr@@@2@@std@@QAE?AViterator@12@V312@0@Z 0041e780 f i FriendMgr.obj
 0001:0001d8c0       ?clear@?$_Tree@V?$basic_string@DU?$char_traits@D@std@@V?$allocator@D@2@@std@@U?$pair@$$CBV?$basic_string@DU?$char_traits@D@std@@V?$allocator@D@2@@std@@UPLAYERINFO@CFriendMgr@@@2@U_Kfn@?$map@V?$basic_string@DU?$char_traits@D@std@@V?$allocator@D@2@@std@@UPLAYERINFO@CFriendMgr@@U_tstring_less@@V?$allocator@UPLAYERINFO@CFriendMgr@@@2@@2@U_tstring_less@@V?$allocator@UPLAYERINFO@CFriendMgr@@@2@@std@@QAEXXZ 0041e8c0 f i FriendMgr.obj
 0001:0001d900       ?find@?$_Tree@V?$basic_string@DU?$char_traits@D@std@@V?$allocator@D@2@@std@@U?$pair@$$CBV?$basic_string@DU?$char_traits@D@std@@V?$allocator@D@2@@std@@UPLAYERINFO@CFriendMgr@@@2@U_Kfn@?$map@V?$basic_string@DU?$char_traits@D@std@@V?$allocator@D@2@@std@@UPLAYERINFO@CFriendMgr@@U_tstring_less@@V?$allocator@UPLAYERINFO@CFriendMgr@@@2@@2@U_tstring_less@@V?$allocator@UPLAYERINFO@CFriendMgr@@@2@@std@@QAE?AViterator@12@ABV?$basic_string@DU?$char_traits@D@std@@V?$allocator@D@2@@2@@Z 0041e900 f i FriendMgr.obj
 0001:0001d9a0       ?_Freenode@?$_Tree@V?$basic_string@DU?$char_traits@D@std@@V?$allocator@D@2@@std@@U?$pair@$$CBV?$basic_string@DU?$char_traits@D@std@@V?$allocator@D@2@@std@@UPLAYERINFO@CFriendMgr@@@2@U_Kfn@?$map@V?$basic_string@DU?$char_traits@D@std@@V?$allocator@D@2@@std@@UPLAYERINFO@CFriendMgr@@U_tstring_less@@V?$allocator@UPLAYERINFO@CFriendMgr@@@2@@2@U_tstring_less@@V?$allocator@UPLAYERINFO@CFriendMgr@@@2@@std@@IAEXPAU_Node@12@@Z 0041e9a0 f i FriendMgr.obj
 0001:0001d9c0       ??0const_iterator@?$_Tree@V?$basic_string@DU?$char_traits@D@std@@V?$allocator@D@2@@std@@U?$pair@$$CBV?$basic_string@DU?$char_traits@D@std@@V?$allocator@D@2@@std@@UPLAYERINFO@CFriendMgr@@@2@U_Kfn@?$map@V?$basic_string@DU?$char_traits@D@std@@V?$allocator@D@2@@std@@UPLAYERINFO@CFriendMgr@@U_tstring_less@@V?$allocator@UPLAYERINFO@CFriendMgr@@@2@@2@U_tstring_less@@V?$allocator@UPLAYERINFO@CFriendMgr@@@2@@std@@QAE@XZ 0041e9c0 f i FriendMgr.obj
 0001:0001d9d0       ?_Dec@const_iterator@?$_Tree@V?$basic_string@DU?$char_traits@D@std@@V?$allocator@D@2@@std@@U?$pair@$$CBV?$basic_string@DU?$char_traits@D@std@@V?$allocator@D@2@@std@@UPLAYERINFO@CFriendMgr@@@2@U_Kfn@?$map@V?$basic_string@DU?$char_traits@D@std@@V?$allocator@D@2@@std@@UPLAYERINFO@CFriendMgr@@U_tstring_less@@V?$allocator@UPLAYERINFO@CFriendMgr@@@2@@2@U_tstring_less@@V?$allocator@UPLAYERINFO@CFriendMgr@@@2@@std@@QAEXXZ 0041e9d0 f i FriendMgr.obj
 0001:0001dae0       ?_Inc@const_iterator@?$_Tree@V?$basic_string@DU?$char_traits@D@std@@V?$allocator@D@2@@std@@U?$pair@$$CBV?$basic_string@DU?$char_traits@D@std@@V?$allocator@D@2@@std@@UPLAYERINFO@CFriendMgr@@@2@U_Kfn@?$map@V?$basic_string@DU?$char_traits@D@std@@V?$allocator@D@2@@std@@UPLAYERINFO@CFriendMgr@@U_tstring_less@@V?$allocator@UPLAYERINFO@CFriendMgr@@@2@@2@U_tstring_less@@V?$allocator@UPLAYERINFO@CFriendMgr@@@2@@std@@QAEXXZ 0041eae0 f i FriendMgr.obj
 0001:0001dbc0       ?insert@?$map@UADDFRIENDKEY@CFriendMgr@@UADDFRIENDVALUE@2@U?$less@UADDFRIENDKEY@CFriendMgr@@@std@@V?$allocator@UADDFRIENDVALUE@CFriendMgr@@@5@@std@@QAE?AU?$pair@Viterator@?$_Tree@UADDFRIENDKEY@CFriendMgr@@U?$pair@$$CBUADDFRIENDKEY@CFriendMgr@@UADDFRIENDVALUE@2@@std@@U_Kfn@?$map@UADDFRIENDKEY@CFriendMgr@@UADDFRIENDVALUE@2@U?$less@UADDFRIENDKEY@CFriendMgr@@@std@@V?$allocator@UADDFRIENDVALUE@CFriendMgr@@@5@@4@U?$less@UADDFRIENDKEY@CFriendMgr@@@4@V?$allocator@UADDFRIENDVALUE@CFriendMgr@@@4@@std@@_N@2@ABU?$pair@$$CBUADDFRIENDKEY@CFriendMgr@@UADDFRIENDVALUE@2@@2@@Z 0041ebc0 f i FriendMgr.obj
 0001:0001dc10       ?_Value@?$_Tree@UADDFRIENDKEY@CFriendMgr@@U?$pair@$$CBUADDFRIENDKEY@CFriendMgr@@UADDFRIENDVALUE@2@@std@@U_Kfn@?$map@UADDFRIENDKEY@CFriendMgr@@UADDFRIENDVALUE@2@U?$less@UADDFRIENDKEY@CFriendMgr@@@std@@V?$allocator@UADDFRIENDVALUE@CFriendMgr@@@5@@4@U?$less@UADDFRIENDKEY@CFriendMgr@@@4@V?$allocator@UADDFRIENDVALUE@CFriendMgr@@@4@@std@@KAAAU?$pair@$$CBUADDFRIENDKEY@CFriendMgr@@UADDFRIENDVALUE@2@@2@PAU_Node@12@@Z 0041ec10 f i FriendMgr.obj
 0001:0001dc20       ??0?$_Tree@UADDFRIENDKEY@CFriendMgr@@U?$pair@$$CBUADDFRIENDKEY@CFriendMgr@@UADDFRIENDVALUE@2@@std@@U_Kfn@?$map@UADDFRIENDKEY@CFriendMgr@@UADDFRIENDVALUE@2@U?$less@UADDFRIENDKEY@CFriendMgr@@@std@@V?$allocator@UADDFRIENDVALUE@CFriendMgr@@@5@@4@U?$less@UADDFRIENDKEY@CFriendMgr@@@4@V?$allocator@UADDFRIENDVALUE@CFriendMgr@@@4@@std@@QAE@ABU?$less@UADDFRIENDKEY@CFriendMgr@@@1@_NABV?$allocator@UADDFRIENDVALUE@CFriendMgr@@@1@@Z 0041ec20 f i FriendMgr.obj
 0001:0001dc60       ?begin@?$_Tree@UADDFRIENDKEY@CFriendMgr@@U?$pair@$$CBUADDFRIENDKEY@CFriendMgr@@UADDFRIENDVALUE@2@@std@@U_Kfn@?$map@UADDFRIENDKEY@CFriendMgr@@UADDFRIENDVALUE@2@U?$less@UADDFRIENDKEY@CFriendMgr@@@std@@V?$allocator@UADDFRIENDVALUE@CFriendMgr@@@5@@4@U?$less@UADDFRIENDKEY@CFriendMgr@@@4@V?$allocator@UADDFRIENDVALUE@CFriendMgr@@@4@@std@@QAE?AViterator@12@XZ 0041ec60 f i FriendMgr.obj
 0001:0001dc90       ?end@?$_Tree@UADDFRIENDKEY@CFriendMgr@@U?$pair@$$CBUADDFRIENDKEY@CFriendMgr@@UADDFRIENDVALUE@2@@std@@U_Kfn@?$map@UADDFRIENDKEY@CFriendMgr@@UADDFRIENDVALUE@2@U?$less@UADDFRIENDKEY@CFriendMgr@@@std@@V?$allocator@UADDFRIENDVALUE@CFriendMgr@@@5@@4@U?$less@UADDFRIENDKEY@CFriendMgr@@@4@V?$allocator@UADDFRIENDVALUE@CFriendMgr@@@4@@std@@QAE?AViterator@12@XZ 0041ec90 f i FriendMgr.obj
 0001:0001dcc0       ?size@?$_Tree@UADDFRIENDKEY@CFriendMgr@@U?$pair@$$CBUADDFRIENDKEY@CFriendMgr@@UADDFRIENDVALUE@2@@std@@U_Kfn@?$map@UADDFRIENDKEY@CFriendMgr@@UADDFRIENDVALUE@2@U?$less@UADDFRIENDKEY@CFriendMgr@@@std@@V?$allocator@UADDFRIENDVALUE@CFriendMgr@@@5@@4@U?$less@UADDFRIENDKEY@CFriendMgr@@@4@V?$allocator@UADDFRIENDVALUE@CFriendMgr@@@4@@std@@QBEIXZ 0041ecc0 f i FriendMgr.obj
 0001:0001dce0       ?erase@?$_Tree@UADDFRIENDKEY@CFriendMgr@@U?$pair@$$CBUADDFRIENDKEY@CFriendMgr@@UADDFRIENDVALUE@2@@std@@U_Kfn@?$map@UADDFRIENDKEY@CFriendMgr@@UADDFRIENDVALUE@2@U?$less@UADDFRIENDKEY@CFriendMgr@@@std@@V?$allocator@UADDFRIENDVALUE@CFriendMgr@@@5@@4@U?$less@UADDFRIENDKEY@CFriendMgr@@@4@V?$allocator@UADDFRIENDVALUE@CFriendMgr@@@4@@std@@QAE?AViterator@12@V312@@Z 0041ece0 f i FriendMgr.obj
 0001:0001e530       ?erase@?$_Tree@UADDFRIENDKEY@CFriendMgr@@U?$pair@$$CBUADDFRIENDKEY@CFriendMgr@@UADDFRIENDVALUE@2@@std@@U_Kfn@?$map@UADDFRIENDKEY@CFriendMgr@@UADDFRIENDVALUE@2@U?$less@UADDFRIENDKEY@CFriendMgr@@@std@@V?$allocator@UADDFRIENDVALUE@CFriendMgr@@@5@@4@U?$less@UADDFRIENDKEY@CFriendMgr@@@4@V?$allocator@UADDFRIENDVALUE@CFriendMgr@@@4@@std@@QAE?AViterator@12@V312@0@Z 0041f530 f i FriendMgr.obj
 0001:0001e670       ?find@?$_Tree@UADDFRIENDKEY@CFriendMgr@@U?$pair@$$CBUADDFRIENDKEY@CFriendMgr@@UADDFRIENDVALUE@2@@std@@U_Kfn@?$map@UADDFRIENDKEY@CFriendMgr@@UADDFRIENDVALUE@2@U?$less@UADDFRIENDKEY@CFriendMgr@@@std@@V?$allocator@UADDFRIENDVALUE@CFriendMgr@@@5@@4@U?$less@UADDFRIENDKEY@CFriendMgr@@@4@V?$allocator@UADDFRIENDVALUE@CFriendMgr@@@4@@std@@QAE?AViterator@12@ABUADDFRIENDKEY@CFriendMgr@@@Z 0041f670 f i FriendMgr.obj
 0001:0001e710       ?_Freenode@?$_Tree@UADDFRIENDKEY@CFriendMgr@@U?$pair@$$CBUADDFRIENDKEY@CFriendMgr@@UADDFRIENDVALUE@2@@std@@U_Kfn@?$map@UADDFRIENDKEY@CFriendMgr@@UADDFRIENDVALUE@2@U?$less@UADDFRIENDKEY@CFriendMgr@@@std@@V?$allocator@UADDFRIENDVALUE@CFriendMgr@@@5@@4@U?$less@UADDFRIENDKEY@CFriendMgr@@@4@V?$allocator@UADDFRIENDVALUE@CFriendMgr@@@4@@std@@IAEXPAU_Node@12@@Z 0041f710 f i FriendMgr.obj
 0001:0001e730       ??0?$pair@$$CBUADDFRIENDKEY@CFriendMgr@@UADDFRIENDVALUE@2@@std@@QAE@ABUADDFRIENDKEY@CFriendMgr@@ABUADDFRIENDVALUE@3@@Z 0041f730 f i FriendMgr.obj
 0001:0001e790       ?insert@?$list@UMEM_FRIENDRECORD@CFriendMgr@@V?$allocator@UMEM_FRIENDRECORD@CFriendMgr@@@std@@@std@@QAE?AViterator@12@V312@ABUMEM_FRIENDRECORD@CFriendMgr@@@Z 0041f790 f i FriendMgr.obj
 0001:0001e850       ?erase@?$list@UMEM_FRIENDRECORD@CFriendMgr@@V?$allocator@UMEM_FRIENDRECORD@CFriendMgr@@@std@@@std@@QAE?AViterator@12@V312@0@Z 0041f850 f i FriendMgr.obj
 0001:0001e8a0       ?_Buynode@?$list@UMEM_FRIENDRECORD@CFriendMgr@@V?$allocator@UMEM_FRIENDRECORD@CFriendMgr@@@std@@@std@@IAEPAU_Node@12@PAU312@0@Z 0041f8a0 f i FriendMgr.obj
 0001:0001e910       ?_Freenode@?$list@UMEM_FRIENDRECORD@CFriendMgr@@V?$allocator@UMEM_FRIENDRECORD@CFriendMgr@@@std@@@std@@IAEXPAU_Node@12@@Z 0041f910 f i FriendMgr.obj
 0001:0001e930       ?_Next@_Acc@?$list@UMEM_FRIENDRECORD@CFriendMgr@@V?$allocator@UMEM_FRIENDRECORD@CFriendMgr@@@std@@@std@@SAAAPAU_Node@23@PAU423@@Z 0041f930 f i FriendMgr.obj
 0001:0001e940       ?_Value@_Acc@?$list@UMEM_FRIENDRECORD@CFriendMgr@@V?$allocator@UMEM_FRIENDRECORD@CFriendMgr@@@std@@@std@@SAAAUMEM_FRIENDRECORD@CFriendMgr@@PAU_Node@23@@Z 0041f940 f i FriendMgr.obj
 0001:0001e950       ??0const_iterator@?$list@UMEM_FRIENDRECORD@CFriendMgr@@V?$allocator@UMEM_FRIENDRECORD@CFriendMgr@@@std@@@std@@QAE@PAU_Node@12@@Z 0041f950 f i FriendMgr.obj
 0001:0001e970       ??Econst_iterator@?$list@UMEM_FRIENDRECORD@CFriendMgr@@V?$allocator@UMEM_FRIENDRECORD@CFriendMgr@@@std@@@std@@QAEAAV012@XZ 0041f970 f i FriendMgr.obj
 0001:0001e9a0       ??8const_iterator@?$list@UMEM_FRIENDRECORD@CFriendMgr@@V?$allocator@UMEM_FRIENDRECORD@CFriendMgr@@@std@@@std@@QBE_NABV012@@Z 0041f9a0 f i FriendMgr.obj
 0001:0001e9c0       ??0iterator@?$list@UMEM_FRIENDRECORD@CFriendMgr@@V?$allocator@UMEM_FRIENDRECORD@CFriendMgr@@@std@@@std@@QAE@PAU_Node@12@@Z 0041f9c0 f i FriendMgr.obj
 0001:0001e9e0       ??Eiterator@?$list@UMEM_FRIENDRECORD@CFriendMgr@@V?$allocator@UMEM_FRIENDRECORD@CFriendMgr@@@std@@@std@@QAEAAV012@XZ 0041f9e0 f i FriendMgr.obj
 0001:0001ea10       ??8iterator@?$list@UMEM_FRIENDRECORD@CFriendMgr@@V?$allocator@UMEM_FRIENDRECORD@CFriendMgr@@@std@@@std@@QBE_NABV012@@Z 0041fa10 f i FriendMgr.obj
 0001:0001ea30       ?insert@?$map@KV?$list@UtagPlusSrcInfo@@V?$allocator@UtagPlusSrcInfo@@@std@@@std@@U?$less@K@2@V?$allocator@V?$list@UtagPlusSrcInfo@@V?$allocator@UtagPlusSrcInfo@@@std@@@std@@@2@@std@@QAE?AU?$pair@Viterator@?$_Tree@KU?$pair@$$CBKV?$list@UtagPlusSrcInfo@@V?$allocator@UtagPlusSrcInfo@@@std@@@std@@@std@@U_Kfn@?$map@KV?$list@UtagPlusSrcInfo@@V?$allocator@UtagPlusSrcInfo@@@std@@@std@@U?$less@K@2@V?$allocator@V?$list@UtagPlusSrcInfo@@V?$allocator@UtagPlusSrcInfo@@@std@@@std@@@2@@2@U?$less@K@2@V?$allocator@V?$list@UtagPlusSrcInfo@@V?$allocator@UtagPlusSrcInfo@@@std@@@std@@@2@@std@@_N@2@ABU?$pair@$$CBKV?$list@UtagPlusSrcInfo@@V?$allocator@UtagPlusSrcInfo@@@std@@@std@@@2@@Z 0041fa30 f i FriendMgr.obj
 0001:0001ea80       ?_Value@?$_Tree@KU?$pair@$$CBKV?$list@UtagPlusSrcInfo@@V?$allocator@UtagPlusSrcInfo@@@std@@@std@@@std@@U_Kfn@?$map@KV?$list@UtagPlusSrcInfo@@V?$allocator@UtagPlusSrcInfo@@@std@@@std@@U?$less@K@2@V?$allocator@V?$list@UtagPlusSrcInfo@@V?$allocator@UtagPlusSrcInfo@@@std@@@std@@@2@@2@U?$less@K@2@V?$allocator@V?$list@UtagPlusSrcInfo@@V?$allocator@UtagPlusSrcInfo@@@std@@@std@@@2@@std@@KAAAU?$pair@$$CBKV?$list@UtagPlusSrcInfo@@V?$allocator@UtagPlusSrcInfo@@@std@@@std@@@2@PAU_Node@12@@Z 0041fa80 f i FriendMgr.obj
 0001:0001ea90       ??0?$_Tree@KU?$pair@$$CBKV?$list@UtagPlusSrcInfo@@V?$allocator@UtagPlusSrcInfo@@@std@@@std@@@std@@U_Kfn@?$map@KV?$list@UtagPlusSrcInfo@@V?$allocator@UtagPlusSrcInfo@@@std@@@std@@U?$less@K@2@V?$allocator@V?$list@UtagPlusSrcInfo@@V?$allocator@UtagPlusSrcInfo@@@std@@@std@@@2@@2@U?$less@K@2@V?$allocator@V?$list@UtagPlusSrcInfo@@V?$allocator@UtagPlusSrcInfo@@@std@@@std@@@2@@std@@QAE@ABU?$less@K@1@_NABV?$allocator@V?$list@UtagPlusSrcInfo@@V?$allocator@UtagPlusSrcInfo@@@std@@@std@@@1@@Z 0041fa90 f i FriendMgr.obj
 0001:0001ead0       ?begin@?$_Tree@KU?$pair@$$CBKV?$list@UtagPlusSrcInfo@@V?$allocator@UtagPlusSrcInfo@@@std@@@std@@@std@@U_Kfn@?$map@KV?$list@UtagPlusSrcInfo@@V?$allocator@UtagPlusSrcInfo@@@std@@@std@@U?$less@K@2@V?$allocator@V?$list@UtagPlusSrcInfo@@V?$allocator@UtagPlusSrcInfo@@@std@@@std@@@2@@2@U?$less@K@2@V?$allocator@V?$list@UtagPlusSrcInfo@@V?$allocator@UtagPlusSrcInfo@@@std@@@std@@@2@@std@@QAE?AViterator@12@XZ 0041fad0 f i FriendMgr.obj
 0001:0001eb00       ?end@?$_Tree@KU?$pair@$$CBKV?$list@UtagPlusSrcInfo@@V?$allocator@UtagPlusSrcInfo@@@std@@@std@@@std@@U_Kfn@?$map@KV?$list@UtagPlusSrcInfo@@V?$allocator@UtagPlusSrcInfo@@@std@@@std@@U?$less@K@2@V?$allocator@V?$list@UtagPlusSrcInfo@@V?$allocator@UtagPlusSrcInfo@@@std@@@std@@@2@@2@U?$less@K@2@V?$allocator@V?$list@UtagPlusSrcInfo@@V?$allocator@UtagPlusSrcInfo@@@std@@@std@@@2@@std@@QAE?AViterator@12@XZ 0041fb00 f i FriendMgr.obj
 0001:0001eb30       ?empty@?$_Tree@KU?$pair@$$CBKV?$list@UtagPlusSrcInfo@@V?$allocator@UtagPlusSrcInfo@@@std@@@std@@@std@@U_Kfn@?$map@KV?$list@UtagPlusSrcInfo@@V?$allocator@UtagPlusSrcInfo@@@std@@@std@@U?$less@K@2@V?$allocator@V?$list@UtagPlusSrcInfo@@V?$allocator@UtagPlusSrcInfo@@@std@@@std@@@2@@2@U?$less@K@2@V?$allocator@V?$list@UtagPlusSrcInfo@@V?$allocator@UtagPlusSrcInfo@@@std@@@std@@@2@@std@@QBE_NXZ 0041fb30 f i FriendMgr.obj
 0001:0001eb50       ?erase@?$_Tree@KU?$pair@$$CBKV?$list@UtagPlusSrcInfo@@V?$allocator@UtagPlusSrcInfo@@@std@@@std@@@std@@U_Kfn@?$map@KV?$list@UtagPlusSrcInfo@@V?$allocator@UtagPlusSrcInfo@@@std@@@std@@U?$less@K@2@V?$allocator@V?$list@UtagPlusSrcInfo@@V?$allocator@UtagPlusSrcInfo@@@std@@@std@@@2@@2@U?$less@K@2@V?$allocator@V?$list@UtagPlusSrcInfo@@V?$allocator@UtagPlusSrcInfo@@@std@@@std@@@2@@std@@QAE?AViterator@12@V312@0@Z 0041fb50 f i FriendMgr.obj
 0001:0001ec90       ?_Freenode@?$_Tree@KU?$pair@$$CBKV?$list@UtagPlusSrcInfo@@V?$allocator@UtagPlusSrcInfo@@@std@@@std@@@std@@U_Kfn@?$map@KV?$list@UtagPlusSrcInfo@@V?$allocator@UtagPlusSrcInfo@@@std@@@std@@U?$less@K@2@V?$allocator@V?$list@UtagPlusSrcInfo@@V?$allocator@UtagPlusSrcInfo@@@std@@@std@@@2@@2@U?$less@K@2@V?$allocator@V?$list@UtagPlusSrcInfo@@V?$allocator@UtagPlusSrcInfo@@@std@@@std@@@2@@std@@IAEXPAU_Node@12@@Z 0041fc90 f i FriendMgr.obj
 0001:0001ecb0       ??0?$pair@$$CBKV?$list@UtagPlusSrcInfo@@V?$allocator@UtagPlusSrcInfo@@@std@@@std@@@std@@QAE@ABKABV?$list@UtagPlusSrcInfo@@V?$allocator@UtagPlusSrcInfo@@@std@@@1@@Z 0041fcb0 f i FriendMgr.obj
 0001:0001ece0       ??Eiterator@?$_Tree@KU?$pair@$$CBKV?$list@UtagPlusSrcInfo@@V?$allocator@UtagPlusSrcInfo@@@std@@@std@@@std@@U_Kfn@?$map@KV?$list@UtagPlusSrcInfo@@V?$allocator@UtagPlusSrcInfo@@@std@@@std@@U?$less@K@2@V?$allocator@V?$list@UtagPlusSrcInfo@@V?$allocator@UtagPlusSrcInfo@@@std@@@std@@@2@@2@U?$less@K@2@V?$allocator@V?$list@UtagPlusSrcInfo@@V?$allocator@UtagPlusSrcInfo@@@std@@@std@@@2@@std@@QAEAAV012@XZ 0041fce0 f i FriendMgr.obj
 0001:0001ed00       ??8iterator@?$_Tree@KU?$pair@$$CBKV?$list@UtagPlusSrcInfo@@V?$allocator@UtagPlusSrcInfo@@@std@@@std@@@std@@U_Kfn@?$map@KV?$list@UtagPlusSrcInfo@@V?$allocator@UtagPlusSrcInfo@@@std@@@std@@U?$less@K@2@V?$allocator@V?$list@UtagPlusSrcInfo@@V?$allocator@UtagPlusSrcInfo@@@std@@@std@@@2@@2@U?$less@K@2@V?$allocator@V?$list@UtagPlusSrcInfo@@V?$allocator@UtagPlusSrcInfo@@@std@@@std@@@2@@std@@QBE_NABV012@@Z 0041fd00 f i FriendMgr.obj
 0001:0001ed20       ?insert@?$map@V?$basic_string@DU?$char_traits@D@std@@V?$allocator@D@2@@std@@V?$list@U?$pair@EV?$basic_string@DU?$char_traits@D@std@@V?$allocator@D@2@@std@@@std@@V?$allocator@U?$pair@EV?$basic_string@DU?$char_traits@D@std@@V?$allocator@D@2@@std@@@std@@@2@@2@U_tstring_less@@V?$allocator@V?$list@U?$pair@EV?$basic_string@DU?$char_traits@D@std@@V?$allocator@D@2@@std@@@std@@V?$allocator@U?$pair@EV?$basic_string@DU?$char_traits@D@std@@V?$allocator@D@2@@std@@@std@@@2@@std@@@2@@std@@QAE?AU?$pair@Viterator@?$_Tree@V?$basic_string@DU?$char_traits@D@std@@V?$allocator@D@2@@std@@U?$pair@$$CBV?$basic_string@DU?$char_traits@D@std@@V?$allocator@D@2@@std@@V?$list@U?$pair@EV?$basic_string@DU?$char_traits@D@std@@V?$allocator@D@2@@std@@@std@@V?$allocator@U?$pair@EV?$basic_string@DU?$char_traits@D@std@@V?$allocator@D@2@@std@@@std@@@2@@2@@2@U_Kfn@?$map@V?$basic_string@DU?$char_traits@D@std@@V?$allocator@D@2@@std@@V?$list@U?$pair@EV?$basic_string@DU?$char_traits@D@std@@V?$allocator@D@2@@std@@@std@@V?$allocator@U?$pair@EV?$basic_string@DU?$char_traits@D@std@@V?$allocator@D@2@@std@@@std@@@2@@2@U_tstring_less@@V?$allocator@V?$list@U?$pair@EV?$basic_string@DU?$char_traits@D@std@@V?$allocator@D@2@@std@@@std@@V?$allocator@U?$pair@EV?$basic_string@DU?$char_traits@D@std@@V?$allocator@D@2@@std@@@std@@@2@@std@@@2@@2@U_tstring_less@@V?$allocator@V?$list@U?$pair@EV?$basic_string@DU?$char_traits@D@std@@V?$allocator@D@2@@std@@@std@@V?$allocator@U?$pair@EV?$basic_string@DU?$char_traits@D@std@@V?$allocator@D@2@@std@@@std@@@2@@std@@@2@@std@@_N@2@ABU?$pair@$$CBV?$basic_string@DU?$char_traits@D@std@@V?$allocator@D@2@@std@@V?$list@U?$pair@EV?$basic_string@DU?$char_traits@D@std@@V?$allocator@D@2@@std@@@std@@V?$allocator@U?$pair@EV?$basic_string@DU?$char_traits@D@std@@V?$allocator@D@2@@std@@@std@@@2@@2@@2@@Z 0041fd20 f i FriendMgr.obj
 0001:0001ed70       ?_Value@?$_Tree@V?$basic_string@DU?$char_traits@D@std@@V?$allocator@D@2@@std@@U?$pair@$$CBV?$basic_string@DU?$char_traits@D@std@@V?$allocator@D@2@@std@@V?$list@U?$pair@EV?$basic_string@DU?$char_traits@D@std@@V?$allocator@D@2@@std@@@std@@V?$allocator@U?$pair@EV?$basic_string@DU?$char_traits@D@std@@V?$allocator@D@2@@std@@@std@@@2@@2@@2@U_Kfn@?$map@V?$basic_string@DU?$char_traits@D@std@@V?$allocator@D@2@@std@@V?$list@U?$pair@EV?$basic_string@DU?$char_traits@D@std@@V?$allocator@D@2@@std@@@std@@V?$allocator@U?$pair@EV?$basic_string@DU?$char_traits@D@std@@V?$allocator@D@2@@std@@@std@@@2@@2@U_tstring_less@@V?$allocator@V?$list@U?$pair@EV?$basic_string@DU?$char_traits@D@std@@V?$allocator@D@2@@std@@@std@@V?$allocator@U?$pair@EV?$basic_string@DU?$char_traits@D@std@@V?$allocator@D@2@@std@@@std@@@2@@std@@@2@@2@U_tstring_less@@V?$allocator@V?$list@U?$pair@EV?$basic_string@DU?$char_traits@D@std@@V?$allocator@D@2@@std@@@std@@V?$allocator@U?$pair@EV?$basic_string@DU?$char_traits@D@std@@V?$allocator@D@2@@std@@@std@@@2@@std@@@2@@std@@KAAAU?$pair@$$CBV?$basic_string@DU?$char_traits@D@std@@V?$allocator@D@2@@std@@V?$list@U?$pair@EV?$basic_string@DU?$char_traits@D@std@@V?$allocator@D@2@@std@@@std@@V?$allocator@U?$pair@EV?$basic_string@DU?$char_traits@D@std@@V?$allocator@D@2@@std@@@std@@@2@@2@@2@PAU_Node@12@@Z 0041fd70 f i FriendMgr.obj
 0001:0001ed80       ??0?$_Tree@V?$basic_string@DU?$char_traits@D@std@@V?$allocator@D@2@@std@@U?$pair@$$CBV?$basic_string@DU?$char_traits@D@std@@V?$allocator@D@2@@std@@V?$list@U?$pair@EV?$basic_string@DU?$char_traits@D@std@@V?$allocator@D@2@@std@@@std@@V?$allocator@U?$pair@EV?$basic_string@DU?$char_traits@D@std@@V?$allocator@D@2@@std@@@std@@@2@@2@@2@U_Kfn@?$map@V?$basic_string@DU?$char_traits@D@std@@V?$allocator@D@2@@std@@V?$list@U?$pair@EV?$basic_string@DU?$char_traits@D@std@@V?$allocator@D@2@@std@@@std@@V?$allocator@U?$pair@EV?$basic_string@DU?$char_traits@D@std@@V?$allocator@D@2@@std@@@std@@@2@@2@U_tstring_less@@V?$allocator@V?$list@U?$pair@EV?$basic_string@DU?$char_traits@D@std@@V?$allocator@D@2@@std@@@std@@V?$allocator@U?$pair@EV?$basic_string@DU?$char_traits@D@std@@V?$allocator@D@2@@std@@@std@@@2@@std@@@2@@2@U_tstring_less@@V?$allocator@V?$list@U?$pair@EV?$basic_string@DU?$char_traits@D@std@@V?$allocator@D@2@@std@@@std@@V?$allocator@U?$pair@EV?$basic_string@DU?$char_traits@D@std@@V?$allocator@D@2@@std@@@std@@@2@@std@@@2@@std@@QAE@ABU_tstring_less@@_NABV?$allocator@V?$list@U?$pair@EV?$basic_string@DU?$char_traits@D@std@@V?$allocator@D@2@@std@@@std@@V?$allocator@U?$pair@EV?$basic_string@DU?$char_traits@D@std@@V?$allocator@D@2@@std@@@std@@@2@@std@@@1@@Z 0041fd80 f i FriendMgr.obj
 0001:0001edc0       ?begin@?$_Tree@V?$basic_string@DU?$char_traits@D@std@@V?$allocator@D@2@@std@@U?$pair@$$CBV?$basic_string@DU?$char_traits@D@std@@V?$allocator@D@2@@std@@V?$list@U?$pair@EV?$basic_string@DU?$char_traits@D@std@@V?$allocator@D@2@@std@@@std@@V?$allocator@U?$pair@EV?$basic_string@DU?$char_traits@D@std@@V?$allocator@D@2@@std@@@std@@@2@@2@@2@U_Kfn@?$map@V?$basic_string@DU?$char_traits@D@std@@V?$allocator@D@2@@std@@V?$list@U?$pair@EV?$basic_string@DU?$char_traits@D@std@@V?$allocator@D@2@@std@@@std@@V?$allocator@U?$pair@EV?$basic_string@DU?$char_traits@D@std@@V?$allocator@D@2@@std@@@std@@@2@@2@U_tstring_less@@V?$allocator@V?$list@U?$pair@EV?$basic_string@DU?$char_traits@D@std@@V?$allocator@D@2@@std@@@std@@V?$allocator@U?$pair@EV?$basic_string@DU?$char_traits@D@std@@V?$allocator@D@2@@std@@@std@@@2@@std@@@2@@2@U_tstring_less@@V?$allocator@V?$list@U?$pair@EV?$basic_string@DU?$char_traits@D@std@@V?$allocator@D@2@@std@@@std@@V?$allocator@U?$pair@EV?$basic_string@DU?$char_traits@D@std@@V?$allocator@D@2@@std@@@std@@@2@@std@@@2@@std@@QAE?AViterator@12@XZ 0041fdc0 f i FriendMgr.obj
 0001:0001edf0       ?end@?$_Tree@V?$basic_string@DU?$char_traits@D@std@@V?$allocator@D@2@@std@@U?$pair@$$CBV?$basic_string@DU?$char_traits@D@std@@V?$allocator@D@2@@std@@V?$list@U?$pair@EV?$basic_string@DU?$char_traits@D@std@@V?$allocator@D@2@@std@@@std@@V?$allocator@U?$pair@EV?$basic_string@DU?$char_traits@D@std@@V?$allocator@D@2@@std@@@std@@@2@@2@@2@U_Kfn@?$map@V?$basic_string@DU?$char_traits@D@std@@V?$allocator@D@2@@std@@V?$list@U?$pair@EV?$basic_string@DU?$char_traits@D@std@@V?$allocator@D@2@@std@@@std@@V?$allocator@U?$pair@EV?$basic_string@DU?$char_traits@D@std@@V?$allocator@D@2@@std@@@std@@@2@@2@U_tstring_less@@V?$allocator@V?$list@U?$pair@EV?$basic_string@DU?$char_traits@D@std@@V?$allocator@D@2@@std@@@std@@V?$allocator@U?$pair@EV?$basic_string@DU?$char_traits@D@std@@V?$allocator@D@2@@std@@@std@@@2@@std@@@2@@2@U_tstring_less@@V?$allocator@V?$list@U?$pair@EV?$basic_string@DU?$char_traits@D@std@@V?$allocator@D@2@@std@@@std@@V?$allocator@U?$pair@EV?$basic_string@DU?$char_traits@D@std@@V?$allocator@D@2@@std@@@std@@@2@@std@@@2@@std@@QAE?AViterator@12@XZ 0041fdf0 f i FriendMgr.obj
 0001:0001ee20       ?empty@?$_Tree@V?$basic_string@DU?$char_traits@D@std@@V?$allocator@D@2@@std@@U?$pair@$$CBV?$basic_string@DU?$char_traits@D@std@@V?$allocator@D@2@@std@@V?$list@U?$pair@EV?$basic_string@DU?$char_traits@D@std@@V?$allocator@D@2@@std@@@std@@V?$allocator@U?$pair@EV?$basic_string@DU?$char_traits@D@std@@V?$allocator@D@2@@std@@@std@@@2@@2@@2@U_Kfn@?$map@V?$basic_string@DU?$char_traits@D@std@@V?$allocator@D@2@@std@@V?$list@U?$pair@EV?$basic_string@DU?$char_traits@D@std@@V?$allocator@D@2@@std@@@std@@V?$allocator@U?$pair@EV?$basic_string@DU?$char_traits@D@std@@V?$allocator@D@2@@std@@@std@@@2@@2@U_tstring_less@@V?$allocator@V?$list@U?$pair@EV?$basic_string@DU?$char_traits@D@std@@V?$allocator@D@2@@std@@@std@@V?$allocator@U?$pair@EV?$basic_string@DU?$char_traits@D@std@@V?$allocator@D@2@@std@@@std@@@2@@std@@@2@@2@U_tstring_less@@V?$allocator@V?$list@U?$pair@EV?$basic_string@DU?$char_traits@D@std@@V?$allocator@D@2@@std@@@std@@V?$allocator@U?$pair@EV?$basic_string@DU?$char_traits@D@std@@V?$allocator@D@2@@std@@@std@@@2@@std@@@2@@std@@QBE_NXZ 0041fe20 f i FriendMgr.obj
 0001:0001ee40       ?erase@?$_Tree@V?$basic_string@DU?$char_traits@D@std@@V?$allocator@D@2@@std@@U?$pair@$$CBV?$basic_string@DU?$char_traits@D@std@@V?$allocator@D@2@@std@@V?$list@U?$pair@EV?$basic_string@DU?$char_traits@D@std@@V?$allocator@D@2@@std@@@std@@V?$allocator@U?$pair@EV?$basic_string@DU?$char_traits@D@std@@V?$allocator@D@2@@std@@@std@@@2@@2@@2@U_Kfn@?$map@V?$basic_string@DU?$char_traits@D@std@@V?$allocator@D@2@@std@@V?$list@U?$pair@EV?$basic_string@DU?$char_traits@D@std@@V?$allocator@D@2@@std@@@std@@V?$allocator@U?$pair@EV?$basic_string@DU?$char_traits@D@std@@V?$allocator@D@2@@std@@@std@@@2@@2@U_tstring_less@@V?$allocator@V?$list@U?$pair@EV?$basic_string@DU?$char_traits@D@std@@V?$allocator@D@2@@std@@@std@@V?$allocator@U?$pair@EV?$basic_string@DU?$char_traits@D@std@@V?$allocator@D@2@@std@@@std@@@2@@std@@@2@@2@U_tstring_less@@V?$allocator@V?$list@U?$pair@EV?$basic_string@DU?$char_traits@D@std@@V?$allocator@D@2@@std@@@std@@V?$allocator@U?$pair@EV?$basic_string@DU?$char_traits@D@std@@V?$allocator@D@2@@std@@@std@@@2@@std@@@2@@std@@QAE?AViterator@12@V312@0@Z 0041fe40 f i FriendMgr.obj
 0001:0001ef80       ?_Freenode@?$_Tree@V?$basic_string@DU?$char_traits@D@std@@V?$allocator@D@2@@std@@U?$pair@$$CBV?$basic_string@DU?$char_traits@D@std@@V?$allocator@D@2@@std@@V?$list@U?$pair@EV?$basic_string@DU?$char_traits@D@std@@V?$allocator@D@2@@std@@@std@@V?$allocator@U?$pair@EV?$basic_string@DU?$char_traits@D@std@@V?$allocator@D@2@@std@@@std@@@2@@2@@2@U_Kfn@?$map@V?$basic_string@DU?$char_traits@D@std@@V?$allocator@D@2@@std@@V?$list@U?$pair@EV?$basic_string@DU?$char_traits@D@std@@V?$allocator@D@2@@std@@@std@@V?$allocator@U?$pair@EV?$basic_string@DU?$char_traits@D@std@@V?$allocator@D@2@@std@@@std@@@2@@2@U_tstring_less@@V?$allocator@V?$list@U?$pair@EV?$basic_string@DU?$char_traits@D@std@@V?$allocator@D@2@@std@@@std@@V?$allocator@U?$pair@EV?$basic_string@DU?$char_traits@D@std@@V?$allocator@D@2@@std@@@std@@@2@@std@@@2@@2@U_tstring_less@@V?$allocator@V?$list@U?$pair@EV?$basic_string@DU?$char_traits@D@std@@V?$allocator@D@2@@std@@@std@@V?$allocator@U?$pair@EV?$basic_string@DU?$char_traits@D@std@@V?$allocator@D@2@@std@@@std@@@2@@std@@@2@@std@@IAEXPAU_Node@12@@Z 0041ff80 f i FriendMgr.obj
 0001:0001efa0       ??0?$pair@$$CBV?$basic_string@DU?$char_traits@D@std@@V?$allocator@D@2@@std@@V?$list@U?$pair@EV?$basic_string@DU?$char_traits@D@std@@V?$allocator@D@2@@std@@@std@@V?$allocator@U?$pair@EV?$basic_string@DU?$char_traits@D@std@@V?$allocator@D@2@@std@@@std@@@2@@2@@std@@QAE@ABV?$basic_string@DU?$char_traits@D@std@@V?$allocator@D@2@@1@ABV?$list@U?$pair@EV?$basic_string@DU?$char_traits@D@std@@V?$allocator@D@2@@std@@@std@@V?$allocator@U?$pair@EV?$basic_string@DU?$char_traits@D@std@@V?$allocator@D@2@@std@@@std@@@2@@1@@Z 0041ffa0 f i FriendMgr.obj
 0001:0001f000       ??0?$list@U?$pair@EV?$basic_string@DU?$char_traits@D@std@@V?$allocator@D@2@@std@@@std@@V?$allocator@U?$pair@EV?$basic_string@DU?$char_traits@D@std@@V?$allocator@D@2@@std@@@std@@@2@@std@@QAE@ABV?$allocator@U?$pair@EV?$basic_string@DU?$char_traits@D@std@@V?$allocator@D@2@@std@@@std@@@1@@Z 00420000 f i FriendMgr.obj
 0001:0001f040       ??1?$list@U?$pair@EV?$basic_string@DU?$char_traits@D@std@@V?$allocator@D@2@@std@@@std@@V?$allocator@U?$pair@EV?$basic_string@DU?$char_traits@D@std@@V?$allocator@D@2@@std@@@std@@@2@@std@@QAE@XZ 00420040 f i FriendMgr.obj
 0001:0001f0a0       ?insert@?$list@U?$pair@EV?$basic_string@DU?$char_traits@D@std@@V?$allocator@D@2@@std@@@std@@V?$allocator@U?$pair@EV?$basic_string@DU?$char_traits@D@std@@V?$allocator@D@2@@std@@@std@@@2@@std@@QAE?AViterator@12@V312@ABU?$pair@EV?$basic_string@DU?$char_traits@D@std@@V?$allocator@D@2@@std@@@2@@Z 004200a0 f i FriendMgr.obj
 0001:0001f160       ?_Next@_Acc@?$list@U?$pair@EV?$basic_string@DU?$char_traits@D@std@@V?$allocator@D@2@@std@@@std@@V?$allocator@U?$pair@EV?$basic_string@DU?$char_traits@D@std@@V?$allocator@D@2@@std@@@std@@@2@@std@@SAAAPAU_Node@23@PAU423@@Z 00420160 f i FriendMgr.obj
 0001:0001f170       ?_Value@_Acc@?$list@U?$pair@EV?$basic_string@DU?$char_traits@D@std@@V?$allocator@D@2@@std@@@std@@V?$allocator@U?$pair@EV?$basic_string@DU?$char_traits@D@std@@V?$allocator@D@2@@std@@@std@@@2@@std@@SAAAU?$pair@EV?$basic_string@DU?$char_traits@D@std@@V?$allocator@D@2@@std@@@3@PAU_Node@23@@Z 00420170 f i FriendMgr.obj
 0001:0001f180       ??0iterator@?$list@U?$pair@EV?$basic_string@DU?$char_traits@D@std@@V?$allocator@D@2@@std@@@std@@V?$allocator@U?$pair@EV?$basic_string@DU?$char_traits@D@std@@V?$allocator@D@2@@std@@@std@@@2@@std@@QAE@PAU_Node@12@@Z 00420180 f i FriendMgr.obj
 0001:0001f1a0       ??Eiterator@?$list@U?$pair@EV?$basic_string@DU?$char_traits@D@std@@V?$allocator@D@2@@std@@@std@@V?$allocator@U?$pair@EV?$basic_string@DU?$char_traits@D@std@@V?$allocator@D@2@@std@@@std@@@2@@std@@QAEAAV012@XZ 004201a0 f i FriendMgr.obj
 0001:0001f1d0       ??8iterator@?$list@U?$pair@EV?$basic_string@DU?$char_traits@D@std@@V?$allocator@D@2@@std@@@std@@V?$allocator@U?$pair@EV?$basic_string@DU?$char_traits@D@std@@V?$allocator@D@2@@std@@@std@@@2@@std@@QBE_NABV012@@Z 004201d0 f i FriendMgr.obj
 0001:0001f1f0       ??Eiterator@?$_Tree@V?$basic_string@DU?$char_traits@D@std@@V?$allocator@D@2@@std@@U?$pair@$$CBV?$basic_string@DU?$char_traits@D@std@@V?$allocator@D@2@@std@@V?$list@U?$pair@EV?$basic_string@DU?$char_traits@D@std@@V?$allocator@D@2@@std@@@std@@V?$allocator@U?$pair@EV?$basic_string@DU?$char_traits@D@std@@V?$allocator@D@2@@std@@@std@@@2@@2@@2@U_Kfn@?$map@V?$basic_string@DU?$char_traits@D@std@@V?$allocator@D@2@@std@@V?$list@U?$pair@EV?$basic_string@DU?$char_traits@D@std@@V?$allocator@D@2@@std@@@std@@V?$allocator@U?$pair@EV?$basic_string@DU?$char_traits@D@std@@V?$allocator@D@2@@std@@@std@@@2@@2@U_tstring_less@@V?$allocator@V?$list@U?$pair@EV?$basic_string@DU?$char_traits@D@std@@V?$allocator@D@2@@std@@@std@@V?$allocator@U?$pair@EV?$basic_string@DU?$char_traits@D@std@@V?$allocator@D@2@@std@@@std@@@2@@std@@@2@@2@U_tstring_less@@V?$allocator@V?$list@U?$pair@EV?$basic_string@DU?$char_traits@D@std@@V?$allocator@D@2@@std@@@std@@V?$allocator@U?$pair@EV?$basic_string@DU?$char_traits@D@std@@V?$allocator@D@2@@std@@@std@@@2@@std@@@2@@std@@QAEAAV012@XZ 004201f0 f i FriendMgr.obj
 0001:0001f210       ??8iterator@?$_Tree@V?$basic_string@DU?$char_traits@D@std@@V?$allocator@D@2@@std@@U?$pair@$$CBV?$basic_string@DU?$char_traits@D@std@@V?$allocator@D@2@@std@@V?$list@U?$pair@EV?$basic_string@DU?$char_traits@D@std@@V?$allocator@D@2@@std@@@std@@V?$allocator@U?$pair@EV?$basic_string@DU?$char_traits@D@std@@V?$allocator@D@2@@std@@@std@@@2@@2@@2@U_Kfn@?$map@V?$basic_string@DU?$char_traits@D@std@@V?$allocator@D@2@@std@@V?$list@U?$pair@EV?$basic_string@DU?$char_traits@D@std@@V?$allocator@D@2@@std@@@std@@V?$allocator@U?$pair@EV?$basic_string@DU?$char_traits@D@std@@V?$allocator@D@2@@std@@@std@@@2@@2@U_tstring_less@@V?$allocator@V?$list@U?$pair@EV?$basic_string@DU?$char_traits@D@std@@V?$allocator@D@2@@std@@@std@@V?$allocator@U?$pair@EV?$basic_string@DU?$char_traits@D@std@@V?$allocator@D@2@@std@@@std@@@2@@std@@@2@@2@U_tstring_less@@V?$allocator@V?$list@U?$pair@EV?$basic_string@DU?$char_traits@D@std@@V?$allocator@D@2@@std@@@std@@V?$allocator@U?$pair@EV?$basic_string@DU?$char_traits@D@std@@V?$allocator@D@2@@std@@@std@@@2@@std@@@2@@std@@QBE_NABV012@@Z 00420210 f i FriendMgr.obj
 0001:0001f230       ??0?$pair@Viterator@?$_Tree@V?$basic_string@DU?$char_traits@D@std@@V?$allocator@D@2@@std@@U?$pair@$$CBV?$basic_string@DU?$char_traits@D@std@@V?$allocator@D@2@@std@@UPLAYERINFO@CFriendMgr@@@2@U_Kfn@?$map@V?$basic_string@DU?$char_traits@D@std@@V?$allocator@D@2@@std@@UPLAYERINFO@CFriendMgr@@U_tstring_less@@V?$allocator@UPLAYERINFO@CFriendMgr@@@2@@2@U_tstring_less@@V?$allocator@UPLAYERINFO@CFriendMgr@@@2@@std@@_N@std@@QAE@ABViterator@?$_Tree@V?$basic_string@DU?$char_traits@D@std@@V?$allocator@D@2@@std@@U?$pair@$$CBV?$basic_string@DU?$char_traits@D@std@@V?$allocator@D@2@@std@@UPLAYERINFO@CFriendMgr@@@2@U_Kfn@?$map@V?$basic_string@DU?$char_traits@D@std@@V?$allocator@D@2@@std@@UPLAYERINFO@CFriendMgr@@U_tstring_less@@V?$allocator@UPLAYERINFO@CFriendMgr@@@2@@2@U_tstring_less@@V?$allocator@UPLAYERINFO@CFriendMgr@@@2@@1@AB_N@Z 00420230 f i FriendMgr.obj
 0001:0001f260       ??0?$pair@Viterator@?$_Tree@V?$basic_string@DU?$char_traits@D@std@@V?$allocator@D@2@@std@@U?$pair@$$CBV?$basic_string@DU?$char_traits@D@std@@V?$allocator@D@2@@std@@UFRIENDINFO@CFriendMgr@@@2@U_Kfn@?$map@V?$basic_string@DU?$char_traits@D@std@@V?$allocator@D@2@@std@@UFRIENDINFO@CFriendMgr@@U_tstring_less@@V?$allocator@UFRIENDINFO@CFriendMgr@@@2@@2@U_tstring_less@@V?$allocator@UFRIENDINFO@CFriendMgr@@@2@@std@@_N@std@@QAE@ABViterator@?$_Tree@V?$basic_string@DU?$char_traits@D@std@@V?$allocator@D@2@@std@@U?$pair@$$CBV?$basic_string@DU?$char_traits@D@std@@V?$allocator@D@2@@std@@UFRIENDINFO@CFriendMgr@@@2@U_Kfn@?$map@V?$basic_string@DU?$char_traits@D@std@@V?$allocator@D@2@@std@@UFRIENDINFO@CFriendMgr@@U_tstring_less@@V?$allocator@UFRIENDINFO@CFriendMgr@@@2@@2@U_tstring_less@@V?$allocator@UFRIENDINFO@CFriendMgr@@@2@@1@AB_N@Z 00420260 f i FriendMgr.obj
 0001:0001f290       ?insert@?$list@UONEPLAYER@CFriendMgr@@V?$allocator@UONEPLAYER@CFriendMgr@@@std@@@std@@QAE?AViterator@12@V312@ABUONEPLAYER@CFriendMgr@@@Z 00420290 f i FriendMgr.obj
 0001:0001f350       ?erase@?$list@UONEPLAYER@CFriendMgr@@V?$allocator@UONEPLAYER@CFriendMgr@@@std@@@std@@QAE?AViterator@12@V312@@Z 00420350 f i FriendMgr.obj
 0001:0001f410       ?erase@?$list@UONEPLAYER@CFriendMgr@@V?$allocator@UONEPLAYER@CFriendMgr@@@std@@@std@@QAE?AViterator@12@V312@0@Z 00420410 f i FriendMgr.obj
 0001:0001f460       ?_Buynode@?$list@UONEPLAYER@CFriendMgr@@V?$allocator@UONEPLAYER@CFriendMgr@@@std@@@std@@IAEPAU_Node@12@PAU312@0@Z 00420460 f i FriendMgr.obj
 0001:0001f4d0       ?_Freenode@?$list@UONEPLAYER@CFriendMgr@@V?$allocator@UONEPLAYER@CFriendMgr@@@std@@@std@@IAEXPAU_Node@12@@Z 004204d0 f i FriendMgr.obj
 0001:0001f4f0       ?_Next@_Acc@?$list@UONEPLAYER@CFriendMgr@@V?$allocator@UONEPLAYER@CFriendMgr@@@std@@@std@@SAAAPAU_Node@23@PAU423@@Z 004204f0 f i FriendMgr.obj
 0001:0001f500       ?_Value@_Acc@?$list@UONEPLAYER@CFriendMgr@@V?$allocator@UONEPLAYER@CFriendMgr@@@std@@@std@@SAAAUONEPLAYER@CFriendMgr@@PAU_Node@23@@Z 00420500 f i FriendMgr.obj
 0001:0001f510       ??0iterator@?$list@UONEPLAYER@CFriendMgr@@V?$allocator@UONEPLAYER@CFriendMgr@@@std@@@std@@QAE@PAU_Node@12@@Z 00420510 f i FriendMgr.obj
 0001:0001f530       ??Eiterator@?$list@UONEPLAYER@CFriendMgr@@V?$allocator@UONEPLAYER@CFriendMgr@@@std@@@std@@QAEAAV012@XZ 00420530 f i FriendMgr.obj
 0001:0001f560       ??Fiterator@?$list@UONEPLAYER@CFriendMgr@@V?$allocator@UONEPLAYER@CFriendMgr@@@std@@@std@@QAEAAV012@XZ 00420560 f i FriendMgr.obj
 0001:0001f590       ??8iterator@?$list@UONEPLAYER@CFriendMgr@@V?$allocator@UONEPLAYER@CFriendMgr@@@std@@@std@@QBE_NABV012@@Z 00420590 f i FriendMgr.obj
 0001:0001f5b0       ?insert@?$list@V?$basic_string@DU?$char_traits@D@std@@V?$allocator@D@2@@std@@V?$allocator@V?$basic_string@DU?$char_traits@D@std@@V?$allocator@D@2@@std@@@2@@std@@QAE?AViterator@12@V312@ABV?$basic_string@DU?$char_traits@D@std@@V?$allocator@D@2@@2@@Z 004205b0 f i FriendMgr.obj
 0001:0001f670       ?erase@?$list@V?$basic_string@DU?$char_traits@D@std@@V?$allocator@D@2@@std@@V?$allocator@V?$basic_string@DU?$char_traits@D@std@@V?$allocator@D@2@@std@@@2@@std@@QAE?AViterator@12@V312@0@Z 00420670 f i FriendMgr.obj
 0001:0001f6c0       ?_Buynode@?$list@V?$basic_string@DU?$char_traits@D@std@@V?$allocator@D@2@@std@@V?$allocator@V?$basic_string@DU?$char_traits@D@std@@V?$allocator@D@2@@std@@@2@@std@@IAEPAU_Node@12@PAU312@0@Z 004206c0 f i FriendMgr.obj
 0001:0001f730       ?_Freenode@?$list@V?$basic_string@DU?$char_traits@D@std@@V?$allocator@D@2@@std@@V?$allocator@V?$basic_string@DU?$char_traits@D@std@@V?$allocator@D@2@@std@@@2@@std@@IAEXPAU_Node@12@@Z 00420730 f i FriendMgr.obj
 0001:0001f750       ?_Next@_Acc@?$list@V?$basic_string@DU?$char_traits@D@std@@V?$allocator@D@2@@std@@V?$allocator@V?$basic_string@DU?$char_traits@D@std@@V?$allocator@D@2@@std@@@2@@std@@SAAAPAU_Node@23@PAU423@@Z 00420750 f i FriendMgr.obj
 0001:0001f760       ?_Value@_Acc@?$list@V?$basic_string@DU?$char_traits@D@std@@V?$allocator@D@2@@std@@V?$allocator@V?$basic_string@DU?$char_traits@D@std@@V?$allocator@D@2@@std@@@2@@std@@SAAAV?$basic_string@DU?$char_traits@D@std@@V?$allocator@D@2@@3@PAU_Node@23@@Z 00420760 f i FriendMgr.obj
 0001:0001f770       ??0iterator@?$list@V?$basic_string@DU?$char_traits@D@std@@V?$allocator@D@2@@std@@V?$allocator@V?$basic_string@DU?$char_traits@D@std@@V?$allocator@D@2@@std@@@2@@std@@QAE@PAU_Node@12@@Z 00420770 f i FriendMgr.obj
 0001:0001f790       ??Eiterator@?$list@V?$basic_string@DU?$char_traits@D@std@@V?$allocator@D@2@@std@@V?$allocator@V?$basic_string@DU?$char_traits@D@std@@V?$allocator@D@2@@std@@@2@@std@@QAEAAV012@XZ 00420790 f i FriendMgr.obj
 0001:0001f7c0       ??8iterator@?$list@V?$basic_string@DU?$char_traits@D@std@@V?$allocator@D@2@@std@@V?$allocator@V?$basic_string@DU?$char_traits@D@std@@V?$allocator@D@2@@std@@@2@@std@@QBE_NABV012@@Z 004207c0 f i FriendMgr.obj
 0001:0001f7e0       ?begin@?$vector@Viterator@?$_Tree@V?$basic_string@DU?$char_traits@D@std@@V?$allocator@D@2@@std@@U?$pair@$$CBV?$basic_string@DU?$char_traits@D@std@@V?$allocator@D@2@@std@@UPLAYERINFO@CFriendMgr@@@2@U_Kfn@?$map@V?$basic_string@DU?$char_traits@D@std@@V?$allocator@D@2@@std@@UPLAYERINFO@CFriendMgr@@U_tstring_less@@V?$allocator@UPLAYERINFO@CFriendMgr@@@2@@2@U_tstring_less@@V?$allocator@UPLAYERINFO@CFriendMgr@@@2@@std@@V?$allocator@Viterator@?$_Tree@V?$basic_string@DU?$char_traits@D@std@@V?$allocator@D@2@@std@@U?$pair@$$CBV?$basic_string@DU?$char_traits@D@std@@V?$allocator@D@2@@std@@UPLAYERINFO@CFriendMgr@@@2@U_Kfn@?$map@V?$basic_string@DU?$char_traits@D@std@@V?$allocator@D@2@@std@@UPLAYERINFO@CFriendMgr@@U_tstring_less@@V?$allocator@UPLAYERINFO@CFriendMgr@@@2@@2@U_tstring_less@@V?$allocator@UPLAYERINFO@CFriendMgr@@@2@@std@@@3@@std@@QAEPAViterator@?$_Tree@V?$basic_string@DU?$char_traits@D@std@@V?$allocator@D@2@@std@@U?$pair@$$CBV?$basic_string@DU?$char_traits@D@std@@V?$allocator@D@2@@std@@UPLAYERINFO@CFriendMgr@@@2@U_Kfn@?$map@V?$basic_string@DU?$char_traits@D@std@@V?$allocator@D@2@@std@@UPLAYERINFO@CFriendMgr@@U_tstring_less@@V?$allocator@UPLAYERINFO@CFriendMgr@@@2@@2@U_tstring_less@@V?$allocator@UPLAYERINFO@CFriendMgr@@@2@@2@XZ 004207e0 f i FriendMgr.obj
 0001:0001f800       ?end@?$vector@Viterator@?$_Tree@V?$basic_string@DU?$char_traits@D@std@@V?$allocator@D@2@@std@@U?$pair@$$CBV?$basic_string@DU?$char_traits@D@std@@V?$allocator@D@2@@std@@UPLAYERINFO@CFriendMgr@@@2@U_Kfn@?$map@V?$basic_string@DU?$char_traits@D@std@@V?$allocator@D@2@@std@@UPLAYERINFO@CFriendMgr@@U_tstring_less@@V?$allocator@UPLAYERINFO@CFriendMgr@@@2@@2@U_tstring_less@@V?$allocator@UPLAYERINFO@CFriendMgr@@@2@@std@@V?$allocator@Viterator@?$_Tree@V?$basic_string@DU?$char_traits@D@std@@V?$allocator@D@2@@std@@U?$pair@$$CBV?$basic_string@DU?$char_traits@D@std@@V?$allocator@D@2@@std@@UPLAYERINFO@CFriendMgr@@@2@U_Kfn@?$map@V?$basic_string@DU?$char_traits@D@std@@V?$allocator@D@2@@std@@UPLAYERINFO@CFriendMgr@@U_tstring_less@@V?$allocator@UPLAYERINFO@CFriendMgr@@@2@@2@U_tstring_less@@V?$allocator@UPLAYERINFO@CFriendMgr@@@2@@std@@@3@@std@@QAEPAViterator@?$_Tree@V?$basic_string@DU?$char_traits@D@std@@V?$allocator@D@2@@std@@U?$pair@$$CBV?$basic_string@DU?$char_traits@D@std@@V?$allocator@D@2@@std@@UPLAYERINFO@CFriendMgr@@@2@U_Kfn@?$map@V?$basic_string@DU?$char_traits@D@std@@V?$allocator@D@2@@std@@UPLAYERINFO@CFriendMgr@@U_tstring_less@@V?$allocator@UPLAYERINFO@CFriendMgr@@@2@@2@U_tstring_less@@V?$allocator@UPLAYERINFO@CFriendMgr@@@2@@2@XZ 00420800 f i FriendMgr.obj
 0001:0001f820       ?insert@?$vector@Viterator@?$_Tree@V?$basic_string@DU?$char_traits@D@std@@V?$allocator@D@2@@std@@U?$pair@$$CBV?$basic_string@DU?$char_traits@D@std@@V?$allocator@D@2@@std@@UPLAYERINFO@CFriendMgr@@@2@U_Kfn@?$map@V?$basic_string@DU?$char_traits@D@std@@V?$allocator@D@2@@std@@UPLAYERINFO@CFriendMgr@@U_tstring_less@@V?$allocator@UPLAYERINFO@CFriendMgr@@@2@@2@U_tstring_less@@V?$allocator@UPLAYERINFO@CFriendMgr@@@2@@std@@V?$allocator@Viterator@?$_Tree@V?$basic_string@DU?$char_traits@D@std@@V?$allocator@D@2@@std@@U?$pair@$$CBV?$basic_string@DU?$char_traits@D@std@@V?$allocator@D@2@@std@@UPLAYERINFO@CFriendMgr@@@2@U_Kfn@?$map@V?$basic_string@DU?$char_traits@D@std@@V?$allocator@D@2@@std@@UPLAYERINFO@CFriendMgr@@U_tstring_less@@V?$allocator@UPLAYERINFO@CFriendMgr@@@2@@2@U_tstring_less@@V?$allocator@UPLAYERINFO@CFriendMgr@@@2@@std@@@3@@std@@QAEPAViterator@?$_Tree@V?$basic_string@DU?$char_traits@D@std@@V?$allocator@D@2@@std@@U?$pair@$$CBV?$basic_string@DU?$char_traits@D@std@@V?$allocator@D@2@@std@@UPLAYERINFO@CFriendMgr@@@2@U_Kfn@?$map@V?$basic_string@DU?$char_traits@D@std@@V?$allocator@D@2@@std@@UPLAYERINFO@CFriendMgr@@U_tstring_less@@V?$allocator@UPLAYERINFO@CFriendMgr@@@2@@2@U_tstring_less@@V?$allocator@UPLAYERINFO@CFriendMgr@@@2@@2@PAV342@ABV342@@Z 00420820 f i FriendMgr.obj
 0001:0001f870       ?_Destroy@?$vector@Viterator@?$_Tree@V?$basic_string@DU?$char_traits@D@std@@V?$allocator@D@2@@std@@U?$pair@$$CBV?$basic_string@DU?$char_traits@D@std@@V?$allocator@D@2@@std@@UPLAYERINFO@CFriendMgr@@@2@U_Kfn@?$map@V?$basic_string@DU?$char_traits@D@std@@V?$allocator@D@2@@std@@UPLAYERINFO@CFriendMgr@@U_tstring_less@@V?$allocator@UPLAYERINFO@CFriendMgr@@@2@@2@U_tstring_less@@V?$allocator@UPLAYERINFO@CFriendMgr@@@2@@std@@V?$allocator@Viterator@?$_Tree@V?$basic_string@DU?$char_traits@D@std@@V?$allocator@D@2@@std@@U?$pair@$$CBV?$basic_string@DU?$char_traits@D@std@@V?$allocator@D@2@@std@@UPLAYERINFO@CFriendMgr@@@2@U_Kfn@?$map@V?$basic_string@DU?$char_traits@D@std@@V?$allocator@D@2@@std@@UPLAYERINFO@CFriendMgr@@U_tstring_less@@V?$allocator@UPLAYERINFO@CFriendMgr@@@2@@2@U_tstring_less@@V?$allocator@UPLAYERINFO@CFriendMgr@@@2@@std@@@3@@std@@IAEXPAViterator@?$_Tree@V?$basic_string@DU?$char_traits@D@std@@V?$allocator@D@2@@std@@U?$pair@$$CBV?$basic_string@DU?$char_traits@D@std@@V?$allocator@D@2@@std@@UPLAYERINFO@CFriendMgr@@@2@U_Kfn@?$map@V?$basic_string@DU?$char_traits@D@std@@V?$allocator@D@2@@std@@UPLAYERINFO@CFriendMgr@@U_tstring_less@@V?$allocator@UPLAYERINFO@CFriendMgr@@@2@@2@U_tstring_less@@V?$allocator@UPLAYERINFO@CFriendMgr@@@2@@2@0@Z 00420870 f i FriendMgr.obj
 0001:0001f8a0       ?deallocate@?$allocator@Viterator@?$_Tree@V?$basic_string@DU?$char_traits@D@std@@V?$allocator@D@2@@std@@U?$pair@$$CBV?$basic_string@DU?$char_traits@D@std@@V?$allocator@D@2@@std@@UPLAYERINFO@CFriendMgr@@@2@U_Kfn@?$map@V?$basic_string@DU?$char_traits@D@std@@V?$allocator@D@2@@std@@UPLAYERINFO@CFriendMgr@@U_tstring_less@@V?$allocator@UPLAYERINFO@CFriendMgr@@@2@@2@U_tstring_less@@V?$allocator@UPLAYERINFO@CFriendMgr@@@2@@std@@@std@@QAEXPAXI@Z 004208a0 f i FriendMgr.obj
 0001:0001f8c0       ??0ADDFRIENDKEY@CFriendMgr@@QAE@ABU01@@Z 004208c0 f i FriendMgr.obj
 0001:0001f8f0       ??0ADDFRIENDVALUE@CFriendMgr@@QAE@ABU01@@Z 004208f0 f i FriendMgr.obj
 0001:0001f920       ??R_Kfn@?$map@V?$basic_string@DU?$char_traits@D@std@@V?$allocator@D@2@@std@@UFRIENDINFO@CFriendMgr@@U_tstring_less@@V?$allocator@UFRIENDINFO@CFriendMgr@@@2@@std@@QBEABV?$basic_string@DU?$char_traits@D@std@@V?$allocator@D@2@@2@ABU?$pair@$$CBV?$basic_string@DU?$char_traits@D@std@@V?$allocator@D@2@@std@@UFRIENDINFO@CFriendMgr@@@2@@Z 00420920 f i FriendMgr.obj
 0001:0001f930       ?deallocate@?$allocator@UFRIENDINFO@CFriendMgr@@@std@@QAEXPAXI@Z 00420930 f i FriendMgr.obj
 0001:0001f950       ?_Color@?$_Tree@V?$basic_string@DU?$char_traits@D@std@@V?$allocator@D@2@@std@@U?$pair@$$CBV?$basic_string@DU?$char_traits@D@std@@V?$allocator@D@2@@std@@UFRIENDINFO@CFriendMgr@@@2@U_Kfn@?$map@V?$basic_string@DU?$char_traits@D@std@@V?$allocator@D@2@@std@@UFRIENDINFO@CFriendMgr@@U_tstring_less@@V?$allocator@UFRIENDINFO@CFriendMgr@@@2@@2@U_tstring_less@@V?$allocator@UFRIENDINFO@CFriendMgr@@@2@@std@@KAAAW4_Redbl@12@PAU_Node@12@@Z 00420950 f i FriendMgr.obj
 0001:0001f960       ?_Key@?$_Tree@V?$basic_string@DU?$char_traits@D@std@@V?$allocator@D@2@@std@@U?$pair@$$CBV?$basic_string@DU?$char_traits@D@std@@V?$allocator@D@2@@std@@UFRIENDINFO@CFriendMgr@@@2@U_Kfn@?$map@V?$basic_string@DU?$char_traits@D@std@@V?$allocator@D@2@@std@@UFRIENDINFO@CFriendMgr@@U_tstring_less@@V?$allocator@UFRIENDINFO@CFriendMgr@@@2@@2@U_tstring_less@@V?$allocator@UFRIENDINFO@CFriendMgr@@@2@@std@@KAABV?$basic_string@DU?$char_traits@D@std@@V?$allocator@D@2@@2@PAU_Node@12@@Z 00420960 f i FriendMgr.obj
 0001:0001f980       ?_Left@?$_Tree@V?$basic_string@DU?$char_traits@D@std@@V?$allocator@D@2@@std@@U?$pair@$$CBV?$basic_string@DU?$char_traits@D@std@@V?$allocator@D@2@@std@@UFRIENDINFO@CFriendMgr@@@2@U_Kfn@?$map@V?$basic_string@DU?$char_traits@D@std@@V?$allocator@D@2@@std@@UFRIENDINFO@CFriendMgr@@U_tstring_less@@V?$allocator@UFRIENDINFO@CFriendMgr@@@2@@2@U_tstring_less@@V?$allocator@UFRIENDINFO@CFriendMgr@@@2@@std@@KAAAPAU_Node@12@PAU312@@Z 00420980 f i FriendMgr.obj
 0001:0001f990       ?_Parent@?$_Tree@V?$basic_string@DU?$char_traits@D@std@@V?$allocator@D@2@@std@@U?$pair@$$CBV?$basic_string@DU?$char_traits@D@std@@V?$allocator@D@2@@std@@UFRIENDINFO@CFriendMgr@@@2@U_Kfn@?$map@V?$basic_string@DU?$char_traits@D@std@@V?$allocator@D@2@@std@@UFRIENDINFO@CFriendMgr@@U_tstring_less@@V?$allocator@UFRIENDINFO@CFriendMgr@@@2@@2@U_tstring_less@@V?$allocator@UFRIENDINFO@CFriendMgr@@@2@@std@@KAAAPAU_Node@12@PAU312@@Z 00420990 f i FriendMgr.obj
 0001:0001f9a0       ?_Right@?$_Tree@V?$basic_string@DU?$char_traits@D@std@@V?$allocator@D@2@@std@@U?$pair@$$CBV?$basic_string@DU?$char_traits@D@std@@V?$allocator@D@2@@std@@UFRIENDINFO@CFriendMgr@@@2@U_Kfn@?$map@V?$basic_string@DU?$char_traits@D@std@@V?$allocator@D@2@@std@@UFRIENDINFO@CFriendMgr@@U_tstring_less@@V?$allocator@UFRIENDINFO@CFriendMgr@@@2@@2@U_tstring_less@@V?$allocator@UFRIENDINFO@CFriendMgr@@@2@@std@@KAAAPAU_Node@12@PAU312@@Z 004209a0 f i FriendMgr.obj
 0001:0001f9b0       ?size@?$_Tree@V?$basic_string@DU?$char_traits@D@std@@V?$allocator@D@2@@std@@U?$pair@$$CBV?$basic_string@DU?$char_traits@D@std@@V?$allocator@D@2@@std@@UFRIENDINFO@CFriendMgr@@@2@U_Kfn@?$map@V?$basic_string@DU?$char_traits@D@std@@V?$allocator@D@2@@std@@UFRIENDINFO@CFriendMgr@@U_tstring_less@@V?$allocator@UFRIENDINFO@CFriendMgr@@@2@@2@U_tstring_less@@V?$allocator@UFRIENDINFO@CFriendMgr@@@2@@std@@QBEIXZ 004209b0 f i FriendMgr.obj
 0001:0001f9d0       ?lower_bound@?$_Tree@V?$basic_string@DU?$char_traits@D@std@@V?$allocator@D@2@@std@@U?$pair@$$CBV?$basic_string@DU?$char_traits@D@std@@V?$allocator@D@2@@std@@UFRIENDINFO@CFriendMgr@@@2@U_Kfn@?$map@V?$basic_string@DU?$char_traits@D@std@@V?$allocator@D@2@@std@@UFRIENDINFO@CFriendMgr@@U_tstring_less@@V?$allocator@UFRIENDINFO@CFriendMgr@@@2@@2@U_tstring_less@@V?$allocator@UFRIENDINFO@CFriendMgr@@@2@@std@@QAE?AViterator@12@ABV?$basic_string@DU?$char_traits@D@std@@V?$allocator@D@2@@2@@Z 004209d0 f i FriendMgr.obj
 0001:0001fa00       ?equal_range@?$_Tree@V?$basic_string@DU?$char_traits@D@std@@V?$allocator@D@2@@std@@U?$pair@$$CBV?$basic_string@DU?$char_traits@D@std@@V?$allocator@D@2@@std@@UFRIENDINFO@CFriendMgr@@@2@U_Kfn@?$map@V?$basic_string@DU?$char_traits@D@std@@V?$allocator@D@2@@std@@UFRIENDINFO@CFriendMgr@@U_tstring_less@@V?$allocator@UFRIENDINFO@CFriendMgr@@@2@@2@U_tstring_less@@V?$allocator@UFRIENDINFO@CFriendMgr@@@2@@std@@QAE?AU?$pair@Viterator@?$_Tree@V?$basic_string@DU?$char_traits@D@std@@V?$allocator@D@2@@std@@U?$pair@$$CBV?$basic_string@DU?$char_traits@D@std@@V?$allocator@D@2@@std@@UFRIENDINFO@CFriendMgr@@@2@U_Kfn@?$map@V?$basic_string@DU?$char_traits@D@std@@V?$allocator@D@2@@std@@UFRIENDINFO@CFriendMgr@@U_tstring_less@@V?$allocator@UFRIENDINFO@CFriendMgr@@@2@@2@U_tstring_less@@V?$allocator@UFRIENDINFO@CFriendMgr@@@2@@std@@V123@@2@ABV?$basic_string@DU?$char_traits@D@std@@V?$allocator@D@2@@2@@Z 00420a00 f i FriendMgr.obj
 0001:0001fa50       ?_Copy@?$_Tree@V?$basic_string@DU?$char_traits@D@std@@V?$allocator@D@2@@std@@U?$pair@$$CBV?$basic_string@DU?$char_traits@D@std@@V?$allocator@D@2@@std@@UFRIENDINFO@CFriendMgr@@@2@U_Kfn@?$map@V?$basic_string@DU?$char_traits@D@std@@V?$allocator@D@2@@std@@UFRIENDINFO@CFriendMgr@@U_tstring_less@@V?$allocator@UFRIENDINFO@CFriendMgr@@@2@@2@U_tstring_less@@V?$allocator@UFRIENDINFO@CFriendMgr@@@2@@std@@IAEXABV12@@Z 00420a50 f i FriendMgr.obj
 0001:0001fb50       ?_Erase@?$_Tree@V?$basic_string@DU?$char_traits@D@std@@V?$allocator@D@2@@std@@U?$pair@$$CBV?$basic_string@DU?$char_traits@D@std@@V?$allocator@D@2@@std@@UFRIENDINFO@CFriendMgr@@@2@U_Kfn@?$map@V?$basic_string@DU?$char_traits@D@std@@V?$allocator@D@2@@std@@UFRIENDINFO@CFriendMgr@@U_tstring_less@@V?$allocator@UFRIENDINFO@CFriendMgr@@@2@@2@U_tstring_less@@V?$allocator@UFRIENDINFO@CFriendMgr@@@2@@std@@IAEXPAU_Node@12@@Z 00420b50 f i FriendMgr.obj
 0001:0001fc00       ?_Init@?$_Tree@V?$basic_string@DU?$char_traits@D@std@@V?$allocator@D@2@@std@@U?$pair@$$CBV?$basic_string@DU?$char_traits@D@std@@V?$allocator@D@2@@std@@UFRIENDINFO@CFriendMgr@@@2@U_Kfn@?$map@V?$basic_string@DU?$char_traits@D@std@@V?$allocator@D@2@@std@@UFRIENDINFO@CFriendMgr@@U_tstring_less@@V?$allocator@UFRIENDINFO@CFriendMgr@@@2@@2@U_tstring_less@@V?$allocator@UFRIENDINFO@CFriendMgr@@@2@@std@@IAEXXZ 00420c00 f i FriendMgr.obj
 0001:0001fce0       ?_Insert@?$_Tree@V?$basic_string@DU?$char_traits@D@std@@V?$allocator@D@2@@std@@U?$pair@$$CBV?$basic_string@DU?$char_traits@D@std@@V?$allocator@D@2@@std@@UFRIENDINFO@CFriendMgr@@@2@U_Kfn@?$map@V?$basic_string@DU?$char_traits@D@std@@V?$allocator@D@2@@std@@UFRIENDINFO@CFriendMgr@@U_tstring_less@@V?$allocator@UFRIENDINFO@CFriendMgr@@@2@@2@U_tstring_less@@V?$allocator@UFRIENDINFO@CFriendMgr@@@2@@std@@IAE?AViterator@12@PAU_Node@12@0ABU?$pair@$$CBV?$basic_string@DU?$char_traits@D@std@@V?$allocator@D@2@@std@@UFRIENDINFO@CFriendMgr@@@2@@Z 00420ce0 f i FriendMgr.obj
 0001:000201b0       ?_Lmost@?$_Tree@V?$basic_string@DU?$char_traits@D@std@@V?$allocator@D@2@@std@@U?$pair@$$CBV?$basic_string@DU?$char_traits@D@std@@V?$allocator@D@2@@std@@UFRIENDINFO@CFriendMgr@@@2@U_Kfn@?$map@V?$basic_string@DU?$char_traits@D@std@@V?$allocator@D@2@@std@@UFRIENDINFO@CFriendMgr@@U_tstring_less@@V?$allocator@UFRIENDINFO@CFriendMgr@@@2@@2@U_tstring_less@@V?$allocator@UFRIENDINFO@CFriendMgr@@@2@@std@@IAEAAPAU_Node@12@XZ 004211b0 f i FriendMgr.obj
 0001:000201d0       ?_Lrotate@?$_Tree@V?$basic_string@DU?$char_traits@D@std@@V?$allocator@D@2@@std@@U?$pair@$$CBV?$basic_string@DU?$char_traits@D@std@@V?$allocator@D@2@@std@@UFRIENDINFO@CFriendMgr@@@2@U_Kfn@?$map@V?$basic_string@DU?$char_traits@D@std@@V?$allocator@D@2@@std@@UFRIENDINFO@CFriendMgr@@U_tstring_less@@V?$allocator@UFRIENDINFO@CFriendMgr@@@2@@2@U_tstring_less@@V?$allocator@UFRIENDINFO@CFriendMgr@@@2@@std@@IAEXPAU_Node@12@@Z 004211d0 f i FriendMgr.obj
 0001:00020340       ?_Max@?$_Tree@V?$basic_string@DU?$char_traits@D@std@@V?$allocator@D@2@@std@@U?$pair@$$CBV?$basic_string@DU?$char_traits@D@std@@V?$allocator@D@2@@std@@UFRIENDINFO@CFriendMgr@@@2@U_Kfn@?$map@V?$basic_string@DU?$char_traits@D@std@@V?$allocator@D@2@@std@@UFRIENDINFO@CFriendMgr@@U_tstring_less@@V?$allocator@UFRIENDINFO@CFriendMgr@@@2@@2@U_tstring_less@@V?$allocator@UFRIENDINFO@CFriendMgr@@@2@@std@@KAPAU_Node@12@PAU312@@Z 00421340 f i FriendMgr.obj
 0001:000203c0       ?_Min@?$_Tree@V?$basic_string@DU?$char_traits@D@std@@V?$allocator@D@2@@std@@U?$pair@$$CBV?$basic_string@DU?$char_traits@D@std@@V?$allocator@D@2@@std@@UFRIENDINFO@CFriendMgr@@@2@U_Kfn@?$map@V?$basic_string@DU?$char_traits@D@std@@V?$allocator@D@2@@std@@UFRIENDINFO@CFriendMgr@@U_tstring_less@@V?$allocator@UFRIENDINFO@CFriendMgr@@@2@@2@U_tstring_less@@V?$allocator@UFRIENDINFO@CFriendMgr@@@2@@std@@KAPAU_Node@12@PAU312@@Z 004213c0 f i FriendMgr.obj
 0001:00020440       ?_Rmost@?$_Tree@V?$basic_string@DU?$char_traits@D@std@@V?$allocator@D@2@@std@@U?$pair@$$CBV?$basic_string@DU?$char_traits@D@std@@V?$allocator@D@2@@std@@UFRIENDINFO@CFriendMgr@@@2@U_Kfn@?$map@V?$basic_string@DU?$char_traits@D@std@@V?$allocator@D@2@@std@@UFRIENDINFO@CFriendMgr@@U_tstring_less@@V?$allocator@UFRIENDINFO@CFriendMgr@@@2@@2@U_tstring_less@@V?$allocator@UFRIENDINFO@CFriendMgr@@@2@@std@@IAEAAPAU_Node@12@XZ 00421440 f i FriendMgr.obj
 0001:00020460       ?_Root@?$_Tree@V?$basic_string@DU?$char_traits@D@std@@V?$allocator@D@2@@std@@U?$pair@$$CBV?$basic_string@DU?$char_traits@D@std@@V?$allocator@D@2@@std@@UFRIENDINFO@CFriendMgr@@@2@U_Kfn@?$map@V?$basic_string@DU?$char_traits@D@std@@V?$allocator@D@2@@std@@UFRIENDINFO@CFriendMgr@@U_tstring_less@@V?$allocator@UFRIENDINFO@CFriendMgr@@@2@@2@U_tstring_less@@V?$allocator@UFRIENDINFO@CFriendMgr@@@2@@std@@IAEAAPAU_Node@12@XZ 00421460 f i FriendMgr.obj
 0001:00020480       ?_Rrotate@?$_Tree@V?$basic_string@DU?$char_traits@D@std@@V?$allocator@D@2@@std@@U?$pair@$$CBV?$basic_string@DU?$char_traits@D@std@@V?$allocator@D@2@@std@@UFRIENDINFO@CFriendMgr@@@2@U_Kfn@?$map@V?$basic_string@DU?$char_traits@D@std@@V?$allocator@D@2@@std@@UFRIENDINFO@CFriendMgr@@U_tstring_less@@V?$allocator@UFRIENDINFO@CFriendMgr@@@2@@2@U_tstring_less@@V?$allocator@UFRIENDINFO@CFriendMgr@@@2@@std@@IAEXPAU_Node@12@@Z 00421480 f i FriendMgr.obj
 0001:000205f0       ?_Destval@?$_Tree@V?$basic_string@DU?$char_traits@D@std@@V?$allocator@D@2@@std@@U?$pair@$$CBV?$basic_string@DU?$char_traits@D@std@@V?$allocator@D@2@@std@@UFRIENDINFO@CFriendMgr@@@2@U_Kfn@?$map@V?$basic_string@DU?$char_traits@D@std@@V?$allocator@D@2@@std@@UFRIENDINFO@CFriendMgr@@U_tstring_less@@V?$allocator@UFRIENDINFO@CFriendMgr@@@2@@2@U_tstring_less@@V?$allocator@UFRIENDINFO@CFriendMgr@@@2@@std@@IAEXPAU?$pair@$$CBV?$basic_string@DU?$char_traits@D@std@@V?$allocator@D@2@@std@@UFRIENDINFO@CFriendMgr@@@2@@Z 004215f0 f i FriendMgr.obj
 0001:00020610       ?_Inc@const_iterator@?$_Tree@V?$basic_string@DU?$char_traits@D@std@@V?$allocator@D@2@@std@@U?$pair@$$CBV?$basic_string@DU?$char_traits@D@std@@V?$allocator@D@2@@std@@UFRIENDINFO@CFriendMgr@@@2@U_Kfn@?$map@V?$basic_string@DU?$char_traits@D@std@@V?$allocator@D@2@@std@@UFRIENDINFO@CFriendMgr@@U_tstring_less@@V?$allocator@UFRIENDINFO@CFriendMgr@@@2@@2@U_tstring_less@@V?$allocator@UFRIENDINFO@CFriendMgr@@@2@@std@@QAEXXZ 00421610 f i FriendMgr.obj
 0001:000206f0       ?_Mynode@const_iterator@?$_Tree@V?$basic_string@DU?$char_traits@D@std@@V?$allocator@D@2@@std@@U?$pair@$$CBV?$basic_string@DU?$char_traits@D@std@@V?$allocator@D@2@@std@@UFRIENDINFO@CFriendMgr@@@2@U_Kfn@?$map@V?$basic_string@DU?$char_traits@D@std@@V?$allocator@D@2@@std@@UFRIENDINFO@CFriendMgr@@U_tstring_less@@V?$allocator@UFRIENDINFO@CFriendMgr@@@2@@2@U_tstring_less@@V?$allocator@UFRIENDINFO@CFriendMgr@@@2@@std@@QBEPAU_Node@23@XZ 004216f0 f i FriendMgr.obj
 0001:00020700       ??0iterator@?$_Tree@V?$basic_string@DU?$char_traits@D@std@@V?$allocator@D@2@@std@@U?$pair@$$CBV?$basic_string@DU?$char_traits@D@std@@V?$allocator@D@2@@std@@UFRIENDINFO@CFriendMgr@@@2@U_Kfn@?$map@V?$basic_string@DU?$char_traits@D@std@@V?$allocator@D@2@@std@@UFRIENDINFO@CFriendMgr@@U_tstring_less@@V?$allocator@UFRIENDINFO@CFriendMgr@@@2@@2@U_tstring_less@@V?$allocator@UFRIENDINFO@CFriendMgr@@@2@@std@@QAE@PAU_Node@12@@Z 00421700 f i FriendMgr.obj
 0001:00020720       ??Fiterator@?$_Tree@V?$basic_string@DU?$char_traits@D@std@@V?$allocator@D@2@@std@@U?$pair@$$CBV?$basic_string@DU?$char_traits@D@std@@V?$allocator@D@2@@std@@UFRIENDINFO@CFriendMgr@@@2@U_Kfn@?$map@V?$basic_string@DU?$char_traits@D@std@@V?$allocator@D@2@@std@@UFRIENDINFO@CFriendMgr@@U_tstring_less@@V?$allocator@UFRIENDINFO@CFriendMgr@@@2@@2@U_tstring_less@@V?$allocator@UFRIENDINFO@CFriendMgr@@@2@@std@@QAEAAV012@XZ 00421720 f i FriendMgr.obj
 0001:00020740       ??R_Kfn@?$map@V?$basic_string@DU?$char_traits@D@std@@V?$allocator@D@2@@std@@UPLAYERINFO@CFriendMgr@@U_tstring_less@@V?$allocator@UPLAYERINFO@CFriendMgr@@@2@@std@@QBEABV?$basic_string@DU?$char_traits@D@std@@V?$allocator@D@2@@2@ABU?$pair@$$CBV?$basic_string@DU?$char_traits@D@std@@V?$allocator@D@2@@std@@UPLAYERINFO@CFriendMgr@@@2@@Z 00421740 f i FriendMgr.obj
 0001:00020750       ?deallocate@?$allocator@UPLAYERINFO@CFriendMgr@@@std@@QAEXPAXI@Z 00421750 f i FriendMgr.obj
 0001:00020770       ?_Color@?$_Tree@V?$basic_string@DU?$char_traits@D@std@@V?$allocator@D@2@@std@@U?$pair@$$CBV?$basic_string@DU?$char_traits@D@std@@V?$allocator@D@2@@std@@UPLAYERINFO@CFriendMgr@@@2@U_Kfn@?$map@V?$basic_string@DU?$char_traits@D@std@@V?$allocator@D@2@@std@@UPLAYERINFO@CFriendMgr@@U_tstring_less@@V?$allocator@UPLAYERINFO@CFriendMgr@@@2@@2@U_tstring_less@@V?$allocator@UPLAYERINFO@CFriendMgr@@@2@@std@@KAAAW4_Redbl@12@PAU_Node@12@@Z 00421770 f i FriendMgr.obj
 0001:00020780       ?_Key@?$_Tree@V?$basic_string@DU?$char_traits@D@std@@V?$allocator@D@2@@std@@U?$pair@$$CBV?$basic_string@DU?$char_traits@D@std@@V?$allocator@D@2@@std@@UPLAYERINFO@CFriendMgr@@@2@U_Kfn@?$map@V?$basic_string@DU?$char_traits@D@std@@V?$allocator@D@2@@std@@UPLAYERINFO@CFriendMgr@@U_tstring_less@@V?$allocator@UPLAYERINFO@CFriendMgr@@@2@@2@U_tstring_less@@V?$allocator@UPLAYERINFO@CFriendMgr@@@2@@std@@KAABV?$basic_string@DU?$char_traits@D@std@@V?$allocator@D@2@@2@PAU_Node@12@@Z 00421780 f i FriendMgr.obj
 0001:000207a0       ?_Left@?$_Tree@V?$basic_string@DU?$char_traits@D@std@@V?$allocator@D@2@@std@@U?$pair@$$CBV?$basic_string@DU?$char_traits@D@std@@V?$allocator@D@2@@std@@UPLAYERINFO@CFriendMgr@@@2@U_Kfn@?$map@V?$basic_string@DU?$char_traits@D@std@@V?$allocator@D@2@@std@@UPLAYERINFO@CFriendMgr@@U_tstring_less@@V?$allocator@UPLAYERINFO@CFriendMgr@@@2@@2@U_tstring_less@@V?$allocator@UPLAYERINFO@CFriendMgr@@@2@@std@@KAAAPAU_Node@12@PAU312@@Z 004217a0 f i FriendMgr.obj
 0001:000207b0       ?_Parent@?$_Tree@V?$basic_string@DU?$char_traits@D@std@@V?$allocator@D@2@@std@@U?$pair@$$CBV?$basic_string@DU?$char_traits@D@std@@V?$allocator@D@2@@std@@UPLAYERINFO@CFriendMgr@@@2@U_Kfn@?$map@V?$basic_string@DU?$char_traits@D@std@@V?$allocator@D@2@@std@@UPLAYERINFO@CFriendMgr@@U_tstring_less@@V?$allocator@UPLAYERINFO@CFriendMgr@@@2@@2@U_tstring_less@@V?$allocator@UPLAYERINFO@CFriendMgr@@@2@@std@@KAAAPAU_Node@12@PAU312@@Z 004217b0 f i FriendMgr.obj
 0001:000207c0       ?_Right@?$_Tree@V?$basic_string@DU?$char_traits@D@std@@V?$allocator@D@2@@std@@U?$pair@$$CBV?$basic_string@DU?$char_traits@D@std@@V?$allocator@D@2@@std@@UPLAYERINFO@CFriendMgr@@@2@U_Kfn@?$map@V?$basic_string@DU?$char_traits@D@std@@V?$allocator@D@2@@std@@UPLAYERINFO@CFriendMgr@@U_tstring_less@@V?$allocator@UPLAYERINFO@CFriendMgr@@@2@@2@U_tstring_less@@V?$allocator@UPLAYERINFO@CFriendMgr@@@2@@std@@KAAAPAU_Node@12@PAU312@@Z 004217c0 f i FriendMgr.obj
 0001:000207d0       ?erase@?$_Tree@V?$basic_string@DU?$char_traits@D@std@@V?$allocator@D@2@@std@@U?$pair@$$CBV?$basic_string@DU?$char_traits@D@std@@V?$allocator@D@2@@std@@UPLAYERINFO@CFriendMgr@@@2@U_Kfn@?$map@V?$basic_string@DU?$char_traits@D@std@@V?$allocator@D@2@@std@@UPLAYERINFO@CFriendMgr@@U_tstring_less@@V?$allocator@UPLAYERINFO@CFriendMgr@@@2@@2@U_tstring_less@@V?$allocator@UPLAYERINFO@CFriendMgr@@@2@@std@@QAE?AViterator@12@V312@@Z 004217d0 f i FriendMgr.obj
 0001:00021020       ?lower_bound@?$_Tree@V?$basic_string@DU?$char_traits@D@std@@V?$allocator@D@2@@std@@U?$pair@$$CBV?$basic_string@DU?$char_traits@D@std@@V?$allocator@D@2@@std@@UPLAYERINFO@CFriendMgr@@@2@U_Kfn@?$map@V?$basic_string@DU?$char_traits@D@std@@V?$allocator@D@2@@std@@UPLAYERINFO@CFriendMgr@@U_tstring_less@@V?$allocator@UPLAYERINFO@CFriendMgr@@@2@@2@U_tstring_less@@V?$allocator@UPLAYERINFO@CFriendMgr@@@2@@std@@QAE?AViterator@12@ABV?$basic_string@DU?$char_traits@D@std@@V?$allocator@D@2@@2@@Z 00422020 f i FriendMgr.obj
 0001:00021050       ?_Erase@?$_Tree@V?$basic_string@DU?$char_traits@D@std@@V?$allocator@D@2@@std@@U?$pair@$$CBV?$basic_string@DU?$char_traits@D@std@@V?$allocator@D@2@@std@@UPLAYERINFO@CFriendMgr@@@2@U_Kfn@?$map@V?$basic_string@DU?$char_traits@D@std@@V?$allocator@D@2@@std@@UPLAYERINFO@CFriendMgr@@U_tstring_less@@V?$allocator@UPLAYERINFO@CFriendMgr@@@2@@2@U_tstring_less@@V?$allocator@UPLAYERINFO@CFriendMgr@@@2@@std@@IAEXPAU_Node@12@@Z 00422050 f i FriendMgr.obj
 0001:00021100       ?_Init@?$_Tree@V?$basic_string@DU?$char_traits@D@std@@V?$allocator@D@2@@std@@U?$pair@$$CBV?$basic_string@DU?$char_traits@D@std@@V?$allocator@D@2@@std@@UPLAYERINFO@CFriendMgr@@@2@U_Kfn@?$map@V?$basic_string@DU?$char_traits@D@std@@V?$allocator@D@2@@std@@UPLAYERINFO@CFriendMgr@@U_tstring_less@@V?$allocator@UPLAYERINFO@CFriendMgr@@@2@@2@U_tstring_less@@V?$allocator@UPLAYERINFO@CFriendMgr@@@2@@std@@IAEXXZ 00422100 f i FriendMgr.obj
 0001:000211e0       ?_Insert@?$_Tree@V?$basic_string@DU?$char_traits@D@std@@V?$allocator@D@2@@std@@U?$pair@$$CBV?$basic_string@DU?$char_traits@D@std@@V?$allocator@D@2@@std@@UPLAYERINFO@CFriendMgr@@@2@U_Kfn@?$map@V?$basic_string@DU?$char_traits@D@std@@V?$allocator@D@2@@std@@UPLAYERINFO@CFriendMgr@@U_tstring_less@@V?$allocator@UPLAYERINFO@CFriendMgr@@@2@@2@U_tstring_less@@V?$allocator@UPLAYERINFO@CFriendMgr@@@2@@std@@IAE?AViterator@12@PAU_Node@12@0ABU?$pair@$$CBV?$basic_string@DU?$char_traits@D@std@@V?$allocator@D@2@@std@@UPLAYERINFO@CFriendMgr@@@2@@Z 004221e0 f i FriendMgr.obj
 0001:000216b0       ?_Lmost@?$_Tree@V?$basic_string@DU?$char_traits@D@std@@V?$allocator@D@2@@std@@U?$pair@$$CBV?$basic_string@DU?$char_traits@D@std@@V?$allocator@D@2@@std@@UPLAYERINFO@CFriendMgr@@@2@U_Kfn@?$map@V?$basic_string@DU?$char_traits@D@std@@V?$allocator@D@2@@std@@UPLAYERINFO@CFriendMgr@@U_tstring_less@@V?$allocator@UPLAYERINFO@CFriendMgr@@@2@@2@U_tstring_less@@V?$allocator@UPLAYERINFO@CFriendMgr@@@2@@std@@IAEAAPAU_Node@12@XZ 004226b0 f i FriendMgr.obj
 0001:000216d0       ?_Max@?$_Tree@V?$basic_string@DU?$char_traits@D@std@@V?$allocator@D@2@@std@@U?$pair@$$CBV?$basic_string@DU?$char_traits@D@std@@V?$allocator@D@2@@std@@UPLAYERINFO@CFriendMgr@@@2@U_Kfn@?$map@V?$basic_string@DU?$char_traits@D@std@@V?$allocator@D@2@@std@@UPLAYERINFO@CFriendMgr@@U_tstring_less@@V?$allocator@UPLAYERINFO@CFriendMgr@@@2@@2@U_tstring_less@@V?$allocator@UPLAYERINFO@CFriendMgr@@@2@@std@@KAPAU_Node@12@PAU312@@Z 004226d0 f i FriendMgr.obj
 0001:00021750       ?_Min@?$_Tree@V?$basic_string@DU?$char_traits@D@std@@V?$allocator@D@2@@std@@U?$pair@$$CBV?$basic_string@DU?$char_traits@D@std@@V?$allocator@D@2@@std@@UPLAYERINFO@CFriendMgr@@@2@U_Kfn@?$map@V?$basic_string@DU?$char_traits@D@std@@V?$allocator@D@2@@std@@UPLAYERINFO@CFriendMgr@@U_tstring_less@@V?$allocator@UPLAYERINFO@CFriendMgr@@@2@@2@U_tstring_less@@V?$allocator@UPLAYERINFO@CFriendMgr@@@2@@std@@KAPAU_Node@12@PAU312@@Z 00422750 f i FriendMgr.obj
 0001:000217d0       ?_Rmost@?$_Tree@V?$basic_string@DU?$char_traits@D@std@@V?$allocator@D@2@@std@@U?$pair@$$CBV?$basic_string@DU?$char_traits@D@std@@V?$allocator@D@2@@std@@UPLAYERINFO@CFriendMgr@@@2@U_Kfn@?$map@V?$basic_string@DU?$char_traits@D@std@@V?$allocator@D@2@@std@@UPLAYERINFO@CFriendMgr@@U_tstring_less@@V?$allocator@UPLAYERINFO@CFriendMgr@@@2@@2@U_tstring_less@@V?$allocator@UPLAYERINFO@CFriendMgr@@@2@@std@@IAEAAPAU_Node@12@XZ 004227d0 f i FriendMgr.obj
 0001:000217f0       ?_Root@?$_Tree@V?$basic_string@DU?$char_traits@D@std@@V?$allocator@D@2@@std@@U?$pair@$$CBV?$basic_string@DU?$char_traits@D@std@@V?$allocator@D@2@@std@@UPLAYERINFO@CFriendMgr@@@2@U_Kfn@?$map@V?$basic_string@DU?$char_traits@D@std@@V?$allocator@D@2@@std@@UPLAYERINFO@CFriendMgr@@U_tstring_less@@V?$allocator@UPLAYERINFO@CFriendMgr@@@2@@2@U_tstring_less@@V?$allocator@UPLAYERINFO@CFriendMgr@@@2@@std@@IAEAAPAU_Node@12@XZ 004227f0 f i FriendMgr.obj
 0001:00021810       ?_Mynode@const_iterator@?$_Tree@V?$basic_string@DU?$char_traits@D@std@@V?$allocator@D@2@@std@@U?$pair@$$CBV?$basic_string@DU?$char_traits@D@std@@V?$allocator@D@2@@std@@UPLAYERINFO@CFriendMgr@@@2@U_Kfn@?$map@V?$basic_string@DU?$char_traits@D@std@@V?$allocator@D@2@@std@@UPLAYERINFO@CFriendMgr@@U_tstring_less@@V?$allocator@UPLAYERINFO@CFriendMgr@@@2@@2@U_tstring_less@@V?$allocator@UPLAYERINFO@CFriendMgr@@@2@@std@@QBEPAU_Node@23@XZ 00422810 f i FriendMgr.obj
 0001:00021820       ??0iterator@?$_Tree@V?$basic_string@DU?$char_traits@D@std@@V?$allocator@D@2@@std@@U?$pair@$$CBV?$basic_string@DU?$char_traits@D@std@@V?$allocator@D@2@@std@@UPLAYERINFO@CFriendMgr@@@2@U_Kfn@?$map@V?$basic_string@DU?$char_traits@D@std@@V?$allocator@D@2@@std@@UPLAYERINFO@CFriendMgr@@U_tstring_less@@V?$allocator@UPLAYERINFO@CFriendMgr@@@2@@2@U_tstring_less@@V?$allocator@UPLAYERINFO@CFriendMgr@@@2@@std@@QAE@PAU_Node@12@@Z 00422820 f i FriendMgr.obj
 0001:00021840       ??R?$less@UADDFRIENDKEY@CFriendMgr@@@std@@QBE_NABUADDFRIENDKEY@CFriendMgr@@0@Z 00422840 f i FriendMgr.obj
 0001:00021860       ??MADDFRIENDKEY@CFriendMgr@@QBE_NABU01@@Z 00422860 f i FriendMgr.obj
 0001:000218d0       ?deallocate@?$allocator@UADDFRIENDVALUE@CFriendMgr@@@std@@QAEXPAXI@Z 004228d0 f i FriendMgr.obj
 0001:000218f0       ?_Color@?$_Tree@UADDFRIENDKEY@CFriendMgr@@U?$pair@$$CBUADDFRIENDKEY@CFriendMgr@@UADDFRIENDVALUE@2@@std@@U_Kfn@?$map@UADDFRIENDKEY@CFriendMgr@@UADDFRIENDVALUE@2@U?$less@UADDFRIENDKEY@CFriendMgr@@@std@@V?$allocator@UADDFRIENDVALUE@CFriendMgr@@@5@@4@U?$less@UADDFRIENDKEY@CFriendMgr@@@4@V?$allocator@UADDFRIENDVALUE@CFriendMgr@@@4@@std@@KAAAW4_Redbl@12@PAU_Node@12@@Z 004228f0 f i FriendMgr.obj
 0001:00021900       ?_Key@?$_Tree@UADDFRIENDKEY@CFriendMgr@@U?$pair@$$CBUADDFRIENDKEY@CFriendMgr@@UADDFRIENDVALUE@2@@std@@U_Kfn@?$map@UADDFRIENDKEY@CFriendMgr@@UADDFRIENDVALUE@2@U?$less@UADDFRIENDKEY@CFriendMgr@@@std@@V?$allocator@UADDFRIENDVALUE@CFriendMgr@@@5@@4@U?$less@UADDFRIENDKEY@CFriendMgr@@@4@V?$allocator@UADDFRIENDVALUE@CFriendMgr@@@4@@std@@KAABUADDFRIENDKEY@CFriendMgr@@PAU_Node@12@@Z 00422900 f i FriendMgr.obj
 0001:00021920       ?_Left@?$_Tree@UADDFRIENDKEY@CFriendMgr@@U?$pair@$$CBUADDFRIENDKEY@CFriendMgr@@UADDFRIENDVALUE@2@@std@@U_Kfn@?$map@UADDFRIENDKEY@CFriendMgr@@UADDFRIENDVALUE@2@U?$less@UADDFRIENDKEY@CFriendMgr@@@std@@V?$allocator@UADDFRIENDVALUE@CFriendMgr@@@5@@4@U?$less@UADDFRIENDKEY@CFriendMgr@@@4@V?$allocator@UADDFRIENDVALUE@CFriendMgr@@@4@@std@@KAAAPAU_Node@12@PAU312@@Z 00422920 f i FriendMgr.obj
 0001:00021930       ?_Parent@?$_Tree@UADDFRIENDKEY@CFriendMgr@@U?$pair@$$CBUADDFRIENDKEY@CFriendMgr@@UADDFRIENDVALUE@2@@std@@U_Kfn@?$map@UADDFRIENDKEY@CFriendMgr@@UADDFRIENDVALUE@2@U?$less@UADDFRIENDKEY@CFriendMgr@@@std@@V?$allocator@UADDFRIENDVALUE@CFriendMgr@@@5@@4@U?$less@UADDFRIENDKEY@CFriendMgr@@@4@V?$allocator@UADDFRIENDVALUE@CFriendMgr@@@4@@std@@KAAAPAU_Node@12@PAU312@@Z 00422930 f i FriendMgr.obj
 0001:00021940       ?_Right@?$_Tree@UADDFRIENDKEY@CFriendMgr@@U?$pair@$$CBUADDFRIENDKEY@CFriendMgr@@UADDFRIENDVALUE@2@@std@@U_Kfn@?$map@UADDFRIENDKEY@CFriendMgr@@UADDFRIENDVALUE@2@U?$less@UADDFRIENDKEY@CFriendMgr@@@std@@V?$allocator@UADDFRIENDVALUE@CFriendMgr@@@5@@4@U?$less@UADDFRIENDKEY@CFriendMgr@@@4@V?$allocator@UADDFRIENDVALUE@CFriendMgr@@@4@@std@@KAAAPAU_Node@12@PAU312@@Z 00422940 f i FriendMgr.obj
 0001:00021950       ?insert@?$_Tree@UADDFRIENDKEY@CFriendMgr@@U?$pair@$$CBUADDFRIENDKEY@CFriendMgr@@UADDFRIENDVALUE@2@@std@@U_Kfn@?$map@UADDFRIENDKEY@CFriendMgr@@UADDFRIENDVALUE@2@U?$less@UADDFRIENDKEY@CFriendMgr@@@std@@V?$allocator@UADDFRIENDVALUE@CFriendMgr@@@5@@4@U?$less@UADDFRIENDKEY@CFriendMgr@@@4@V?$allocator@UADDFRIENDVALUE@CFriendMgr@@@4@@std@@QAE?AU?$pair@Viterator@?$_Tree@UADDFRIENDKEY@CFriendMgr@@U?$pair@$$CBUADDFRIENDKEY@CFriendMgr@@UADDFRIENDVALUE@2@@std@@U_Kfn@?$map@UADDFRIENDKEY@CFriendMgr@@UADDFRIENDVALUE@2@U?$less@UADDFRIENDKEY@CFriendMgr@@@std@@V?$allocator@UADDFRIENDVALUE@CFriendMgr@@@5@@4@U?$less@UADDFRIENDKEY@CFriendMgr@@@4@V?$allocator@UADDFRIENDVALUE@CFriendMgr@@@4@@std@@_N@2@ABU?$pair@$$CBUADDFRIENDKEY@CFriendMgr@@UADDFRIENDVALUE@2@@2@@Z 00422950 f i FriendMgr.obj
 0001:00021b90       ?lower_bound@?$_Tree@UADDFRIENDKEY@CFriendMgr@@U?$pair@$$CBUADDFRIENDKEY@CFriendMgr@@UADDFRIENDVALUE@2@@std@@U_Kfn@?$map@UADDFRIENDKEY@CFriendMgr@@UADDFRIENDVALUE@2@U?$less@UADDFRIENDKEY@CFriendMgr@@@std@@V?$allocator@UADDFRIENDVALUE@CFriendMgr@@@5@@4@U?$less@UADDFRIENDKEY@CFriendMgr@@@4@V?$allocator@UADDFRIENDVALUE@CFriendMgr@@@4@@std@@QAE?AViterator@12@ABUADDFRIENDKEY@CFriendMgr@@@Z 00422b90 f i FriendMgr.obj
 0001:00021bc0       ?_Erase@?$_Tree@UADDFRIENDKEY@CFriendMgr@@U?$pair@$$CBUADDFRIENDKEY@CFriendMgr@@UADDFRIENDVALUE@2@@std@@U_Kfn@?$map@UADDFRIENDKEY@CFriendMgr@@UADDFRIENDVALUE@2@U?$less@UADDFRIENDKEY@CFriendMgr@@@std@@V?$allocator@UADDFRIENDVALUE@CFriendMgr@@@5@@4@U?$less@UADDFRIENDKEY@CFriendMgr@@@4@V?$allocator@UADDFRIENDVALUE@CFriendMgr@@@4@@std@@IAEXPAU_Node@12@@Z 00422bc0 f i FriendMgr.obj
 0001:00021c70       ?_Init@?$_Tree@UADDFRIENDKEY@CFriendMgr@@U?$pair@$$CBUADDFRIENDKEY@CFriendMgr@@UADDFRIENDVALUE@2@@std@@U_Kfn@?$map@UADDFRIENDKEY@CFriendMgr@@UADDFRIENDVALUE@2@U?$less@UADDFRIENDKEY@CFriendMgr@@@std@@V?$allocator@UADDFRIENDVALUE@CFriendMgr@@@5@@4@U?$less@UADDFRIENDKEY@CFriendMgr@@@4@V?$allocator@UADDFRIENDVALUE@CFriendMgr@@@4@@std@@IAEXXZ 00422c70 f i FriendMgr.obj
 0001:00021d50       ?_Lmost@?$_Tree@UADDFRIENDKEY@CFriendMgr@@U?$pair@$$CBUADDFRIENDKEY@CFriendMgr@@UADDFRIENDVALUE@2@@std@@U_Kfn@?$map@UADDFRIENDKEY@CFriendMgr@@UADDFRIENDVALUE@2@U?$less@UADDFRIENDKEY@CFriendMgr@@@std@@V?$allocator@UADDFRIENDVALUE@CFriendMgr@@@5@@4@U?$less@UADDFRIENDKEY@CFriendMgr@@@4@V?$allocator@UADDFRIENDVALUE@CFriendMgr@@@4@@std@@IAEAAPAU_Node@12@XZ 00422d50 f i FriendMgr.obj
 0001:00021d70       ?_Lrotate@?$_Tree@UADDFRIENDKEY@CFriendMgr@@U?$pair@$$CBUADDFRIENDKEY@CFriendMgr@@UADDFRIENDVALUE@2@@std@@U_Kfn@?$map@UADDFRIENDKEY@CFriendMgr@@UADDFRIENDVALUE@2@U?$less@UADDFRIENDKEY@CFriendMgr@@@std@@V?$allocator@UADDFRIENDVALUE@CFriendMgr@@@5@@4@U?$less@UADDFRIENDKEY@CFriendMgr@@@4@V?$allocator@UADDFRIENDVALUE@CFriendMgr@@@4@@std@@IAEXPAU_Node@12@@Z 00422d70 f i FriendMgr.obj
 0001:00021ee0       ?_Max@?$_Tree@UADDFRIENDKEY@CFriendMgr@@U?$pair@$$CBUADDFRIENDKEY@CFriendMgr@@UADDFRIENDVALUE@2@@std@@U_Kfn@?$map@UADDFRIENDKEY@CFriendMgr@@UADDFRIENDVALUE@2@U?$less@UADDFRIENDKEY@CFriendMgr@@@std@@V?$allocator@UADDFRIENDVALUE@CFriendMgr@@@5@@4@U?$less@UADDFRIENDKEY@CFriendMgr@@@4@V?$allocator@UADDFRIENDVALUE@CFriendMgr@@@4@@std@@KAPAU_Node@12@PAU312@@Z 00422ee0 f i FriendMgr.obj
 0001:00021f60       ?_Min@?$_Tree@UADDFRIENDKEY@CFriendMgr@@U?$pair@$$CBUADDFRIENDKEY@CFriendMgr@@UADDFRIENDVALUE@2@@std@@U_Kfn@?$map@UADDFRIENDKEY@CFriendMgr@@UADDFRIENDVALUE@2@U?$less@UADDFRIENDKEY@CFriendMgr@@@std@@V?$allocator@UADDFRIENDVALUE@CFriendMgr@@@5@@4@U?$less@UADDFRIENDKEY@CFriendMgr@@@4@V?$allocator@UADDFRIENDVALUE@CFriendMgr@@@4@@std@@KAPAU_Node@12@PAU312@@Z 00422f60 f i FriendMgr.obj
 0001:00021fe0       ?_Rmost@?$_Tree@UADDFRIENDKEY@CFriendMgr@@U?$pair@$$CBUADDFRIENDKEY@CFriendMgr@@UADDFRIENDVALUE@2@@std@@U_Kfn@?$map@UADDFRIENDKEY@CFriendMgr@@UADDFRIENDVALUE@2@U?$less@UADDFRIENDKEY@CFriendMgr@@@std@@V?$allocator@UADDFRIENDVALUE@CFriendMgr@@@5@@4@U?$less@UADDFRIENDKEY@CFriendMgr@@@4@V?$allocator@UADDFRIENDVALUE@CFriendMgr@@@4@@std@@IAEAAPAU_Node@12@XZ 00422fe0 f i FriendMgr.obj
 0001:00022000       ?_Root@?$_Tree@UADDFRIENDKEY@CFriendMgr@@U?$pair@$$CBUADDFRIENDKEY@CFriendMgr@@UADDFRIENDVALUE@2@@std@@U_Kfn@?$map@UADDFRIENDKEY@CFriendMgr@@UADDFRIENDVALUE@2@U?$less@UADDFRIENDKEY@CFriendMgr@@@std@@V?$allocator@UADDFRIENDVALUE@CFriendMgr@@@5@@4@U?$less@UADDFRIENDKEY@CFriendMgr@@@4@V?$allocator@UADDFRIENDVALUE@CFriendMgr@@@4@@std@@IAEAAPAU_Node@12@XZ 00423000 f i FriendMgr.obj
 0001:00022020       ?_Rrotate@?$_Tree@UADDFRIENDKEY@CFriendMgr@@U?$pair@$$CBUADDFRIENDKEY@CFriendMgr@@UADDFRIENDVALUE@2@@std@@U_Kfn@?$map@UADDFRIENDKEY@CFriendMgr@@UADDFRIENDVALUE@2@U?$less@UADDFRIENDKEY@CFriendMgr@@@std@@V?$allocator@UADDFRIENDVALUE@CFriendMgr@@@5@@4@U?$less@UADDFRIENDKEY@CFriendMgr@@@4@V?$allocator@UADDFRIENDVALUE@CFriendMgr@@@4@@std@@IAEXPAU_Node@12@@Z 00423020 f i FriendMgr.obj
 0001:00022190       ?_Destval@?$_Tree@UADDFRIENDKEY@CFriendMgr@@U?$pair@$$CBUADDFRIENDKEY@CFriendMgr@@UADDFRIENDVALUE@2@@std@@U_Kfn@?$map@UADDFRIENDKEY@CFriendMgr@@UADDFRIENDVALUE@2@U?$less@UADDFRIENDKEY@CFriendMgr@@@std@@V?$allocator@UADDFRIENDVALUE@CFriendMgr@@@5@@4@U?$less@UADDFRIENDKEY@CFriendMgr@@@4@V?$allocator@UADDFRIENDVALUE@CFriendMgr@@@4@@std@@IAEXPAU?$pair@$$CBUADDFRIENDKEY@CFriendMgr@@UADDFRIENDVALUE@2@@2@@Z 00423190 f i FriendMgr.obj
 0001:000221b0       ?_Mynode@const_iterator@?$_Tree@UADDFRIENDKEY@CFriendMgr@@U?$pair@$$CBUADDFRIENDKEY@CFriendMgr@@UADDFRIENDVALUE@2@@std@@U_Kfn@?$map@UADDFRIENDKEY@CFriendMgr@@UADDFRIENDVALUE@2@U?$less@UADDFRIENDKEY@CFriendMgr@@@std@@V?$allocator@UADDFRIENDVALUE@CFriendMgr@@@5@@4@U?$less@UADDFRIENDKEY@CFriendMgr@@@4@V?$allocator@UADDFRIENDVALUE@CFriendMgr@@@4@@std@@QBEPAU_Node@23@XZ 004231b0 f i FriendMgr.obj
 0001:000221c0       ??0iterator@?$_Tree@UADDFRIENDKEY@CFriendMgr@@U?$pair@$$CBUADDFRIENDKEY@CFriendMgr@@UADDFRIENDVALUE@2@@std@@U_Kfn@?$map@UADDFRIENDKEY@CFriendMgr@@UADDFRIENDVALUE@2@U?$less@UADDFRIENDKEY@CFriendMgr@@@std@@V?$allocator@UADDFRIENDVALUE@CFriendMgr@@@5@@4@U?$less@UADDFRIENDKEY@CFriendMgr@@@4@V?$allocator@UADDFRIENDVALUE@CFriendMgr@@@4@@std@@QAE@PAU_Node@12@@Z 004231c0 f i FriendMgr.obj
 0001:000221e0       ??Eiterator@?$_Tree@UADDFRIENDKEY@CFriendMgr@@U?$pair@$$CBUADDFRIENDKEY@CFriendMgr@@UADDFRIENDVALUE@2@@std@@U_Kfn@?$map@UADDFRIENDKEY@CFriendMgr@@UADDFRIENDVALUE@2@U?$less@UADDFRIENDKEY@CFriendMgr@@@std@@V?$allocator@UADDFRIENDVALUE@CFriendMgr@@@5@@4@U?$less@UADDFRIENDKEY@CFriendMgr@@@4@V?$allocator@UADDFRIENDVALUE@CFriendMgr@@@4@@std@@QAE?AV012@H@Z 004231e0 f i FriendMgr.obj
 0001:00022210       ??9iterator@?$_Tree@UADDFRIENDKEY@CFriendMgr@@U?$pair@$$CBUADDFRIENDKEY@CFriendMgr@@UADDFRIENDVALUE@2@@std@@U_Kfn@?$map@UADDFRIENDKEY@CFriendMgr@@UADDFRIENDVALUE@2@U?$less@UADDFRIENDKEY@CFriendMgr@@@std@@V?$allocator@UADDFRIENDVALUE@CFriendMgr@@@5@@4@U?$less@UADDFRIENDKEY@CFriendMgr@@@4@V?$allocator@UADDFRIENDVALUE@CFriendMgr@@@4@@std@@QBE_NABV012@@Z 00423210 f i FriendMgr.obj
 0001:00022240       ?erase@?$list@UMEM_FRIENDRECORD@CFriendMgr@@V?$allocator@UMEM_FRIENDRECORD@CFriendMgr@@@std@@@std@@QAE?AViterator@12@V312@@Z 00423240 f i FriendMgr.obj
 0001:00022300       ?_Prev@_Acc@?$list@UMEM_FRIENDRECORD@CFriendMgr@@V?$allocator@UMEM_FRIENDRECORD@CFriendMgr@@@std@@@std@@SAAAPAU_Node@23@PAU423@@Z 00423300 f i FriendMgr.obj
 0001:00022310       ?_Charalloc@?$allocator@UMEM_FRIENDRECORD@CFriendMgr@@@std@@QAEPADI@Z 00423310 f i FriendMgr.obj
 0001:00022330       ?deallocate@?$allocator@UMEM_FRIENDRECORD@CFriendMgr@@@std@@QAEXPAXI@Z 00423330 f i FriendMgr.obj
 0001:00022350       ?construct@?$allocator@UMEM_FRIENDRECORD@CFriendMgr@@@std@@QAEXPAUMEM_FRIENDRECORD@CFriendMgr@@ABU34@@Z 00423350 f i FriendMgr.obj
 0001:00022370       ?_Mynode@const_iterator@?$list@UMEM_FRIENDRECORD@CFriendMgr@@V?$allocator@UMEM_FRIENDRECORD@CFriendMgr@@@std@@@std@@QBEPAU_Node@23@XZ 00423370 f i FriendMgr.obj
 0001:00022380       ?deallocate@?$allocator@V?$list@UtagPlusSrcInfo@@V?$allocator@UtagPlusSrcInfo@@@std@@@std@@@std@@QAEXPAXI@Z 00423380 f i FriendMgr.obj
 0001:000223a0       ?size@?$_Tree@KU?$pair@$$CBKV?$list@UtagPlusSrcInfo@@V?$allocator@UtagPlusSrcInfo@@@std@@@std@@@std@@U_Kfn@?$map@KV?$list@UtagPlusSrcInfo@@V?$allocator@UtagPlusSrcInfo@@@std@@@std@@U?$less@K@2@V?$allocator@V?$list@UtagPlusSrcInfo@@V?$allocator@UtagPlusSrcInfo@@@std@@@std@@@2@@2@U?$less@K@2@V?$allocator@V?$list@UtagPlusSrcInfo@@V?$allocator@UtagPlusSrcInfo@@@std@@@std@@@2@@std@@QBEIXZ 004233a0 f i FriendMgr.obj
 0001:000223c0       ?insert@?$_Tree@KU?$pair@$$CBKV?$list@UtagPlusSrcInfo@@V?$allocator@UtagPlusSrcInfo@@@std@@@std@@@std@@U_Kfn@?$map@KV?$list@UtagPlusSrcInfo@@V?$allocator@UtagPlusSrcInfo@@@std@@@std@@U?$less@K@2@V?$allocator@V?$list@UtagPlusSrcInfo@@V?$allocator@UtagPlusSrcInfo@@@std@@@std@@@2@@2@U?$less@K@2@V?$allocator@V?$list@UtagPlusSrcInfo@@V?$allocator@UtagPlusSrcInfo@@@std@@@std@@@2@@std@@QAE?AU?$pair@Viterator@?$_Tree@KU?$pair@$$CBKV?$list@UtagPlusSrcInfo@@V?$allocator@UtagPlusSrcInfo@@@std@@@std@@@std@@U_Kfn@?$map@KV?$list@UtagPlusSrcInfo@@V?$allocator@UtagPlusSrcInfo@@@std@@@std@@U?$less@K@2@V?$allocator@V?$list@UtagPlusSrcInfo@@V?$allocator@UtagPlusSrcInfo@@@std@@@std@@@2@@2@U?$less@K@2@V?$allocator@V?$list@UtagPlusSrcInfo@@V?$allocator@UtagPlusSrcInfo@@@std@@@std@@@2@@std@@_N@2@ABU?$pair@$$CBKV?$list@UtagPlusSrcInfo@@V?$allocator@UtagPlusSrcInfo@@@std@@@std@@@2@@Z 004233c0 f i FriendMgr.obj
 0001:00022600       ?erase@?$_Tree@KU?$pair@$$CBKV?$list@UtagPlusSrcInfo@@V?$allocator@UtagPlusSrcInfo@@@std@@@std@@@std@@U_Kfn@?$map@KV?$list@UtagPlusSrcInfo@@V?$allocator@UtagPlusSrcInfo@@@std@@@std@@U?$less@K@2@V?$allocator@V?$list@UtagPlusSrcInfo@@V?$allocator@UtagPlusSrcInfo@@@std@@@std@@@2@@2@U?$less@K@2@V?$allocator@V?$list@UtagPlusSrcInfo@@V?$allocator@UtagPlusSrcInfo@@@std@@@std@@@2@@std@@QAE?AViterator@12@V312@@Z 00423600 f i FriendMgr.obj
 0001:00022e50       ?_Erase@?$_Tree@KU?$pair@$$CBKV?$list@UtagPlusSrcInfo@@V?$allocator@UtagPlusSrcInfo@@@std@@@std@@@std@@U_Kfn@?$map@KV?$list@UtagPlusSrcInfo@@V?$allocator@UtagPlusSrcInfo@@@std@@@std@@U?$less@K@2@V?$allocator@V?$list@UtagPlusSrcInfo@@V?$allocator@UtagPlusSrcInfo@@@std@@@std@@@2@@2@U?$less@K@2@V?$allocator@V?$list@UtagPlusSrcInfo@@V?$allocator@UtagPlusSrcInfo@@@std@@@std@@@2@@std@@IAEXPAU_Node@12@@Z 00423e50 f i FriendMgr.obj
 0001:00022f00       ?_Init@?$_Tree@KU?$pair@$$CBKV?$list@UtagPlusSrcInfo@@V?$allocator@UtagPlusSrcInfo@@@std@@@std@@@std@@U_Kfn@?$map@KV?$list@UtagPlusSrcInfo@@V?$allocator@UtagPlusSrcInfo@@@std@@@std@@U?$less@K@2@V?$allocator@V?$list@UtagPlusSrcInfo@@V?$allocator@UtagPlusSrcInfo@@@std@@@std@@@2@@2@U?$less@K@2@V?$allocator@V?$list@UtagPlusSrcInfo@@V?$allocator@UtagPlusSrcInfo@@@std@@@std@@@2@@std@@IAEXXZ 00423f00 f i FriendMgr.obj
 0001:00022fe0       ?_Lmost@?$_Tree@KU?$pair@$$CBKV?$list@UtagPlusSrcInfo@@V?$allocator@UtagPlusSrcInfo@@@std@@@std@@@std@@U_Kfn@?$map@KV?$list@UtagPlusSrcInfo@@V?$allocator@UtagPlusSrcInfo@@@std@@@std@@U?$less@K@2@V?$allocator@V?$list@UtagPlusSrcInfo@@V?$allocator@UtagPlusSrcInfo@@@std@@@std@@@2@@2@U?$less@K@2@V?$allocator@V?$list@UtagPlusSrcInfo@@V?$allocator@UtagPlusSrcInfo@@@std@@@std@@@2@@std@@IAEAAPAU_Node@12@XZ 00423fe0 f i FriendMgr.obj
 0001:00023000       ?_Rmost@?$_Tree@KU?$pair@$$CBKV?$list@UtagPlusSrcInfo@@V?$allocator@UtagPlusSrcInfo@@@std@@@std@@@std@@U_Kfn@?$map@KV?$list@UtagPlusSrcInfo@@V?$allocator@UtagPlusSrcInfo@@@std@@@std@@U?$less@K@2@V?$allocator@V?$list@UtagPlusSrcInfo@@V?$allocator@UtagPlusSrcInfo@@@std@@@std@@@2@@2@U?$less@K@2@V?$allocator@V?$list@UtagPlusSrcInfo@@V?$allocator@UtagPlusSrcInfo@@@std@@@std@@@2@@std@@IAEAAPAU_Node@12@XZ 00424000 f i FriendMgr.obj
 0001:00023020       ?_Root@?$_Tree@KU?$pair@$$CBKV?$list@UtagPlusSrcInfo@@V?$allocator@UtagPlusSrcInfo@@@std@@@std@@@std@@U_Kfn@?$map@KV?$list@UtagPlusSrcInfo@@V?$allocator@UtagPlusSrcInfo@@@std@@@std@@U?$less@K@2@V?$allocator@V?$list@UtagPlusSrcInfo@@V?$allocator@UtagPlusSrcInfo@@@std@@@std@@@2@@2@U?$less@K@2@V?$allocator@V?$list@UtagPlusSrcInfo@@V?$allocator@UtagPlusSrcInfo@@@std@@@std@@@2@@std@@IAEAAPAU_Node@12@XZ 00424020 f i FriendMgr.obj
 0001:00023040       ??0?$list@UtagPlusSrcInfo@@V?$allocator@UtagPlusSrcInfo@@@std@@@std@@QAE@ABV01@@Z 00424040 f i FriendMgr.obj
 0001:000230b0       ?_Inc@const_iterator@?$_Tree@KU?$pair@$$CBKV?$list@UtagPlusSrcInfo@@V?$allocator@UtagPlusSrcInfo@@@std@@@std@@@std@@U_Kfn@?$map@KV?$list@UtagPlusSrcInfo@@V?$allocator@UtagPlusSrcInfo@@@std@@@std@@U?$less@K@2@V?$allocator@V?$list@UtagPlusSrcInfo@@V?$allocator@UtagPlusSrcInfo@@@std@@@std@@@2@@2@U?$less@K@2@V?$allocator@V?$list@UtagPlusSrcInfo@@V?$allocator@UtagPlusSrcInfo@@@std@@@std@@@2@@std@@QAEXXZ 004240b0 f i FriendMgr.obj
 0001:00023190       ??0iterator@?$_Tree@KU?$pair@$$CBKV?$list@UtagPlusSrcInfo@@V?$allocator@UtagPlusSrcInfo@@@std@@@std@@@std@@U_Kfn@?$map@KV?$list@UtagPlusSrcInfo@@V?$allocator@UtagPlusSrcInfo@@@std@@@std@@U?$less@K@2@V?$allocator@V?$list@UtagPlusSrcInfo@@V?$allocator@UtagPlusSrcInfo@@@std@@@std@@@2@@2@U?$less@K@2@V?$allocator@V?$list@UtagPlusSrcInfo@@V?$allocator@UtagPlusSrcInfo@@@std@@@std@@@2@@std@@QAE@PAU_Node@12@@Z 00424190 f i FriendMgr.obj
 0001:000231b0       ?deallocate@?$allocator@V?$list@U?$pair@EV?$basic_string@DU?$char_traits@D@std@@V?$allocator@D@2@@std@@@std@@V?$allocator@U?$pair@EV?$basic_string@DU?$char_traits@D@std@@V?$allocator@D@2@@std@@@std@@@2@@std@@@std@@QAEXPAXI@Z 004241b0 f i FriendMgr.obj
 0001:000231d0       ?size@?$_Tree@V?$basic_string@DU?$char_traits@D@std@@V?$allocator@D@2@@std@@U?$pair@$$CBV?$basic_string@DU?$char_traits@D@std@@V?$allocator@D@2@@std@@V?$list@U?$pair@EV?$basic_string@DU?$char_traits@D@std@@V?$allocator@D@2@@std@@@std@@V?$allocator@U?$pair@EV?$basic_string@DU?$char_traits@D@std@@V?$allocator@D@2@@std@@@std@@@2@@2@@2@U_Kfn@?$map@V?$basic_string@DU?$char_traits@D@std@@V?$allocator@D@2@@std@@V?$list@U?$pair@EV?$basic_string@DU?$char_traits@D@std@@V?$allocator@D@2@@std@@@std@@V?$allocator@U?$pair@EV?$basic_string@DU?$char_traits@D@std@@V?$allocator@D@2@@std@@@std@@@2@@2@U_tstring_less@@V?$allocator@V?$list@U?$pair@EV?$basic_string@DU?$char_traits@D@std@@V?$allocator@D@2@@std@@@std@@V?$allocator@U?$pair@EV?$basic_string@DU?$char_traits@D@std@@V?$allocator@D@2@@std@@@std@@@2@@std@@@2@@2@U_tstring_less@@V?$allocator@V?$list@U?$pair@EV?$basic_string@DU?$char_traits@D@std@@V?$allocator@D@2@@std@@@std@@V?$allocator@U?$pair@EV?$basic_string@DU?$char_traits@D@std@@V?$allocator@D@2@@std@@@std@@@2@@std@@@2@@std@@QBEIXZ 004241d0 f i FriendMgr.obj
 0001:000231f0       ?insert@?$_Tree@V?$basic_string@DU?$char_traits@D@std@@V?$allocator@D@2@@std@@U?$pair@$$CBV?$basic_string@DU?$char_traits@D@std@@V?$allocator@D@2@@std@@V?$list@U?$pair@EV?$basic_string@DU?$char_traits@D@std@@V?$allocator@D@2@@std@@@std@@V?$allocat936a1ecb 004241f0 f i FriendMgr.obj
 0001:00023430       ?erase@?$_Tree@V?$basic_string@DU?$char_traits@D@std@@V?$allocator@D@2@@std@@U?$pair@$$CBV?$basic_string@DU?$char_traits@D@std@@V?$allocator@D@2@@std@@V?$list@U?$pair@EV?$basic_string@DU?$char_traits@D@std@@V?$allocator@D@2@@std@@@std@@V?$allocator@U?$pair@EV?$basic_string@DU?$char_traits@D@std@@V?$allocator@D@2@@std@@@std@@@2@@2@@2@U_Kfn@?$map@V?$basic_string@DU?$char_traits@D@std@@V?$allocator@D@2@@std@@V?$list@U?$pair@EV?$basic_string@DU?$char_traits@D@std@@V?$allocator@D@2@@std@@@std@@V?$allocator@U?$pair@EV?$basic_string@DU?$char_traits@D@std@@V?$allocator@D@2@@std@@@std@@@2@@2@U_tstring_less@@V?$allocator@V?$list@U?$pair@EV?$basic_string@DU?$char_traits@D@std@@V?$allocator@D@2@@std@@@std@@V?$allocator@U?$pair@EV?$basic_string@DU?$char_traits@D@std@@V?$allocator@D@2@@std@@@std@@@2@@std@@@2@@2@U_tstring_less@@V?$allocator@V?$list@U?$pair@EV?$basic_string@DU?$char_traits@D@std@@V?$allocator@D@2@@std@@@std@@V?$allocator@U?$pair@EV?$basic_string@DU?$char_traits@D@std@@V?$allocator@D@2@@std@@@std@@@2@@std@@@2@@std@@QAE?AViterator@12@V312@@Z 00424430 f i FriendMgr.obj
 0001:00023c80       ?_Erase@?$_Tree@V?$basic_string@DU?$char_traits@D@std@@V?$allocator@D@2@@std@@U?$pair@$$CBV?$basic_string@DU?$char_traits@D@std@@V?$allocator@D@2@@std@@V?$list@U?$pair@EV?$basic_string@DU?$char_traits@D@std@@V?$allocator@D@2@@std@@@std@@V?$allocator@U?$pair@EV?$basic_string@DU?$char_traits@D@std@@V?$allocator@D@2@@std@@@std@@@2@@2@@2@U_Kfn@?$map@V?$basic_string@DU?$char_traits@D@std@@V?$allocator@D@2@@std@@V?$list@U?$pair@EV?$basic_string@DU?$char_traits@D@std@@V?$allocator@D@2@@std@@@std@@V?$allocator@U?$pair@EV?$basic_string@DU?$char_traits@D@std@@V?$allocator@D@2@@std@@@std@@@2@@2@U_tstring_less@@V?$allocator@V?$list@U?$pair@EV?$basic_string@DU?$char_traits@D@std@@V?$allocator@D@2@@std@@@std@@V?$allocator@U?$pair@EV?$basic_string@DU?$char_traits@D@std@@V?$allocator@D@2@@std@@@std@@@2@@std@@@2@@2@U_tstring_less@@V?$allocator@V?$list@U?$pair@EV?$basic_string@DU?$char_traits@D@std@@V?$allocator@D@2@@std@@@std@@V?$allocator@U?$pair@EV?$basic_string@DU?$char_traits@D@std@@V?$allocator@D@2@@std@@@std@@@2@@std@@@2@@std@@IAEXPAU_Node@12@@Z 00424c80 f i FriendMgr.obj
 0001:00023d30       ?_Init@?$_Tree@V?$basic_string@DU?$char_traits@D@std@@V?$allocator@D@2@@std@@U?$pair@$$CBV?$basic_string@DU?$char_traits@D@std@@V?$allocator@D@2@@std@@V?$list@U?$pair@EV?$basic_string@DU?$char_traits@D@std@@V?$allocator@D@2@@std@@@std@@V?$allocator@U?$pair@EV?$basic_string@DU?$char_traits@D@std@@V?$allocator@D@2@@std@@@std@@@2@@2@@2@U_Kfn@?$map@V?$basic_string@DU?$char_traits@D@std@@V?$allocator@D@2@@std@@V?$list@U?$pair@EV?$basic_string@DU?$char_traits@D@std@@V?$allocator@D@2@@std@@@std@@V?$allocator@U?$pair@EV?$basic_string@DU?$char_traits@D@std@@V?$allocator@D@2@@std@@@std@@@2@@2@U_tstring_less@@V?$allocator@V?$list@U?$pair@EV?$basic_string@DU?$char_traits@D@std@@V?$allocator@D@2@@std@@@std@@V?$allocator@U?$pair@EV?$basic_string@DU?$char_traits@D@std@@V?$allocator@D@2@@std@@@std@@@2@@std@@@2@@2@U_tstring_less@@V?$allocator@V?$list@U?$pair@EV?$basic_string@DU?$char_traits@D@std@@V?$allocator@D@2@@std@@@std@@V?$allocator@U?$pair@EV?$basic_string@DU?$char_traits@D@std@@V?$allocator@D@2@@std@@@std@@@2@@std@@@2@@std@@IAEXXZ 00424d30 f i FriendMgr.obj
 0001:00023e10       ?_Lmost@?$_Tree@V?$basic_string@DU?$char_traits@D@std@@V?$allocator@D@2@@std@@U?$pair@$$CBV?$basic_string@DU?$char_traits@D@std@@V?$allocator@D@2@@std@@V?$list@U?$pair@EV?$basic_string@DU?$char_traits@D@std@@V?$allocator@D@2@@std@@@std@@V?$allocator@U?$pair@EV?$basic_string@DU?$char_traits@D@std@@V?$allocator@D@2@@std@@@std@@@2@@2@@2@U_Kfn@?$map@V?$basic_string@DU?$char_traits@D@std@@V?$allocator@D@2@@std@@V?$list@U?$pair@EV?$basic_string@DU?$char_traits@D@std@@V?$allocator@D@2@@std@@@std@@V?$allocator@U?$pair@EV?$basic_string@DU?$char_traits@D@std@@V?$allocator@D@2@@std@@@std@@@2@@2@U_tstring_less@@V?$allocator@V?$list@U?$pair@EV?$basic_string@DU?$char_traits@D@std@@V?$allocator@D@2@@std@@@std@@V?$allocator@U?$pair@EV?$basic_string@DU?$char_traits@D@std@@V?$allocator@D@2@@std@@@std@@@2@@std@@@2@@2@U_tstring_less@@V?$allocator@V?$list@U?$pair@EV?$basic_string@DU?$char_traits@D@std@@V?$allocator@D@2@@std@@@std@@V?$allocator@U?$pair@EV?$basic_string@DU?$char_traits@D@std@@V?$allocator@D@2@@std@@@std@@@2@@std@@@2@@std@@IAEAAPAU_Node@12@XZ 00424e10 f i FriendMgr.obj
 0001:00023e30       ?_Rmost@?$_Tree@V?$basic_string@DU?$char_traits@D@std@@V?$allocator@D@2@@std@@U?$pair@$$CBV?$basic_string@DU?$char_traits@D@std@@V?$allocator@D@2@@std@@V?$list@U?$pair@EV?$basic_string@DU?$char_traits@D@std@@V?$allocator@D@2@@std@@@std@@V?$allocator@U?$pair@EV?$basic_string@DU?$char_traits@D@std@@V?$allocator@D@2@@std@@@std@@@2@@2@@2@U_Kfn@?$map@V?$basic_string@DU?$char_traits@D@std@@V?$allocator@D@2@@std@@V?$list@U?$pair@EV?$basic_string@DU?$char_traits@D@std@@V?$allocator@D@2@@std@@@std@@V?$allocator@U?$pair@EV?$basic_string@DU?$char_traits@D@std@@V?$allocator@D@2@@std@@@std@@@2@@2@U_tstring_less@@V?$allocator@V?$list@U?$pair@EV?$basic_string@DU?$char_traits@D@std@@V?$allocator@D@2@@std@@@std@@V?$allocator@U?$pair@EV?$basic_string@DU?$char_traits@D@std@@V?$allocator@D@2@@std@@@std@@@2@@std@@@2@@2@U_tstring_less@@V?$allocator@V?$list@U?$pair@EV?$basic_string@DU?$char_traits@D@std@@V?$allocator@D@2@@std@@@std@@V?$allocator@U?$pair@EV?$basic_string@DU?$char_traits@D@std@@V?$allocator@D@2@@std@@@std@@@2@@std@@@2@@std@@IAEAAPAU_Node@12@XZ 00424e30 f i FriendMgr.obj
 0001:00023e50       ?_Root@?$_Tree@V?$basic_string@DU?$char_traits@D@std@@V?$allocator@D@2@@std@@U?$pair@$$CBV?$basic_string@DU?$char_traits@D@std@@V?$allocator@D@2@@std@@V?$list@U?$pair@EV?$basic_string@DU?$char_traits@D@std@@V?$allocator@D@2@@std@@@std@@V?$allocator@U?$pair@EV?$basic_string@DU?$char_traits@D@std@@V?$allocator@D@2@@std@@@std@@@2@@2@@2@U_Kfn@?$map@V?$basic_string@DU?$char_traits@D@std@@V?$allocator@D@2@@std@@V?$list@U?$pair@EV?$basic_string@DU?$char_traits@D@std@@V?$allocator@D@2@@std@@@std@@V?$allocator@U?$pair@EV?$basic_string@DU?$char_traits@D@std@@V?$allocator@D@2@@std@@@std@@@2@@2@U_tstring_less@@V?$allocator@V?$list@U?$pair@EV?$basic_string@DU?$char_traits@D@std@@V?$allocator@D@2@@std@@@std@@V?$allocator@U?$pair@EV?$basic_string@DU?$char_traits@D@std@@V?$allocator@D@2@@std@@@std@@@2@@std@@@2@@2@U_tstring_less@@V?$allocator@V?$list@U?$pair@EV?$basic_string@DU?$char_traits@D@std@@V?$allocator@D@2@@std@@@std@@V?$allocator@U?$pair@EV?$basic_string@DU?$char_traits@D@std@@V?$allocator@D@2@@std@@@std@@@2@@std@@@2@@std@@IAEAAPAU_Node@12@XZ 00424e50 f i FriendMgr.obj
 0001:00023e70       ??0?$list@U?$pair@EV?$basic_string@DU?$char_traits@D@std@@V?$allocator@D@2@@std@@@std@@V?$allocator@U?$pair@EV?$basic_string@DU?$char_traits@D@std@@V?$allocator@D@2@@std@@@std@@@2@@std@@QAE@ABV01@@Z 00424e70 f i FriendMgr.obj
 0001:00023ee0       ?erase@?$list@U?$pair@EV?$basic_string@DU?$char_traits@D@std@@V?$allocator@D@2@@std@@@std@@V?$allocator@U?$pair@EV?$basic_string@DU?$char_traits@D@std@@V?$allocator@D@2@@std@@@std@@@2@@std@@QAE?AViterator@12@V312@0@Z 00424ee0 f i FriendMgr.obj
 0001:00023f30       ?_Buynode@?$list@U?$pair@EV?$basic_string@DU?$char_traits@D@std@@V?$allocator@D@2@@std@@@std@@V?$allocator@U?$pair@EV?$basic_string@DU?$char_traits@D@std@@V?$allocator@D@2@@std@@@std@@@2@@std@@IAEPAU_Node@12@PAU312@0@Z 00424f30 f i FriendMgr.obj
 0001:00023fa0       ?_Freenode@?$list@U?$pair@EV?$basic_string@DU?$char_traits@D@std@@V?$allocator@D@2@@std@@@std@@V?$allocator@U?$pair@EV?$basic_string@DU?$char_traits@D@std@@V?$allocator@D@2@@std@@@std@@@2@@std@@IAEXPAU_Node@12@@Z 00424fa0 f i FriendMgr.obj
 0001:00023fc0       ?_Prev@_Acc@?$list@U?$pair@EV?$basic_string@DU?$char_traits@D@std@@V?$allocator@D@2@@std@@@std@@V?$allocator@U?$pair@EV?$basic_string@DU?$char_traits@D@std@@V?$allocator@D@2@@std@@@std@@@2@@std@@SAAAPAU_Node@23@PAU423@@Z 00424fc0 f i FriendMgr.obj
 0001:00023fd0       ?construct@?$allocator@U?$pair@EV?$basic_string@DU?$char_traits@D@std@@V?$allocator@D@2@@std@@@std@@@std@@QAEXPAU?$pair@EV?$basic_string@DU?$char_traits@D@std@@V?$allocator@D@2@@std@@@2@ABU32@@Z 00424fd0 f i FriendMgr.obj
 0001:00023ff0       ??0const_iterator@?$list@U?$pair@EV?$basic_string@DU?$char_traits@D@std@@V?$allocator@D@2@@std@@@std@@V?$allocator@U?$pair@EV?$basic_string@DU?$char_traits@D@std@@V?$allocator@D@2@@std@@@std@@@2@@std@@QAE@PAU_Node@12@@Z 00424ff0 f i FriendMgr.obj
 0001:00024010       ?_Mynode@const_iterator@?$list@U?$pair@EV?$basic_string@DU?$char_traits@D@std@@V?$allocator@D@2@@std@@@std@@V?$allocator@U?$pair@EV?$basic_string@DU?$char_traits@D@std@@V?$allocator@D@2@@std@@@std@@@2@@std@@QBEPAU_Node@23@XZ 00425010 f i FriendMgr.obj
 0001:00024020       ?_Inc@const_iterator@?$_Tree@V?$basic_string@DU?$char_traits@D@std@@V?$allocator@D@2@@std@@U?$pair@$$CBV?$basic_string@DU?$char_traits@D@std@@V?$allocator@D@2@@std@@V?$list@U?$pair@EV?$basic_string@DU?$char_traits@D@std@@V?$allocator@D@2@@std@@@std@@V?$allocator@U?$pair@EV?$basic_string@DU?$char_traits@D@std@@V?$allocator@D@2@@std@@@std@@@2@@2@@2@U_Kfn@?$map@V?$basic_string@DU?$char_traits@D@std@@V?$allocator@D@2@@std@@V?$list@U?$pair@EV?$basic_string@DU?$char_traits@D@std@@V?$allocator@D@2@@std@@@std@@V?$allocator@U?$pair@EV?$basic_string@DU?$char_traits@D@std@@V?$allocator@D@2@@std@@@std@@@2@@2@U_tstring_less@@V?$allocator@V?$list@U?$pair@EV?$basic_string@DU?$char_traits@D@std@@V?$allocator@D@2@@std@@@std@@V?$allocator@U?$pair@EV?$basic_string@DU?$char_traits@D@std@@V?$allocator@D@2@@std@@@std@@@2@@std@@@2@@2@U_tstring_less@@V?$allocator@V?$list@U?$pair@EV?$basic_string@DU?$char_traits@D@std@@V?$allocator@D@2@@std@@@std@@V?$allocator@U?$pair@EV?$basic_string@DU?$char_traits@D@std@@V?$allocator@D@2@@std@@@std@@@2@@std@@@2@@std@@QAEXXZ 00425020 f i FriendMgr.obj
 0001:00024100       ??0iterator@?$_Tree@V?$basic_string@DU?$char_traits@D@std@@V?$allocator@D@2@@std@@U?$pair@$$CBV?$basic_string@DU?$char_traits@D@std@@V?$allocator@D@2@@std@@V?$list@U?$pair@EV?$basic_string@DU?$char_traits@D@std@@V?$allocator@D@2@@std@@@std@@V?$allocator@U?$pair@EV?$basic_string@DU?$char_traits@D@std@@V?$allocator@D@2@@std@@@std@@@2@@2@@2@U_Kfn@?$map@V?$basic_string@DU?$char_traits@D@std@@V?$allocator@D@2@@std@@V?$list@U?$pair@EV?$basic_string@DU?$char_traits@D@std@@V?$allocator@D@2@@std@@@std@@V?$allocator@U?$pair@EV?$basic_string@DU?$char_traits@D@std@@V?$allocator@D@2@@std@@@std@@@2@@2@U_tstring_less@@V?$allocator@V?$list@U?$pair@EV?$basic_string@DU?$char_traits@D@std@@V?$allocator@D@2@@std@@@std@@V?$allocator@U?$pair@EV?$basic_string@DU?$char_traits@D@std@@V?$allocator@D@2@@std@@@std@@@2@@std@@@2@@2@U_tstring_less@@V?$allocator@V?$list@U?$pair@EV?$basic_string@DU?$char_traits@D@std@@V?$allocator@D@2@@std@@@std@@V?$allocator@U?$pair@EV?$basic_string@DU?$char_traits@D@std@@V?$allocator@D@2@@std@@@std@@@2@@std@@@2@@std@@QAE@PAU_Node@12@@Z 00425100 f i FriendMgr.obj
 0001:00024120       ?_Prev@_Acc@?$list@UONEPLAYER@CFriendMgr@@V?$allocator@UONEPLAYER@CFriendMgr@@@std@@@std@@SAAAPAU_Node@23@PAU423@@Z 00425120 f i FriendMgr.obj
 0001:00024130       ?_Charalloc@?$allocator@UONEPLAYER@CFriendMgr@@@std@@QAEPADI@Z 00425130 f i FriendMgr.obj
 0001:00024150       ?deallocate@?$allocator@UONEPLAYER@CFriendMgr@@@std@@QAEXPAXI@Z 00425150 f i FriendMgr.obj
 0001:00024170       ?construct@?$allocator@UONEPLAYER@CFriendMgr@@@std@@QAEXPAUONEPLAYER@CFriendMgr@@ABU34@@Z 00425170 f i FriendMgr.obj
 0001:00024190       ?destroy@?$allocator@UONEPLAYER@CFriendMgr@@@std@@QAEXPAUONEPLAYER@CFriendMgr@@@Z 00425190 f i FriendMgr.obj
 0001:000241b0       ??0const_iterator@?$list@UONEPLAYER@CFriendMgr@@V?$allocator@UONEPLAYER@CFriendMgr@@@std@@@std@@QAE@PAU_Node@12@@Z 004251b0 f i FriendMgr.obj
 0001:000241d0       ?_Mynode@const_iterator@?$list@UONEPLAYER@CFriendMgr@@V?$allocator@UONEPLAYER@CFriendMgr@@@std@@@std@@QBEPAU_Node@23@XZ 004251d0 f i FriendMgr.obj
 0001:000241e0       ?erase@?$list@V?$basic_string@DU?$char_traits@D@std@@V?$allocator@D@2@@std@@V?$allocator@V?$basic_string@DU?$char_traits@D@std@@V?$allocator@D@2@@std@@@2@@std@@QAE?AViterator@12@V312@@Z 004251e0 f i FriendMgr.obj
 0001:000242a0       ?_Prev@_Acc@?$list@V?$basic_string@DU?$char_traits@D@std@@V?$allocator@D@2@@std@@V?$allocator@V?$basic_string@DU?$char_traits@D@std@@V?$allocator@D@2@@std@@@2@@std@@SAAAPAU_Node@23@PAU423@@Z 004252a0 f i FriendMgr.obj
 0001:000242b0       ?_Charalloc@?$allocator@V?$basic_string@DU?$char_traits@D@std@@V?$allocator@D@2@@std@@@std@@QAEPADI@Z 004252b0 f i FriendMgr.obj
 0001:000242d0       ?deallocate@?$allocator@V?$basic_string@DU?$char_traits@D@std@@V?$allocator@D@2@@std@@@std@@QAEXPAXI@Z 004252d0 f i FriendMgr.obj
 0001:000242f0       ?construct@?$allocator@V?$basic_string@DU?$char_traits@D@std@@V?$allocator@D@2@@std@@@std@@QAEXPAV?$basic_string@DU?$char_traits@D@std@@V?$allocator@D@2@@2@ABV32@@Z 004252f0 f i FriendMgr.obj
 0001:00024310       ??0const_iterator@?$list@V?$basic_string@DU?$char_traits@D@std@@V?$allocator@D@2@@std@@V?$allocator@V?$basic_string@DU?$char_traits@D@std@@V?$allocator@D@2@@std@@@2@@std@@QAE@PAU_Node@12@@Z 00425310 f i FriendMgr.obj
 0001:00024330       ?_Mynode@const_iterator@?$list@V?$basic_string@DU?$char_traits@D@std@@V?$allocator@D@2@@std@@V?$allocator@V?$basic_string@DU?$char_traits@D@std@@V?$allocator@D@2@@std@@@2@@std@@QBEPAU_Node@23@XZ 00425330 f i FriendMgr.obj
 0001:00024340       ?insert@?$vector@Viterator@?$_Tree@V?$basic_string@DU?$char_traits@D@std@@V?$allocator@D@2@@std@@U?$pair@$$CBV?$basic_string@DU?$char_traits@D@std@@V?$allocator@D@2@@std@@UPLAYERINFO@CFriendMgr@@@2@U_Kfn@?$map@V?$basic_string@DU?$char_traits@D@std@@V?$allocator@D@2@@std@@UPLAYERINFO@CFriendMgr@@U_tstring_less@@V?$allocator@UPLAYERINFO@CFriendMgr@@@2@@2@U_tstring_less@@V?$allocator@UPLAYERINFO@CFriendMgr@@@2@@std@@V?$allocator@Viterator@?$_Tree@V?$basic_string@DU?$char_traits@D@std@@V?$allocator@D@2@@std@@U?$pair@$$CBV?$basic_string@DU?$char_traits@D@std@@V?$allocator@D@2@@std@@UPLAYERINFO@CFriendMgr@@@2@U_Kfn@?$map@V?$basic_string@DU?$char_traits@D@std@@V?$allocator@D@2@@std@@UPLAYERINFO@CFriendMgr@@U_tstring_less@@V?$allocator@UPLAYERINFO@CFriendMgr@@@2@@2@U_tstring_less@@V?$allocator@UPLAYERINFO@CFriendMgr@@@2@@std@@@3@@std@@QAEXPAViterator@?$_Tree@V?$basic_string@DU?$char_traits@D@std@@V?$allocator@D@2@@std@@U?$pair@$$CBV?$basic_string@DU?$char_traits@D@std@@V?$allocator@D@2@@std@@UPLAYERINFO@CFriendMgr@@@2@U_Kfn@?$map@V?$basic_string@DU?$char_traits@D@std@@V?$allocator@D@2@@std@@UPLAYERINFO@CFriendMgr@@U_tstring_less@@V?$allocator@UPLAYERINFO@CFriendMgr@@@2@@2@U_tstring_less@@V?$allocator@UPLAYERINFO@CFriendMgr@@@2@@2@IABV342@@Z 00425340 f i FriendMgr.obj
 0001:00024560       ?destroy@?$allocator@Viterator@?$_Tree@V?$basic_string@DU?$char_traits@D@std@@V?$allocator@D@2@@std@@U?$pair@$$CBV?$basic_string@DU?$char_traits@D@std@@V?$allocator@D@2@@std@@UPLAYERINFO@CFriendMgr@@@2@U_Kfn@?$map@V?$basic_string@DU?$char_traits@D@std@@V?$allocator@D@2@@std@@UPLAYERINFO@CFriendMgr@@U_tstring_less@@V?$allocator@UPLAYERINFO@CFriendMgr@@@2@@2@U_tstring_less@@V?$allocator@UPLAYERINFO@CFriendMgr@@@2@@std@@@std@@QAEXPAViterator@?$_Tree@V?$basic_string@DU?$char_traits@D@std@@V?$allocator@D@2@@std@@U?$pair@$$CBV?$basic_string@DU?$char_traits@D@std@@V?$allocator@D@2@@std@@UPLAYERINFO@CFriendMgr@@@2@U_Kfn@?$map@V?$basic_string@DU?$char_traits@D@std@@V?$allocator@D@2@@std@@UPLAYERINFO@CFriendMgr@@U_tstring_less@@V?$allocator@UPLAYERINFO@CFriendMgr@@@2@@2@U_tstring_less@@V?$allocator@UPLAYERINFO@CFriendMgr@@@2@@2@@Z 00425560 f i FriendMgr.obj
 0001:00024580       ??0?$pair@Viterator@?$_Tree@UADDFRIENDKEY@CFriendMgr@@U?$pair@$$CBUADDFRIENDKEY@CFriendMgr@@UADDFRIENDVALUE@2@@std@@U_Kfn@?$map@UADDFRIENDKEY@CFriendMgr@@UADDFRIENDVALUE@2@U?$less@UADDFRIENDKEY@CFriendMgr@@@std@@V?$allocator@UADDFRIENDVALUE@CFriendMgr@@@5@@4@U?$less@UADDFRIENDKEY@CFriendMgr@@@4@V?$allocator@UADDFRIENDVALUE@CFriendMgr@@@4@@std@@_N@std@@QAE@ABViterator@?$_Tree@UADDFRIENDKEY@CFriendMgr@@U?$pair@$$CBUADDFRIENDKEY@CFriendMgr@@UADDFRIENDVALUE@2@@std@@U_Kfn@?$map@UADDFRIENDKEY@CFriendMgr@@UADDFRIENDVALUE@2@U?$less@UADDFRIENDKEY@CFriendMgr@@@std@@V?$allocator@UADDFRIENDVALUE@CFriendMgr@@@5@@4@U?$less@UADDFRIENDKEY@CFriendMgr@@@4@V?$allocator@UADDFRIENDVALUE@CFriendMgr@@@4@@1@AB_N@Z 00425580 f i FriendMgr.obj
 0001:000245b0       ??0?$pair@Viterator@?$_Tree@KU?$pair@$$CBKV?$list@UtagPlusSrcInfo@@V?$allocator@UtagPlusSrcInfo@@@std@@@std@@@std@@U_Kfn@?$map@KV?$list@UtagPlusSrcInfo@@V?$allocator@UtagPlusSrcInfo@@@std@@@std@@U?$less@K@2@V?$allocator@V?$list@UtagPlusSrcInfo@@V?$allocator@UtagPlusSrcInfo@@@std@@@std@@@2@@2@U?$less@K@2@V?$allocator@V?$list@UtagPlusSrcInfo@@V?$allocator@UtagPlusSrcInfo@@@std@@@std@@@2@@std@@_N@std@@QAE@ABViterator@?$_Tree@KU?$pair@$$CBKV?$list@UtagPlusSrcInfo@@V?$allocator@UtagPlusSrcInfo@@@std@@@std@@@std@@U_Kfn@?$map@KV?$list@UtagPlusSrcInfo@@V?$allocator@UtagPlusSrcInfo@@@std@@@std@@U?$less@K@2@V?$allocator@V?$list@UtagPlusSrcInfo@@V?$allocator@UtagPlusSrcInfo@@@std@@@std@@@2@@2@U?$less@K@2@V?$allocator@V?$list@UtagPlusSrcInfo@@V?$allocator@UtagPlusSrcInfo@@@std@@@std@@@2@@1@AB_N@Z 004255b0 f i FriendMgr.obj
 0001:000245e0       ??0?$pair@Viterator@?$_Tree@V?$basic_string@DU?$char_traits@D@std@@V?$allocator@D@2@@std@@U?$pair@$$CBV?$basic_string@DU?$char_traits@D@std@@V?$allocator@D@2@@std@@V?$list@U?$pair@EV?$basic_string@DU?$char_traits@D@std@@V?$allocator@D@2@@std@@@std51d2c0fe 004255e0 f i FriendMgr.obj
 0001:00024610       ?upper_bound@?$_Tree@V?$basic_string@DU?$char_traits@D@std@@V?$allocator@D@2@@std@@U?$pair@$$CBV?$basic_string@DU?$char_traits@D@std@@V?$allocator@D@2@@std@@UFRIENDINFO@CFriendMgr@@@2@U_Kfn@?$map@V?$basic_string@DU?$char_traits@D@std@@V?$allocator@D@2@@std@@UFRIENDINFO@CFriendMgr@@U_tstring_less@@V?$allocator@UFRIENDINFO@CFriendMgr@@@2@@2@U_tstring_less@@V?$allocator@UFRIENDINFO@CFriendMgr@@@2@@std@@QAE?AViterator@12@ABV?$basic_string@DU?$char_traits@D@std@@V?$allocator@D@2@@2@@Z 00425610 f i FriendMgr.obj
 0001:00024640       ?_Copy@?$_Tree@V?$basic_string@DU?$char_traits@D@std@@V?$allocator@D@2@@std@@U?$pair@$$CBV?$basic_string@DU?$char_traits@D@std@@V?$allocator@D@2@@std@@UFRIENDINFO@CFriendMgr@@@2@U_Kfn@?$map@V?$basic_string@DU?$char_traits@D@std@@V?$allocator@D@2@@std@@UFRIENDINFO@CFriendMgr@@U_tstring_less@@V?$allocator@UFRIENDINFO@CFriendMgr@@@2@@2@U_tstring_less@@V?$allocator@UFRIENDINFO@CFriendMgr@@@2@@std@@IAEPAU_Node@12@PAU312@0@Z 00425640 f i FriendMgr.obj
 0001:00024770       ?_Lbound@?$_Tree@V?$basic_string@DU?$char_traits@D@std@@V?$allocator@D@2@@std@@U?$pair@$$CBV?$basic_string@DU?$char_traits@D@std@@V?$allocator@D@2@@std@@UFRIENDINFO@CFriendMgr@@@2@U_Kfn@?$map@V?$basic_string@DU?$char_traits@D@std@@V?$allocator@D@2@@std@@UFRIENDINFO@CFriendMgr@@U_tstring_less@@V?$allocator@UFRIENDINFO@CFriendMgr@@@2@@2@U_tstring_less@@V?$allocator@UFRIENDINFO@CFriendMgr@@@2@@std@@IBEPAU_Node@12@ABV?$basic_string@DU?$char_traits@D@std@@V?$allocator@D@2@@2@@Z 00425770 f i FriendMgr.obj
 0001:00024840       ?_Root@?$_Tree@V?$basic_string@DU?$char_traits@D@std@@V?$allocator@D@2@@std@@U?$pair@$$CBV?$basic_string@DU?$char_traits@D@std@@V?$allocator@D@2@@std@@UFRIENDINFO@CFriendMgr@@@2@U_Kfn@?$map@V?$basic_string@DU?$char_traits@D@std@@V?$allocator@D@2@@std@@UFRIENDINFO@CFriendMgr@@U_tstring_less@@V?$allocator@UFRIENDINFO@CFriendMgr@@@2@@2@U_tstring_less@@V?$allocator@UFRIENDINFO@CFriendMgr@@@2@@std@@IBEAAPAU_Node@12@XZ 00425840 f i FriendMgr.obj
 0001:00024860       ?_Buynode@?$_Tree@V?$basic_string@DU?$char_traits@D@std@@V?$allocator@D@2@@std@@U?$pair@$$CBV?$basic_string@DU?$char_traits@D@std@@V?$allocator@D@2@@std@@UFRIENDINFO@CFriendMgr@@@2@U_Kfn@?$map@V?$basic_string@DU?$char_traits@D@std@@V?$allocator@D@2@@std@@UFRIENDINFO@CFriendMgr@@U_tstring_less@@V?$allocator@UFRIENDINFO@CFriendMgr@@@2@@2@U_tstring_less@@V?$allocator@UFRIENDINFO@CFriendMgr@@@2@@std@@IAEPAU_Node@12@PAU312@W4_Redbl@12@@Z 00425860 f i FriendMgr.obj
 0001:000248b0       ?_Consval@?$_Tree@V?$basic_string@DU?$char_traits@D@std@@V?$allocator@D@2@@std@@U?$pair@$$CBV?$basic_string@DU?$char_traits@D@std@@V?$allocator@D@2@@std@@UFRIENDINFO@CFriendMgr@@@2@U_Kfn@?$map@V?$basic_string@DU?$char_traits@D@std@@V?$allocator@D@2@@std@@UFRIENDINFO@CFriendMgr@@U_tstring_less@@V?$allocator@UFRIENDINFO@CFriendMgr@@@2@@2@U_tstring_less@@V?$allocator@UFRIENDINFO@CFriendMgr@@@2@@std@@IAEXPAU?$pair@$$CBV?$basic_string@DU?$char_traits@D@std@@V?$allocator@D@2@@std@@UFRIENDINFO@CFriendMgr@@@2@ABU32@@Z 004258b0 f i FriendMgr.obj
 0001:000248d0       ??0const_iterator@?$_Tree@V?$basic_string@DU?$char_traits@D@std@@V?$allocator@D@2@@std@@U?$pair@$$CBV?$basic_string@DU?$char_traits@D@std@@V?$allocator@D@2@@std@@UFRIENDINFO@CFriendMgr@@@2@U_Kfn@?$map@V?$basic_string@DU?$char_traits@D@std@@V?$allocator@D@2@@std@@UFRIENDINFO@CFriendMgr@@U_tstring_less@@V?$allocator@UFRIENDINFO@CFriendMgr@@@2@@2@U_tstring_less@@V?$allocator@UFRIENDINFO@CFriendMgr@@@2@@std@@QAE@PAU_Node@12@@Z 004258d0 f i FriendMgr.obj
 0001:000248f0       ?_Dec@const_iterator@?$_Tree@V?$basic_string@DU?$char_traits@D@std@@V?$allocator@D@2@@std@@U?$pair@$$CBV?$basic_string@DU?$char_traits@D@std@@V?$allocator@D@2@@std@@UFRIENDINFO@CFriendMgr@@@2@U_Kfn@?$map@V?$basic_string@DU?$char_traits@D@std@@V?$allocator@D@2@@std@@UFRIENDINFO@CFriendMgr@@U_tstring_less@@V?$allocator@UFRIENDINFO@CFriendMgr@@@2@@2@U_tstring_less@@V?$allocator@UFRIENDINFO@CFriendMgr@@@2@@std@@QAEXXZ 004258f0 f i FriendMgr.obj
 0001:00024a00       ?_Lbound@?$_Tree@V?$basic_string@DU?$char_traits@D@std@@V?$allocator@D@2@@std@@U?$pair@$$CBV?$basic_string@DU?$char_traits@D@std@@V?$allocator@D@2@@std@@UPLAYERINFO@CFriendMgr@@@2@U_Kfn@?$map@V?$basic_string@DU?$char_traits@D@std@@V?$allocator@D@2@@std@@UPLAYERINFO@CFriendMgr@@U_tstring_less@@V?$allocator@UPLAYERINFO@CFriendMgr@@@2@@2@U_tstring_less@@V?$allocator@UPLAYERINFO@CFriendMgr@@@2@@std@@IBEPAU_Node@12@ABV?$basic_string@DU?$char_traits@D@std@@V?$allocator@D@2@@2@@Z 00425a00 f i FriendMgr.obj
 0001:00024ad0       ?_Lrotate@?$_Tree@V?$basic_string@DU?$char_traits@D@std@@V?$allocator@D@2@@std@@U?$pair@$$CBV?$basic_string@DU?$char_traits@D@std@@V?$allocator@D@2@@std@@UPLAYERINFO@CFriendMgr@@@2@U_Kfn@?$map@V?$basic_string@DU?$char_traits@D@std@@V?$allocator@D@2@@std@@UPLAYERINFO@CFriendMgr@@U_tstring_less@@V?$allocator@UPLAYERINFO@CFriendMgr@@@2@@2@U_tstring_less@@V?$allocator@UPLAYERINFO@CFriendMgr@@@2@@std@@IAEXPAU_Node@12@@Z 00425ad0 f i FriendMgr.obj
 0001:00024c40       ?_Rrotate@?$_Tree@V?$basic_string@DU?$char_traits@D@std@@V?$allocator@D@2@@std@@U?$pair@$$CBV?$basic_string@DU?$char_traits@D@std@@V?$allocator@D@2@@std@@UPLAYERINFO@CFriendMgr@@@2@U_Kfn@?$map@V?$basic_string@DU?$char_traits@D@std@@V?$allocator@D@2@@std@@UPLAYERINFO@CFriendMgr@@U_tstring_less@@V?$allocator@UPLAYERINFO@CFriendMgr@@@2@@2@U_tstring_less@@V?$allocator@UPLAYERINFO@CFriendMgr@@@2@@std@@IAEXPAU_Node@12@@Z 00425c40 f i FriendMgr.obj
 0001:00024db0       ?_Buynode@?$_Tree@V?$basic_string@DU?$char_traits@D@std@@V?$allocator@D@2@@std@@U?$pair@$$CBV?$basic_string@DU?$char_traits@D@std@@V?$allocator@D@2@@std@@UPLAYERINFO@CFriendMgr@@@2@U_Kfn@?$map@V?$basic_string@DU?$char_traits@D@std@@V?$allocator@D@2@@std@@UPLAYERINFO@CFriendMgr@@U_tstring_less@@V?$allocator@UPLAYERINFO@CFriendMgr@@@2@@2@U_tstring_less@@V?$allocator@UPLAYERINFO@CFriendMgr@@@2@@std@@IAEPAU_Node@12@PAU312@W4_Redbl@12@@Z 00425db0 f i FriendMgr.obj
 0001:00024e00       ?_Consval@?$_Tree@V?$basic_string@DU?$char_traits@D@std@@V?$allocator@D@2@@std@@U?$pair@$$CBV?$basic_string@DU?$char_traits@D@std@@V?$allocator@D@2@@std@@UPLAYERINFO@CFriendMgr@@@2@U_Kfn@?$map@V?$basic_string@DU?$char_traits@D@std@@V?$allocator@D@2@@std@@UPLAYERINFO@CFriendMgr@@U_tstring_less@@V?$allocator@UPLAYERINFO@CFriendMgr@@@2@@2@U_tstring_less@@V?$allocator@UPLAYERINFO@CFriendMgr@@@2@@std@@IAEXPAU?$pair@$$CBV?$basic_string@DU?$char_traits@D@std@@V?$allocator@D@2@@std@@UPLAYERINFO@CFriendMgr@@@2@ABU32@@Z 00425e00 f i FriendMgr.obj
 0001:00024e20       ?_Destval@?$_Tree@V?$basic_string@DU?$char_traits@D@std@@V?$allocator@D@2@@std@@U?$pair@$$CBV?$basic_string@DU?$char_traits@D@std@@V?$allocator@D@2@@std@@UPLAYERINFO@CFriendMgr@@@2@U_Kfn@?$map@V?$basic_string@DU?$char_traits@D@std@@V?$allocator@D@2@@std@@UPLAYERINFO@CFriendMgr@@U_tstring_less@@V?$allocator@UPLAYERINFO@CFriendMgr@@@2@@2@U_tstring_less@@V?$allocator@UPLAYERINFO@CFriendMgr@@@2@@std@@IAEXPAU?$pair@$$CBV?$basic_string@DU?$char_traits@D@std@@V?$allocator@D@2@@std@@UPLAYERINFO@CFriendMgr@@@2@@Z 00425e20 f i FriendMgr.obj
 0001:00024e40       ??0const_iterator@?$_Tree@V?$basic_string@DU?$char_traits@D@std@@V?$allocator@D@2@@std@@U?$pair@$$CBV?$basic_string@DU?$char_traits@D@std@@V?$allocator@D@2@@std@@UPLAYERINFO@CFriendMgr@@@2@U_Kfn@?$map@V?$basic_string@DU?$char_traits@D@std@@V?$allocator@D@2@@std@@UPLAYERINFO@CFriendMgr@@U_tstring_less@@V?$allocator@UPLAYERINFO@CFriendMgr@@@2@@2@U_tstring_less@@V?$allocator@UPLAYERINFO@CFriendMgr@@@2@@std@@QAE@PAU_Node@12@@Z 00425e40 f i FriendMgr.obj
 0001:00024e60       ??R_Kfn@?$map@UADDFRIENDKEY@CFriendMgr@@UADDFRIENDVALUE@2@U?$less@UADDFRIENDKEY@CFriendMgr@@@std@@V?$allocator@UADDFRIENDVALUE@CFriendMgr@@@5@@std@@QBEABUADDFRIENDKEY@CFriendMgr@@ABU?$pair@$$CBUADDFRIENDKEY@CFriendMgr@@UADDFRIENDVALUE@2@@2@@Z 00425e60 f i FriendMgr.obj
 0001:00024e70       ?_Insert@?$_Tree@UADDFRIENDKEY@CFriendMgr@@U?$pair@$$CBUADDFRIENDKEY@CFriendMgr@@UADDFRIENDVALUE@2@@std@@U_Kfn@?$map@UADDFRIENDKEY@CFriendMgr@@UADDFRIENDVALUE@2@U?$less@UADDFRIENDKEY@CFriendMgr@@@std@@V?$allocator@UADDFRIENDVALUE@CFriendMgr@@@5@@4@U?$less@UADDFRIENDKEY@CFriendMgr@@@4@V?$allocator@UADDFRIENDVALUE@CFriendMgr@@@4@@std@@IAE?AViterator@12@PAU_Node@12@0ABU?$pair@$$CBUADDFRIENDKEY@CFriendMgr@@UADDFRIENDVALUE@2@@2@@Z 00425e70 f i FriendMgr.obj
 0001:00025340       ?_Lbound@?$_Tree@UADDFRIENDKEY@CFriendMgr@@U?$pair@$$CBUADDFRIENDKEY@CFriendMgr@@UADDFRIENDVALUE@2@@std@@U_Kfn@?$map@UADDFRIENDKEY@CFriendMgr@@UADDFRIENDVALUE@2@U?$less@UADDFRIENDKEY@CFriendMgr@@@std@@V?$allocator@UADDFRIENDVALUE@CFriendMgr@@@5@@4@U?$less@UADDFRIENDKEY@CFriendMgr@@@4@V?$allocator@UADDFRIENDVALUE@CFriendMgr@@@4@@std@@IBEPAU_Node@12@ABUADDFRIENDKEY@CFriendMgr@@@Z 00426340 f i FriendMgr.obj
 0001:00025410       ?_Buynode@?$_Tree@UADDFRIENDKEY@CFriendMgr@@U?$pair@$$CBUADDFRIENDKEY@CFriendMgr@@UADDFRIENDVALUE@2@@std@@U_Kfn@?$map@UADDFRIENDKEY@CFriendMgr@@UADDFRIENDVALUE@2@U?$less@UADDFRIENDKEY@CFriendMgr@@@std@@V?$allocator@UADDFRIENDVALUE@CFriendMgr@@@5@@4@U?$less@UADDFRIENDKEY@CFriendMgr@@@4@V?$allocator@UADDFRIENDVALUE@CFriendMgr@@@4@@std@@IAEPAU_Node@12@PAU312@W4_Redbl@12@@Z 00426410 f i FriendMgr.obj
 0001:00025460       ??0const_iterator@?$_Tree@UADDFRIENDKEY@CFriendMgr@@U?$pair@$$CBUADDFRIENDKEY@CFriendMgr@@UADDFRIENDVALUE@2@@std@@U_Kfn@?$map@UADDFRIENDKEY@CFriendMgr@@UADDFRIENDVALUE@2@U?$less@UADDFRIENDKEY@CFriendMgr@@@std@@V?$allocator@UADDFRIENDVALUE@CFriendMgr@@@5@@4@U?$less@UADDFRIENDKEY@CFriendMgr@@@4@V?$allocator@UADDFRIENDVALUE@CFriendMgr@@@4@@std@@QAE@PAU_Node@12@@Z 00426460 f i FriendMgr.obj
 0001:00025480       ??Eiterator@?$_Tree@UADDFRIENDKEY@CFriendMgr@@U?$pair@$$CBUADDFRIENDKEY@CFriendMgr@@UADDFRIENDVALUE@2@@std@@U_Kfn@?$map@UADDFRIENDKEY@CFriendMgr@@UADDFRIENDVALUE@2@U?$less@UADDFRIENDKEY@CFriendMgr@@@std@@V?$allocator@UADDFRIENDVALUE@CFriendMgr@@@5@@4@U?$less@UADDFRIENDKEY@CFriendMgr@@@4@V?$allocator@UADDFRIENDVALUE@CFriendMgr@@@4@@std@@QAEAAV012@XZ 00426480 f i FriendMgr.obj
 0001:000254a0       ??Fiterator@?$_Tree@UADDFRIENDKEY@CFriendMgr@@U?$pair@$$CBUADDFRIENDKEY@CFriendMgr@@UADDFRIENDVALUE@2@@std@@U_Kfn@?$map@UADDFRIENDKEY@CFriendMgr@@UADDFRIENDVALUE@2@U?$less@UADDFRIENDKEY@CFriendMgr@@@std@@V?$allocator@UADDFRIENDVALUE@CFriendMgr@@@5@@4@U?$less@UADDFRIENDKEY@CFriendMgr@@@4@V?$allocator@UADDFRIENDVALUE@CFriendMgr@@@4@@std@@QAEAAV012@XZ 004264a0 f i FriendMgr.obj
 0001:000254c0       ?destroy@?$allocator@UMEM_FRIENDRECORD@CFriendMgr@@@std@@QAEXPAUMEM_FRIENDRECORD@CFriendMgr@@@Z 004264c0 f i FriendMgr.obj
 0001:000254e0       ??R_Kfn@?$map@KV?$list@UtagPlusSrcInfo@@V?$allocator@UtagPlusSrcInfo@@@std@@@std@@U?$less@K@2@V?$allocator@V?$list@UtagPlusSrcInfo@@V?$allocator@UtagPlusSrcInfo@@@std@@@std@@@2@@std@@QBEABKABU?$pair@$$CBKV?$list@UtagPlusSrcInfo@@V?$allocator@UtagPlusSrcInfo@@@std@@@std@@@2@@Z 004264e0 f i FriendMgr.obj
 0001:000254f0       ?_Color@?$_Tree@KU?$pair@$$CBKV?$list@UtagPlusSrcInfo@@V?$allocator@UtagPlusSrcInfo@@@std@@@std@@@std@@U_Kfn@?$map@KV?$list@UtagPlusSrcInfo@@V?$allocator@UtagPlusSrcInfo@@@std@@@std@@U?$less@K@2@V?$allocator@V?$list@UtagPlusSrcInfo@@V?$allocator@UtagPlusSrcInfo@@@std@@@std@@@2@@2@U?$less@K@2@V?$allocator@V?$list@UtagPlusSrcInfo@@V?$allocator@UtagPlusSrcInfo@@@std@@@std@@@2@@std@@KAAAW4_Redbl@12@PAU_Node@12@@Z 004264f0 f i FriendMgr.obj
 0001:00025500       ?_Key@?$_Tree@KU?$pair@$$CBKV?$list@UtagPlusSrcInfo@@V?$allocator@UtagPlusSrcInfo@@@std@@@std@@@std@@U_Kfn@?$map@KV?$list@UtagPlusSrcInfo@@V?$allocator@UtagPlusSrcInfo@@@std@@@std@@U?$less@K@2@V?$allocator@V?$list@UtagPlusSrcInfo@@V?$allocator@UtagPlusSrcInfo@@@std@@@std@@@2@@2@U?$less@K@2@V?$allocator@V?$list@UtagPlusSrcInfo@@V?$allocator@UtagPlusSrcInfo@@@std@@@std@@@2@@std@@KAABKPAU_Node@12@@Z 00426500 f i FriendMgr.obj
 0001:00025520       ?_Left@?$_Tree@KU?$pair@$$CBKV?$list@UtagPlusSrcInfo@@V?$allocator@UtagPlusSrcInfo@@@std@@@std@@@std@@U_Kfn@?$map@KV?$list@UtagPlusSrcInfo@@V?$allocator@UtagPlusSrcInfo@@@std@@@std@@U?$less@K@2@V?$allocator@V?$list@UtagPlusSrcInfo@@V?$allocator@UtagPlusSrcInfo@@@std@@@std@@@2@@2@U?$less@K@2@V?$allocator@V?$list@UtagPlusSrcInfo@@V?$allocator@UtagPlusSrcInfo@@@std@@@std@@@2@@std@@KAAAPAU_Node@12@PAU312@@Z 00426520 f i FriendMgr.obj
 0001:00025530       ?_Parent@?$_Tree@KU?$pair@$$CBKV?$list@UtagPlusSrcInfo@@V?$allocator@UtagPlusSrcInfo@@@std@@@std@@@std@@U_Kfn@?$map@KV?$list@UtagPlusSrcInfo@@V?$allocator@UtagPlusSrcInfo@@@std@@@std@@U?$less@K@2@V?$allocator@V?$list@UtagPlusSrcInfo@@V?$allocator@UtagPlusSrcInfo@@@std@@@std@@@2@@2@U?$less@K@2@V?$allocator@V?$list@UtagPlusSrcInfo@@V?$allocator@UtagPlusSrcInfo@@@std@@@std@@@2@@std@@KAAAPAU_Node@12@PAU312@@Z 00426530 f i FriendMgr.obj
 0001:00025540       ?_Right@?$_Tree@KU?$pair@$$CBKV?$list@UtagPlusSrcInfo@@V?$allocator@UtagPlusSrcInfo@@@std@@@std@@@std@@U_Kfn@?$map@KV?$list@UtagPlusSrcInfo@@V?$allocator@UtagPlusSrcInfo@@@std@@@std@@U?$less@K@2@V?$allocator@V?$list@UtagPlusSrcInfo@@V?$allocator@UtagPlusSrcInfo@@@std@@@std@@@2@@2@U?$less@K@2@V?$allocator@V?$list@UtagPlusSrcInfo@@V?$allocator@UtagPlusSrcInfo@@@std@@@std@@@2@@std@@KAAAPAU_Node@12@PAU312@@Z 00426540 f i FriendMgr.obj
 0001:00025550       ?_Insert@?$_Tree@KU?$pair@$$CBKV?$list@UtagPlusSrcInfo@@V?$allocator@UtagPlusSrcInfo@@@std@@@std@@@std@@U_Kfn@?$map@KV?$list@UtagPlusSrcInfo@@V?$allocator@UtagPlusSrcInfo@@@std@@@std@@U?$less@K@2@V?$allocator@V?$list@UtagPlusSrcInfo@@V?$allocator@UtagPlusSrcInfo@@@std@@@std@@@2@@2@U?$less@K@2@V?$allocator@V?$list@UtagPlusSrcInfo@@V?$allocator@UtagPlusSrcInfo@@@std@@@std@@@2@@std@@IAE?AViterator@12@PAU_Node@12@0ABU?$pair@$$CBKV?$list@UtagPlusSrcInfo@@V?$allocator@UtagPlusSrcInfo@@@std@@@std@@@2@@Z 00426550 f i FriendMgr.obj
 0001:00025a20       ?_Lrotate@?$_Tree@KU?$pair@$$CBKV?$list@UtagPlusSrcInfo@@V?$allocator@UtagPlusSrcInfo@@@std@@@std@@@std@@U_Kfn@?$map@KV?$list@UtagPlusSrcInfo@@V?$allocator@UtagPlusSrcInfo@@@std@@@std@@U?$less@K@2@V?$allocator@V?$list@UtagPlusSrcInfo@@V?$allocator@UtagPlusSrcInfo@@@std@@@std@@@2@@2@U?$less@K@2@V?$allocator@V?$list@UtagPlusSrcInfo@@V?$allocator@UtagPlusSrcInfo@@@std@@@std@@@2@@std@@IAEXPAU_Node@12@@Z 00426a20 f i FriendMgr.obj
 0001:00025b90       ?_Max@?$_Tree@KU?$pair@$$CBKV?$list@UtagPlusSrcInfo@@V?$allocator@UtagPlusSrcInfo@@@std@@@std@@@std@@U_Kfn@?$map@KV?$list@UtagPlusSrcInfo@@V?$allocator@UtagPlusSrcInfo@@@std@@@std@@U?$less@K@2@V?$allocator@V?$list@UtagPlusSrcInfo@@V?$allocator@UtagPlusSrcInfo@@@std@@@std@@@2@@2@U?$less@K@2@V?$allocator@V?$list@UtagPlusSrcInfo@@V?$allocator@UtagPlusSrcInfo@@@std@@@std@@@2@@std@@KAPAU_Node@12@PAU312@@Z 00426b90 f i FriendMgr.obj
 0001:00025c10       ?_Min@?$_Tree@KU?$pair@$$CBKV?$list@UtagPlusSrcInfo@@V?$allocator@UtagPlusSrcInfo@@@std@@@std@@@std@@U_Kfn@?$map@KV?$list@UtagPlusSrcInfo@@V?$allocator@UtagPlusSrcInfo@@@std@@@std@@U?$less@K@2@V?$allocator@V?$list@UtagPlusSrcInfo@@V?$allocator@UtagPlusSrcInfo@@@std@@@std@@@2@@2@U?$less@K@2@V?$allocator@V?$list@UtagPlusSrcInfo@@V?$allocator@UtagPlusSrcInfo@@@std@@@std@@@2@@std@@KAPAU_Node@12@PAU312@@Z 00426c10 f i FriendMgr.obj
 0001:00025c90       ?_Rrotate@?$_Tree@KU?$pair@$$CBKV?$list@UtagPlusSrcInfo@@V?$allocator@UtagPlusSrcInfo@@@std@@@std@@@std@@U_Kfn@?$map@KV?$list@UtagPlusSrcInfo@@V?$allocator@UtagPlusSrcInfo@@@std@@@std@@U?$less@K@2@V?$allocator@V?$list@UtagPlusSrcInfo@@V?$allocator@UtagPlusSrcInfo@@@std@@@std@@@2@@2@U?$less@K@2@V?$allocator@V?$list@UtagPlusSrcInfo@@V?$allocator@UtagPlusSrcInfo@@@std@@@std@@@2@@std@@IAEXPAU_Node@12@@Z 00426c90 f i FriendMgr.obj
 0001:00025e00       ?_Buynode@?$_Tree@KU?$pair@$$CBKV?$list@UtagPlusSrcInfo@@V?$allocator@UtagPlusSrcInfo@@@std@@@std@@@std@@U_Kfn@?$map@KV?$list@UtagPlusSrcInfo@@V?$allocator@UtagPlusSrcInfo@@@std@@@std@@U?$less@K@2@V?$allocator@V?$list@UtagPlusSrcInfo@@V?$allocator@UtagPlusSrcInfo@@@std@@@std@@@2@@2@U?$less@K@2@V?$allocator@V?$list@UtagPlusSrcInfo@@V?$allocator@UtagPlusSrcInfo@@@std@@@std@@@2@@std@@IAEPAU_Node@12@PAU312@W4_Redbl@12@@Z 00426e00 f i FriendMgr.obj
 0001:00025e50       ?_Destval@?$_Tree@KU?$pair@$$CBKV?$list@UtagPlusSrcInfo@@V?$allocator@UtagPlusSrcInfo@@@std@@@std@@@std@@U_Kfn@?$map@KV?$list@UtagPlusSrcInfo@@V?$allocator@UtagPlusSrcInfo@@@std@@@std@@U?$less@K@2@V?$allocator@V?$list@UtagPlusSrcInfo@@V?$allocator@UtagPlusSrcInfo@@@std@@@std@@@2@@2@U?$less@K@2@V?$allocator@V?$list@UtagPlusSrcInfo@@V?$allocator@UtagPlusSrcInfo@@@std@@@std@@@2@@std@@IAEXPAU?$pair@$$CBKV?$list@UtagPlusSrcInfo@@V?$allocator@UtagPlusSrcInfo@@@std@@@std@@@2@@Z 00426e50 f i FriendMgr.obj
 0001:00025e70       ?insert@?$list@UtagPlusSrcInfo@@V?$allocator@UtagPlusSrcInfo@@@std@@@std@@QAEXViterator@12@Vconst_iterator@12@1@Z 00426e70 f i FriendMgr.obj
 0001:00025ec0       ??0const_iterator@?$_Tree@KU?$pair@$$CBKV?$list@UtagPlusSrcInfo@@V?$allocator@UtagPlusSrcInfo@@@std@@@std@@@std@@U_Kfn@?$map@KV?$list@UtagPlusSrcInfo@@V?$allocator@UtagPlusSrcInfo@@@std@@@std@@U?$less@K@2@V?$allocator@V?$list@UtagPlusSrcInfo@@V?$allocator@UtagPlusSrcInfo@@@std@@@std@@@2@@2@U?$less@K@2@V?$allocator@V?$list@UtagPlusSrcInfo@@V?$allocator@UtagPlusSrcInfo@@@std@@@std@@@2@@std@@QAE@PAU_Node@12@@Z 00426ec0 f i FriendMgr.obj
 0001:00025ee0       ?_Mynode@const_iterator@?$_Tree@KU?$pair@$$CBKV?$list@UtagPlusSrcInfo@@V?$allocator@UtagPlusSrcInfo@@@std@@@std@@@std@@U_Kfn@?$map@KV?$list@UtagPlusSrcInfo@@V?$allocator@UtagPlusSrcInfo@@@std@@@std@@U?$less@K@2@V?$allocator@V?$list@UtagPlusSrcInfo@@V?$allocator@UtagPlusSrcInfo@@@std@@@std@@@2@@2@U?$less@K@2@V?$allocator@V?$list@UtagPlusSrcInfo@@V?$allocator@UtagPlusSrcInfo@@@std@@@std@@@2@@std@@QBEPAU_Node@23@XZ 00426ee0 f i FriendMgr.obj
 0001:00025ef0       ??Fiterator@?$_Tree@KU?$pair@$$CBKV?$list@UtagPlusSrcInfo@@V?$allocator@UtagPlusSrcInfo@@@std@@@std@@@std@@U_Kfn@?$map@KV?$list@UtagPlusSrcInfo@@V?$allocator@UtagPlusSrcInfo@@@std@@@std@@U?$less@K@2@V?$allocator@V?$list@UtagPlusSrcInfo@@V?$allocator@UtagPlusSrcInfo@@@std@@@std@@@2@@2@U?$less@K@2@V?$allocator@V?$list@UtagPlusSrcInfo@@V?$allocator@UtagPlusSrcInfo@@@std@@@std@@@2@@std@@QAEAAV012@XZ 00426ef0 f i FriendMgr.obj
 0001:00025f10       ??R_Kfn@?$map@V?$basic_string@DU?$char_traits@D@std@@V?$allocator@D@2@@std@@V?$list@U?$pair@EV?$basic_string@DU?$char_traits@D@std@@V?$allocator@D@2@@std@@@std@@V?$allocator@U?$pair@EV?$basic_string@DU?$char_traits@D@std@@V?$allocator@D@2@@std@@@std@@@2@@2@U_tstring_less@@V?$allocator@V?$list@U?$pair@EV?$basic_string@DU?$char_traits@D@std@@V?$allocator@D@2@@std@@@std@@V?$allocator@U?$pair@EV?$basic_string@DU?$char_traits@D@std@@V?$allocator@D@2@@std@@@std@@@2@@std@@@2@@std@@QBEABV?$basic_string@DU?$char_traits@D@std@@V?$allocator@D@2@@2@ABU?$pair@$$CBV?$basic_string@DU?$char_traits@D@std@@V?$allocator@D@2@@std@@V?$list@U?$pair@EV?$basic_string@DU?$char_traits@D@std@@V?$allocator@D@2@@std@@@std@@V?$allocator@U?$pair@EV?$basic_string@DU?$char_traits@D@std@@V?$allocator@D@2@@std@@@std@@@2@@2@@2@@Z 00426f10 f i FriendMgr.obj
 0001:00025f20       ?_Color@?$_Tree@V?$basic_string@DU?$char_traits@D@std@@V?$allocator@D@2@@std@@U?$pair@$$CBV?$basic_string@DU?$char_traits@D@std@@V?$allocator@D@2@@std@@V?$list@U?$pair@EV?$basic_string@DU?$char_traits@D@std@@V?$allocator@D@2@@std@@@std@@V?$allocator@U?$pair@EV?$basic_string@DU?$char_traits@D@std@@V?$allocator@D@2@@std@@@std@@@2@@2@@2@U_Kfn@?$map@V?$basic_string@DU?$char_traits@D@std@@V?$allocator@D@2@@std@@V?$list@U?$pair@EV?$basic_string@DU?$char_traits@D@std@@V?$allocator@D@2@@std@@@std@@V?$allocator@U?$pair@EV?$basic_string@DU?$char_traits@D@std@@V?$allocator@D@2@@std@@@std@@@2@@2@U_tstring_less@@V?$allocator@V?$list@U?$pair@EV?$basic_string@DU?$char_traits@D@std@@V?$allocator@D@2@@std@@@std@@V?$allocator@U?$pair@EV?$basic_string@DU?$char_traits@D@std@@V?$allocator@D@2@@std@@@std@@@2@@std@@@2@@2@U_tstring_less@@V?$allocator@V?$list@U?$pair@EV?$basic_string@DU?$char_traits@D@std@@V?$allocator@D@2@@std@@@std@@V?$allocator@U?$pair@EV?$basic_string@DU?$char_traits@D@std@@V?$allocator@D@2@@std@@@std@@@2@@std@@@2@@std@@KAAAW4_Redbl@12@PAU_Node@12@@Z 00426f20 f i FriendMgr.obj
 0001:00025f30       ?_Key@?$_Tree@V?$basic_string@DU?$char_traits@D@std@@V?$allocator@D@2@@std@@U?$pair@$$CBV?$basic_string@DU?$char_traits@D@std@@V?$allocator@D@2@@std@@V?$list@U?$pair@EV?$basic_string@DU?$char_traits@D@std@@V?$allocator@D@2@@std@@@std@@V?$allocator@U?$pair@EV?$basic_string@DU?$char_traits@D@std@@V?$allocator@D@2@@std@@@std@@@2@@2@@2@U_Kfn@?$map@V?$basic_string@DU?$char_traits@D@std@@V?$allocator@D@2@@std@@V?$list@U?$pair@EV?$basic_string@DU?$char_traits@D@std@@V?$allocator@D@2@@std@@@std@@V?$allocator@U?$pair@EV?$basic_string@DU?$char_traits@D@std@@V?$allocator@D@2@@std@@@std@@@2@@2@U_tstring_less@@V?$allocator@V?$list@U?$pair@EV?$basic_string@DU?$char_traits@D@std@@V?$allocator@D@2@@std@@@std@@V?$allocator@U?$pair@EV?$basic_string@DU?$char_traits@D@std@@V?$allocator@D@2@@std@@@std@@@2@@std@@@2@@2@U_tstring_less@@V?$allocator@V?$list@U?$pair@EV?$basic_string@DU?$char_traits@D@std@@V?$allocator@D@2@@std@@@std@@V?$allocator@U?$pair@EV?$basic_string@DU?$char_traits@D@std@@V?$allocator@D@2@@std@@@std@@@2@@std@@@2@@std@@KAABV?$basic_string@DU?$char_traits@D@std@@V?$allocator@D@2@@2@PAU_Node@12@@Z 00426f30 f i FriendMgr.obj
 0001:00025f50       ?_Left@?$_Tree@V?$basic_string@DU?$char_traits@D@std@@V?$allocator@D@2@@std@@U?$pair@$$CBV?$basic_string@DU?$char_traits@D@std@@V?$allocator@D@2@@std@@V?$list@U?$pair@EV?$basic_string@DU?$char_traits@D@std@@V?$allocator@D@2@@std@@@std@@V?$allocator@U?$pair@EV?$basic_string@DU?$char_traits@D@std@@V?$allocator@D@2@@std@@@std@@@2@@2@@2@U_Kfn@?$map@V?$basic_string@DU?$char_traits@D@std@@V?$allocator@D@2@@std@@V?$list@U?$pair@EV?$basic_string@DU?$char_traits@D@std@@V?$allocator@D@2@@std@@@std@@V?$allocator@U?$pair@EV?$basic_string@DU?$char_traits@D@std@@V?$allocator@D@2@@std@@@std@@@2@@2@U_tstring_less@@V?$allocator@V?$list@U?$pair@EV?$basic_string@DU?$char_traits@D@std@@V?$allocator@D@2@@std@@@std@@V?$allocator@U?$pair@EV?$basic_string@DU?$char_traits@D@std@@V?$allocator@D@2@@std@@@std@@@2@@std@@@2@@2@U_tstring_less@@V?$allocator@V?$list@U?$pair@EV?$basic_string@DU?$char_traits@D@std@@V?$allocator@D@2@@std@@@std@@V?$allocator@U?$pair@EV?$basic_string@DU?$char_traits@D@std@@V?$allocator@D@2@@std@@@std@@@2@@std@@@2@@std@@KAAAPAU_Node@12@PAU312@@Z 00426f50 f i FriendMgr.obj
 0001:00025f60       ?_Parent@?$_Tree@V?$basic_string@DU?$char_traits@D@std@@V?$allocator@D@2@@std@@U?$pair@$$CBV?$basic_string@DU?$char_traits@D@std@@V?$allocator@D@2@@std@@V?$list@U?$pair@EV?$basic_string@DU?$char_traits@D@std@@V?$allocator@D@2@@std@@@std@@V?$allocator@U?$pair@EV?$basic_string@DU?$char_traits@D@std@@V?$allocator@D@2@@std@@@std@@@2@@2@@2@U_Kfn@?$map@V?$basic_string@DU?$char_traits@D@std@@V?$allocator@D@2@@std@@V?$list@U?$pair@EV?$basic_string@DU?$char_traits@D@std@@V?$allocator@D@2@@std@@@std@@V?$allocator@U?$pair@EV?$basic_string@DU?$char_traits@D@std@@V?$allocator@D@2@@std@@@std@@@2@@2@U_tstring_less@@V?$allocator@V?$list@U?$pair@EV?$basic_string@DU?$char_traits@D@std@@V?$allocator@D@2@@std@@@std@@V?$allocator@U?$pair@EV?$basic_string@DU?$char_traits@D@std@@V?$allocator@D@2@@std@@@std@@@2@@std@@@2@@2@U_tstring_less@@V?$allocator@V?$list@U?$pair@EV?$basic_string@DU?$char_traits@D@std@@V?$allocator@D@2@@std@@@std@@V?$allocator@U?$pair@EV?$basic_string@DU?$char_traits@D@std@@V?$allocator@D@2@@std@@@std@@@2@@std@@@2@@std@@KAAAPAU_Node@12@PAU312@@Z 00426f60 f i FriendMgr.obj
 0001:00025f70       ?_Right@?$_Tree@V?$basic_string@DU?$char_traits@D@std@@V?$allocator@D@2@@std@@U?$pair@$$CBV?$basic_string@DU?$char_traits@D@std@@V?$allocator@D@2@@std@@V?$list@U?$pair@EV?$basic_string@DU?$char_traits@D@std@@V?$allocator@D@2@@std@@@std@@V?$allocator@U?$pair@EV?$basic_string@DU?$char_traits@D@std@@V?$allocator@D@2@@std@@@std@@@2@@2@@2@U_Kfn@?$map@V?$basic_string@DU?$char_traits@D@std@@V?$allocator@D@2@@std@@V?$list@U?$pair@EV?$basic_string@DU?$char_traits@D@std@@V?$allocator@D@2@@std@@@std@@V?$allocator@U?$pair@EV?$basic_string@DU?$char_traits@D@std@@V?$allocator@D@2@@std@@@std@@@2@@2@U_tstring_less@@V?$allocator@V?$list@U?$pair@EV?$basic_string@DU?$char_traits@D@std@@V?$allocator@D@2@@std@@@std@@V?$allocator@U?$pair@EV?$basic_string@DU?$char_traits@D@std@@V?$allocator@D@2@@std@@@std@@@2@@std@@@2@@2@U_tstring_less@@V?$allocator@V?$list@U?$pair@EV?$basic_string@DU?$char_traits@D@std@@V?$allocator@D@2@@std@@@std@@V?$allocator@U?$pair@EV?$basic_string@DU?$char_traits@D@std@@V?$allocator@D@2@@std@@@std@@@2@@std@@@2@@std@@KAAAPAU_Node@12@PAU312@@Z 00426f70 f i FriendMgr.obj
 0001:00025f80       ?_Insert@?$_Tree@V?$basic_string@DU?$char_traits@D@std@@V?$allocator@D@2@@std@@U?$pair@$$CBV?$basic_string@DU?$char_traits@D@std@@V?$allocator@D@2@@std@@V?$list@U?$pair@EV?$basic_string@DU?$char_traits@D@std@@V?$allocator@D@2@@std@@@std@@V?$allocator@U?$pair@EV?$basic_string@DU?$char_traits@D@std@@V?$allocator@D@2@@std@@@std@@@2@@2@@2@U_Kfn@?$map@V?$basic_string@DU?$char_traits@D@std@@V?$allocator@D@2@@std@@V?$list@U?$pair@EV?$basic_string@DU?$char_traits@D@std@@V?$allocator@D@2@@std@@@std@@V?$allocator@U?$pair@EV?$basic_string@DU?$char_traits@D@std@@V?$allocator@D@2@@std@@@std@@@2@@2@U_tstring_less@@V?$allocator@V?$list@U?$pair@EV?$basic_string@DU?$char_traits@D@std@@V?$allocator@D@2@@std@@@std@@V?$allocator@U?$pair@EV?$basic_string@DU?$char_traits@D@std@@V?$allocator@D@2@@std@@@std@@@2@@std@@@2@@2@U_tstring_less@@V?$allocator@V?$list@U?$pair@EV?$basic_string@DU?$char_traits@D@std@@V?$allocator@D@2@@std@@@std@@V?$allocator@U?$pair@EV?$basic_string@DU?$char_traits@D@std@@V?$allocator@D@2@@std@@@std@@@2@@std@@@2@@std@@IAE?AViterator@12@PAU_Node@12@0ABU?$pair@$$CBV?$basic_string@DU?$char_traits@D@std@@V?$allocator@D@2@@std@@V?$list@U?$pair@EV?$basic_string@DU?$char_traits@D@std@@V?$allocator@D@2@@std@@@std@@V?$allocator@U?$pair@EV?$basic_string@DU?$char_traits@D@std@@V?$allocator@D@2@@std@@@std@@@2@@2@@2@@Z 00426f80 f i FriendMgr.obj
 0001:00026450       ?_Lrotate@?$_Tree@V?$basic_string@DU?$char_traits@D@std@@V?$allocator@D@2@@std@@U?$pair@$$CBV?$basic_string@DU?$char_traits@D@std@@V?$allocator@D@2@@std@@V?$list@U?$pair@EV?$basic_string@DU?$char_traits@D@std@@V?$allocator@D@2@@std@@@std@@V?$allocator@U?$pair@EV?$basic_string@DU?$char_traits@D@std@@V?$allocator@D@2@@std@@@std@@@2@@2@@2@U_Kfn@?$map@V?$basic_string@DU?$char_traits@D@std@@V?$allocator@D@2@@std@@V?$list@U?$pair@EV?$basic_string@DU?$char_traits@D@std@@V?$allocator@D@2@@std@@@std@@V?$allocator@U?$pair@EV?$basic_string@DU?$char_traits@D@std@@V?$allocator@D@2@@std@@@std@@@2@@2@U_tstring_less@@V?$allocator@V?$list@U?$pair@EV?$basic_string@DU?$char_traits@D@std@@V?$allocator@D@2@@std@@@std@@V?$allocator@U?$pair@EV?$basic_string@DU?$char_traits@D@std@@V?$allocator@D@2@@std@@@std@@@2@@std@@@2@@2@U_tstring_less@@V?$allocator@V?$list@U?$pair@EV?$basic_string@DU?$char_traits@D@std@@V?$allocator@D@2@@std@@@std@@V?$allocator@U?$pair@EV?$basic_string@DU?$char_traits@D@std@@V?$allocator@D@2@@std@@@std@@@2@@std@@@2@@std@@IAEXPAU_Node@12@@Z 00427450 f i FriendMgr.obj
 0001:000265c0       ?_Max@?$_Tree@V?$basic_string@DU?$char_traits@D@std@@V?$allocator@D@2@@std@@U?$pair@$$CBV?$basic_string@DU?$char_traits@D@std@@V?$allocator@D@2@@std@@V?$list@U?$pair@EV?$basic_string@DU?$char_traits@D@std@@V?$allocator@D@2@@std@@@std@@V?$allocator@U?$pair@EV?$basic_string@DU?$char_traits@D@std@@V?$allocator@D@2@@std@@@std@@@2@@2@@2@U_Kfn@?$map@V?$basic_string@DU?$char_traits@D@std@@V?$allocator@D@2@@std@@V?$list@U?$pair@EV?$basic_string@DU?$char_traits@D@std@@V?$allocator@D@2@@std@@@std@@V?$allocator@U?$pair@EV?$basic_string@DU?$char_traits@D@std@@V?$allocator@D@2@@std@@@std@@@2@@2@U_tstring_less@@V?$allocator@V?$list@U?$pair@EV?$basic_string@DU?$char_traits@D@std@@V?$allocator@D@2@@std@@@std@@V?$allocator@U?$pair@EV?$basic_string@DU?$char_traits@D@std@@V?$allocator@D@2@@std@@@std@@@2@@std@@@2@@2@U_tstring_less@@V?$allocator@V?$list@U?$pair@EV?$basic_string@DU?$char_traits@D@std@@V?$allocator@D@2@@std@@@std@@V?$allocator@U?$pair@EV?$basic_string@DU?$char_traits@D@std@@V?$allocator@D@2@@std@@@std@@@2@@std@@@2@@std@@KAPAU_Node@12@PAU312@@Z 004275c0 f i FriendMgr.obj
 0001:00026640       ?_Min@?$_Tree@V?$basic_string@DU?$char_traits@D@std@@V?$allocator@D@2@@std@@U?$pair@$$CBV?$basic_string@DU?$char_traits@D@std@@V?$allocator@D@2@@std@@V?$list@U?$pair@EV?$basic_string@DU?$char_traits@D@std@@V?$allocator@D@2@@std@@@std@@V?$allocator@U?$pair@EV?$basic_string@DU?$char_traits@D@std@@V?$allocator@D@2@@std@@@std@@@2@@2@@2@U_Kfn@?$map@V?$basic_string@DU?$char_traits@D@std@@V?$allocator@D@2@@std@@V?$list@U?$pair@EV?$basic_string@DU?$char_traits@D@std@@V?$allocator@D@2@@std@@@std@@V?$allocator@U?$pair@EV?$basic_string@DU?$char_traits@D@std@@V?$allocator@D@2@@std@@@std@@@2@@2@U_tstring_less@@V?$allocator@V?$list@U?$pair@EV?$basic_string@DU?$char_traits@D@std@@V?$allocator@D@2@@std@@@std@@V?$allocator@U?$pair@EV?$basic_string@DU?$char_traits@D@std@@V?$allocator@D@2@@std@@@std@@@2@@std@@@2@@2@U_tstring_less@@V?$allocator@V?$list@U?$pair@EV?$basic_string@DU?$char_traits@D@std@@V?$allocator@D@2@@std@@@std@@V?$allocator@U?$pair@EV?$basic_string@DU?$char_traits@D@std@@V?$allocator@D@2@@std@@@std@@@2@@std@@@2@@std@@KAPAU_Node@12@PAU312@@Z 00427640 f i FriendMgr.obj
 0001:000266c0       ?_Rrotate@?$_Tree@V?$basic_string@DU?$char_traits@D@std@@V?$allocator@D@2@@std@@U?$pair@$$CBV?$basic_string@DU?$char_traits@D@std@@V?$allocator@D@2@@std@@V?$list@U?$pair@EV?$basic_string@DU?$char_traits@D@std@@V?$allocator@D@2@@std@@@std@@V?$allocator@U?$pair@EV?$basic_string@DU?$char_traits@D@std@@V?$allocator@D@2@@std@@@std@@@2@@2@@2@U_Kfn@?$map@V?$basic_string@DU?$char_traits@D@std@@V?$allocator@D@2@@std@@V?$list@U?$pair@EV?$basic_string@DU?$char_traits@D@std@@V?$allocator@D@2@@std@@@std@@V?$allocator@U?$pair@EV?$basic_string@DU?$char_traits@D@std@@V?$allocator@D@2@@std@@@std@@@2@@2@U_tstring_less@@V?$allocator@V?$list@U?$pair@EV?$basic_string@DU?$char_traits@D@std@@V?$allocator@D@2@@std@@@std@@V?$allocator@U?$pair@EV?$basic_string@DU?$char_traits@D@std@@V?$allocator@D@2@@std@@@std@@@2@@std@@@2@@2@U_tstring_less@@V?$allocator@V?$list@U?$pair@EV?$basic_string@DU?$char_traits@D@std@@V?$allocator@D@2@@std@@@std@@V?$allocator@U?$pair@EV?$basic_string@DU?$char_traits@D@std@@V?$allocator@D@2@@std@@@std@@@2@@std@@@2@@std@@IAEXPAU_Node@12@@Z 004276c0 f i FriendMgr.obj
 0001:00026830       ?_Buynode@?$_Tree@V?$basic_string@DU?$char_traits@D@std@@V?$allocator@D@2@@std@@U?$pair@$$CBV?$basic_string@DU?$char_traits@D@std@@V?$allocator@D@2@@std@@V?$list@U?$pair@EV?$basic_string@DU?$char_traits@D@std@@V?$allocator@D@2@@std@@@std@@V?$allocator@U?$pair@EV?$basic_string@DU?$char_traits@D@std@@V?$allocator@D@2@@std@@@std@@@2@@2@@2@U_Kfn@?$map@V?$basic_string@DU?$char_traits@D@std@@V?$allocator@D@2@@std@@V?$list@U?$pair@EV?$basic_string@DU?$char_traits@D@std@@V?$allocator@D@2@@std@@@std@@V?$allocator@U?$pair@EV?$basic_string@DU?$char_traits@D@std@@V?$allocator@D@2@@std@@@std@@@2@@2@U_tstring_less@@V?$allocator@V?$list@U?$pair@EV?$basic_string@DU?$char_traits@D@std@@V?$allocator@D@2@@std@@@std@@V?$allocator@U?$pair@EV?$basic_string@DU?$char_traits@D@std@@V?$allocator@D@2@@std@@@std@@@2@@std@@@2@@2@U_tstring_less@@V?$allocator@V?$list@U?$pair@EV?$basic_string@DU?$char_traits@D@std@@V?$allocator@D@2@@std@@@std@@V?$allocator@U?$pair@EV?$basic_string@DU?$char_traits@D@std@@V?$allocator@D@2@@std@@@std@@@2@@std@@@2@@std@@IAEPAU_Node@12@PAU312@W4_Redbl@12@@Z 00427830 f i FriendMgr.obj
 0001:00026880       ?_Destval@?$_Tree@V?$basic_string@DU?$char_traits@D@std@@V?$allocator@D@2@@std@@U?$pair@$$CBV?$basic_string@DU?$char_traits@D@std@@V?$allocator@D@2@@std@@V?$list@U?$pair@EV?$basic_string@DU?$char_traits@D@std@@V?$allocator@D@2@@std@@@std@@V?$allocator@U?$pair@EV?$basic_string@DU?$char_traits@D@std@@V?$allocator@D@2@@std@@@std@@@2@@2@@2@U_Kfn@?$map@V?$basic_string@DU?$char_traits@D@std@@V?$allocator@D@2@@std@@V?$list@U?$pair@EV?$basic_string@DU?$char_traits@D@std@@V?$allocator@D@2@@std@@@std@@V?$allocator@U?$pair@EV?$basic_string@DU?$char_traits@D@std@@V?$allocator@D@2@@std@@@std@@@2@@2@U_tstring_less@@V?$allocator@V?$list@U?$pair@EV?$basic_string@DU?$char_traits@D@std@@V?$allocator@D@2@@std@@@std@@V?$allocator@U?$pair@EV?$basic_string@DU?$char_traits@D@std@@V?$allocator@D@2@@std@@@std@@@2@@std@@@2@@2@U_tstring_less@@V?$allocator@V?$list@U?$pair@EV?$basic_string@DU?$char_traits@D@std@@V?$allocator@D@2@@std@@@std@@V?$allocator@U?$pair@EV?$basic_string@DU?$char_traits@D@std@@V?$allocator@D@2@@std@@@std@@@2@@std@@@2@@std@@IAEXPAU?$pair@$$CBV?$basic_string@DU?$char_traits@D@std@@V?$allocator@D@2@@std@@V?$list@U?$pair@EV?$basic_string@DU?$char_traits@D@std@@V?$allocator@D@2@@std@@@std@@V?$allocator@U?$pair@EV?$basic_string@DU?$char_traits@D@std@@V?$allocator@D@2@@std@@@std@@@2@@2@@2@@Z 00427880 f i FriendMgr.obj
 0001:000268a0       ?begin@?$list@U?$pair@EV?$basic_string@DU?$char_traits@D@std@@V?$allocator@D@2@@std@@@std@@V?$allocator@U?$pair@EV?$basic_string@DU?$char_traits@D@std@@V?$allocator@D@2@@std@@@std@@@2@@std@@QBE?AVconst_iterator@12@XZ 004278a0 f i FriendMgr.obj
 0001:000268e0       ?end@?$list@U?$pair@EV?$basic_string@DU?$char_traits@D@std@@V?$allocator@D@2@@std@@@std@@V?$allocator@U?$pair@EV?$basic_string@DU?$char_traits@D@std@@V?$allocator@D@2@@std@@@std@@@2@@std@@QBE?AVconst_iterator@12@XZ 004278e0 f i FriendMgr.obj
 0001:00026910       ?insert@?$list@U?$pair@EV?$basic_string@DU?$char_traits@D@std@@V?$allocator@D@2@@std@@@std@@V?$allocator@U?$pair@EV?$basic_string@DU?$char_traits@D@std@@V?$allocator@D@2@@std@@@std@@@2@@std@@QAEXViterator@12@Vconst_iterator@12@1@Z 00427910 f i FriendMgr.obj
 0001:00026960       ?erase@?$list@U?$pair@EV?$basic_string@DU?$char_traits@D@std@@V?$allocator@D@2@@std@@@std@@V?$allocator@U?$pair@EV?$basic_string@DU?$char_traits@D@std@@V?$allocator@D@2@@std@@@std@@@2@@std@@QAE?AViterator@12@V312@@Z 00427960 f i FriendMgr.obj
 0001:00026a20       ?_Charalloc@?$allocator@U?$pair@EV?$basic_string@DU?$char_traits@D@std@@V?$allocator@D@2@@std@@@std@@@std@@QAEPADI@Z 00427a20 f i FriendMgr.obj
 0001:00026a40       ?deallocate@?$allocator@U?$pair@EV?$basic_string@DU?$char_traits@D@std@@V?$allocator@D@2@@std@@@std@@@std@@QAEXPAXI@Z 00427a40 f i FriendMgr.obj
 0001:00026a60       ??0const_iterator@?$_Tree@V?$basic_string@DU?$char_traits@D@std@@V?$allocator@D@2@@std@@U?$pair@$$CBV?$basic_string@DU?$char_traits@D@std@@V?$allocator@D@2@@std@@V?$list@U?$pair@EV?$basic_string@DU?$char_traits@D@std@@V?$allocator@D@2@@std@@@std@@V?$allocator@U?$pair@EV?$basic_string@DU?$char_traits@D@std@@V?$allocator@D@2@@std@@@std@@@2@@2@@2@U_Kfn@?$map@V?$basic_string@DU?$char_traits@D@std@@V?$allocator@D@2@@std@@V?$list@U?$pair@EV?$basic_string@DU?$char_traits@D@std@@V?$allocator@D@2@@std@@@std@@V?$allocator@U?$pair@EV?$basic_string@DU?$char_traits@D@std@@V?$allocator@D@2@@std@@@std@@@2@@2@U_tstring_less@@V?$allocator@V?$list@U?$pair@EV?$basic_string@DU?$char_traits@D@std@@V?$allocator@D@2@@std@@@std@@V?$allocator@U?$pair@EV?$basic_string@DU?$char_traits@D@std@@V?$allocator@D@2@@std@@@std@@@2@@std@@@2@@2@U_tstring_less@@V?$allocator@V?$list@U?$pair@EV?$basic_string@DU?$char_traits@D@std@@V?$allocator@D@2@@std@@@std@@V?$allocator@U?$pair@EV?$basic_string@DU?$char_traits@D@std@@V?$allocator@D@2@@std@@@std@@@2@@std@@@2@@std@@QAE@PAU_Node@12@@Z 00427a60 f i FriendMgr.obj
 0001:00026a80       ?_Mynode@const_iterator@?$_Tree@V?$basic_string@DU?$char_traits@D@std@@V?$allocator@D@2@@std@@U?$pair@$$CBV?$basic_string@DU?$char_traits@D@std@@V?$allocator@D@2@@std@@V?$list@U?$pair@EV?$basic_string@DU?$char_traits@D@std@@V?$allocator@D@2@@std@@@std@@V?$allocator@U?$pair@EV?$basic_string@DU?$char_traits@D@std@@V?$allocator@D@2@@std@@@std@@@2@@2@@2@U_Kfn@?$map@V?$basic_string@DU?$char_traits@D@std@@V?$allocator@D@2@@std@@V?$list@U?$pair@EV?$basic_string@DU?$char_traits@D@std@@V?$allocator@D@2@@std@@@std@@V?$allocator@U?$pair@EV?$basic_string@DU?$char_traits@D@std@@V?$allocator@D@2@@std@@@std@@@2@@2@U_tstring_less@@V?$allocator@V?$list@U?$pair@EV?$basic_string@DU?$char_traits@D@std@@V?$allocator@D@2@@std@@@std@@V?$allocator@U?$pair@EV?$basic_string@DU?$char_traits@D@std@@V?$allocator@D@2@@std@@@std@@@2@@std@@@2@@2@U_tstring_less@@V?$allocator@V?$list@U?$pair@EV?$basic_string@DU?$char_traits@D@std@@V?$allocator@D@2@@std@@@std@@V?$allocator@U?$pair@EV?$basic_string@DU?$char_traits@D@std@@V?$allocator@D@2@@std@@@std@@@2@@std@@@2@@std@@QBEPAU_Node@23@XZ 00427a80 f i FriendMgr.obj
 0001:00026a90       ??Fiterator@?$_Tree@V?$basic_string@DU?$char_traits@D@std@@V?$allocator@D@2@@std@@U?$pair@$$CBV?$basic_string@DU?$char_traits@D@std@@V?$allocator@D@2@@std@@V?$list@U?$pair@EV?$basic_string@DU?$char_traits@D@std@@V?$allocator@D@2@@std@@@std@@V?$allocator@U?$pair@EV?$basic_string@DU?$char_traits@D@std@@V?$allocator@D@2@@std@@@std@@@2@@2@@2@U_Kfn@?$map@V?$basic_string@DU?$char_traits@D@std@@V?$allocator@D@2@@std@@V?$list@U?$pair@EV?$basic_string@DU?$char_traits@D@std@@V?$allocator@D@2@@std@@@std@@V?$allocator@U?$pair@EV?$basic_string@DU?$char_traits@D@std@@V?$allocator@D@2@@std@@@std@@@2@@2@U_tstring_less@@V?$allocator@V?$list@U?$pair@EV?$basic_string@DU?$char_traits@D@std@@V?$allocator@D@2@@std@@@std@@V?$allocator@U?$pair@EV?$basic_string@DU?$char_traits@D@std@@V?$allocator@D@2@@std@@@std@@@2@@std@@@2@@2@U_tstring_less@@V?$allocator@V?$list@U?$pair@EV?$basic_string@DU?$char_traits@D@std@@V?$allocator@D@2@@std@@@std@@V?$allocator@U?$pair@EV?$basic_string@DU?$char_traits@D@std@@V?$allocator@D@2@@std@@@std@@@2@@std@@@2@@std@@QAEAAV012@XZ 00427a90 f i FriendMgr.obj
 0001:00026ab0       ?destroy@?$allocator@V?$basic_string@DU?$char_traits@D@std@@V?$allocator@D@2@@std@@@std@@QAEXPAV?$basic_string@DU?$char_traits@D@std@@V?$allocator@D@2@@2@@Z 00427ab0 f i FriendMgr.obj
 0001:00026ad0       ?_Ucopy@?$vector@Viterator@?$_Tree@V?$basic_string@DU?$char_traits@D@std@@V?$allocator@D@2@@std@@U?$pair@$$CBV?$basic_string@DU?$char_traits@D@std@@V?$allocator@D@2@@std@@UPLAYERINFO@CFriendMgr@@@2@U_Kfn@?$map@V?$basic_string@DU?$char_traits@D@std@@V?$allocator@D@2@@std@@UPLAYERINFO@CFriendMgr@@U_tstring_less@@V?$allocator@UPLAYERINFO@CFriendMgr@@@2@@2@U_tstring_less@@V?$allocator@UPLAYERINFO@CFriendMgr@@@2@@std@@V?$allocator@Viterator@?$_Tree@V?$basic_string@DU?$char_traits@D@std@@V?$allocator@D@2@@std@@U?$pair@$$CBV?$basic_string@DU?$char_traits@D@std@@V?$allocator@D@2@@std@@UPLAYERINFO@CFriendMgr@@@2@U_Kfn@?$map@V?$basic_string@DU?$char_traits@D@std@@V?$allocator@D@2@@std@@UPLAYERINFO@CFriendMgr@@U_tstring_less@@V?$allocator@UPLAYERINFO@CFriendMgr@@@2@@2@U_tstring_less@@V?$allocator@UPLAYERINFO@CFriendMgr@@@2@@std@@@3@@std@@IAEPAViterator@?$_Tree@V?$basic_string@DU?$char_traits@D@std@@V?$allocator@D@2@@std@@U?$pair@$$CBV?$basic_string@DU?$char_traits@D@std@@V?$allocator@D@2@@std@@UPLAYERINFO@CFriendMgr@@@2@U_Kfn@?$map@V?$basic_string@DU?$char_traits@D@std@@V?$allocator@D@2@@std@@UPLAYERINFO@CFriendMgr@@U_tstring_less@@V?$allocator@UPLAYERINFO@CFriendMgr@@@2@@2@U_tstring_less@@V?$allocator@UPLAYERINFO@CFriendMgr@@@2@@2@PBV342@0PAV342@@Z 00427ad0 f i FriendMgr.obj
 0001:00026b10       ?_Ufill@?$vector@Viterator@?$_Tree@V?$basic_string@DU?$char_traits@D@std@@V?$allocator@D@2@@std@@U?$pair@$$CBV?$basic_string@DU?$char_traits@D@std@@V?$allocator@D@2@@std@@UPLAYERINFO@CFriendMgr@@@2@U_Kfn@?$map@V?$basic_string@DU?$char_traits@D@std@@V?$allocator@D@2@@std@@UPLAYERINFO@CFriendMgr@@U_tstring_less@@V?$allocator@UPLAYERINFO@CFriendMgr@@@2@@2@U_tstring_less@@V?$allocator@UPLAYERINFO@CFriendMgr@@@2@@std@@V?$allocator@Viterator@?$_Tree@V?$basic_string@DU?$char_traits@D@std@@V?$allocator@D@2@@std@@U?$pair@$$CBV?$basic_string@DU?$char_traits@D@std@@V?$allocator@D@2@@std@@UPLAYERINFO@CFriendMgr@@@2@U_Kfn@?$map@V?$basic_string@DU?$char_traits@D@std@@V?$allocator@D@2@@std@@UPLAYERINFO@CFriendMgr@@U_tstring_less@@V?$allocator@UPLAYERINFO@CFriendMgr@@@2@@2@U_tstring_less@@V?$allocator@UPLAYERINFO@CFriendMgr@@@2@@std@@@3@@std@@IAEXPAViterator@?$_Tree@V?$basic_string@DU?$char_traits@D@std@@V?$allocator@D@2@@std@@U?$pair@$$CBV?$basic_string@DU?$char_traits@D@std@@V?$allocator@D@2@@std@@UPLAYERINFO@CFriendMgr@@@2@U_Kfn@?$map@V?$basic_string@DU?$char_traits@D@std@@V?$allocator@D@2@@std@@UPLAYERINFO@CFriendMgr@@U_tstring_less@@V?$allocator@UPLAYERINFO@CFriendMgr@@@2@@2@U_tstring_less@@V?$allocator@UPLAYERINFO@CFriendMgr@@@2@@2@IABV342@@Z 00427b10 f i FriendMgr.obj
 0001:00026b50       ?allocate@?$allocator@Viterator@?$_Tree@V?$basic_string@DU?$char_traits@D@std@@V?$allocator@D@2@@std@@U?$pair@$$CBV?$basic_string@DU?$char_traits@D@std@@V?$allocator@D@2@@std@@UPLAYERINFO@CFriendMgr@@@2@U_Kfn@?$map@V?$basic_string@DU?$char_traits@D@std@@V?$allocator@D@2@@std@@UPLAYERINFO@CFriendMgr@@U_tstring_less@@V?$allocator@UPLAYERINFO@CFriendMgr@@@2@@2@U_tstring_less@@V?$allocator@UPLAYERINFO@CFriendMgr@@@2@@std@@@std@@QAEPAViterator@?$_Tree@V?$basic_string@DU?$char_traits@D@std@@V?$allocator@D@2@@std@@U?$pair@$$CBV?$basic_string@DU?$char_traits@D@std@@V?$allocator@D@2@@std@@UPLAYERINFO@CFriendMgr@@@2@U_Kfn@?$map@V?$basic_string@DU?$char_traits@D@std@@V?$allocator@D@2@@std@@UPLAYERINFO@CFriendMgr@@U_tstring_less@@V?$allocator@UPLAYERINFO@CFriendMgr@@@2@@2@U_tstring_less@@V?$allocator@UPLAYERINFO@CFriendMgr@@@2@@2@IPBX@Z 00427b50 f i FriendMgr.obj
 0001:00026b70       ??0?$pair@Viterator@?$_Tree@V?$basic_string@DU?$char_traits@D@std@@V?$allocator@D@2@@std@@U?$pair@$$CBV?$basic_string@DU?$char_traits@D@std@@V?$allocator@D@2@@std@@UFRIENDINFO@CFriendMgr@@@2@U_Kfn@?$map@V?$basic_string@DU?$char_traits@D@std@@V?$allocator@D@2@@std@@UFRIENDINFO@CFriendMgr@@U_tstring_less@@V?$allocator@UFRIENDINFO@CFriendMgr@@@2@@2@U_tstring_less@@V?$allocator@UFRIENDINFO@CFriendMgr@@@2@@std@@V123@@std@@QAE@ABViterator@?$_Tree@V?$basic_string@DU?$char_traits@D@std@@V?$allocator@D@2@@std@@U?$pair@$$CBV?$basic_string@DU?$char_traits@D@std@@V?$allocator@D@2@@std@@UFRIENDINFO@CFriendMgr@@@2@U_Kfn@?$map@V?$basic_string@DU?$char_traits@D@std@@V?$allocator@D@2@@std@@UFRIENDINFO@CFriendMgr@@U_tstring_less@@V?$allocator@UFRIENDINFO@CFriendMgr@@@2@@2@U_tstring_less@@V?$allocator@UFRIENDINFO@CFriendMgr@@@2@@1@0@Z 00427b70 f i FriendMgr.obj
 0001:00026ba0       ?_Charalloc@?$allocator@UFRIENDINFO@CFriendMgr@@@std@@QAEPADI@Z 00427ba0 f i FriendMgr.obj
 0001:00026bc0       ?_Ubound@?$_Tree@V?$basic_string@DU?$char_traits@D@std@@V?$allocator@D@2@@std@@U?$pair@$$CBV?$basic_string@DU?$char_traits@D@std@@V?$allocator@D@2@@std@@UFRIENDINFO@CFriendMgr@@@2@U_Kfn@?$map@V?$basic_string@DU?$char_traits@D@std@@V?$allocator@D@2@@std@@UFRIENDINFO@CFriendMgr@@U_tstring_less@@V?$allocator@UFRIENDINFO@CFriendMgr@@@2@@2@U_tstring_less@@V?$allocator@UFRIENDINFO@CFriendMgr@@@2@@std@@IBEPAU_Node@12@ABV?$basic_string@DU?$char_traits@D@std@@V?$allocator@D@2@@2@@Z 00427bc0 f i FriendMgr.obj
 0001:00026c90       ?_Charalloc@?$allocator@UPLAYERINFO@CFriendMgr@@@std@@QAEPADI@Z 00427c90 f i FriendMgr.obj
 0001:00026cb0       ?_Root@?$_Tree@V?$basic_string@DU?$char_traits@D@std@@V?$allocator@D@2@@std@@U?$pair@$$CBV?$basic_string@DU?$char_traits@D@std@@V?$allocator@D@2@@std@@UPLAYERINFO@CFriendMgr@@@2@U_Kfn@?$map@V?$basic_string@DU?$char_traits@D@std@@V?$allocator@D@2@@std@@UPLAYERINFO@CFriendMgr@@U_tstring_less@@V?$allocator@UPLAYERINFO@CFriendMgr@@@2@@2@U_tstring_less@@V?$allocator@UPLAYERINFO@CFriendMgr@@@2@@std@@IBEAAPAU_Node@12@XZ 00427cb0 f i FriendMgr.obj
 0001:00026cd0       ?_Charalloc@?$allocator@UADDFRIENDVALUE@CFriendMgr@@@std@@QAEPADI@Z 00427cd0 f i FriendMgr.obj
 0001:00026cf0       ?_Root@?$_Tree@UADDFRIENDKEY@CFriendMgr@@U?$pair@$$CBUADDFRIENDKEY@CFriendMgr@@UADDFRIENDVALUE@2@@std@@U_Kfn@?$map@UADDFRIENDKEY@CFriendMgr@@UADDFRIENDVALUE@2@U?$less@UADDFRIENDKEY@CFriendMgr@@@std@@V?$allocator@UADDFRIENDVALUE@CFriendMgr@@@5@@4@U?$less@UADDFRIENDKEY@CFriendMgr@@@4@V?$allocator@UADDFRIENDVALUE@CFriendMgr@@@4@@std@@IBEAAPAU_Node@12@XZ 00427cf0 f i FriendMgr.obj
 0001:00026d10       ?_Consval@?$_Tree@UADDFRIENDKEY@CFriendMgr@@U?$pair@$$CBUADDFRIENDKEY@CFriendMgr@@UADDFRIENDVALUE@2@@std@@U_Kfn@?$map@UADDFRIENDKEY@CFriendMgr@@UADDFRIENDVALUE@2@U?$less@UADDFRIENDKEY@CFriendMgr@@@std@@V?$allocator@UADDFRIENDVALUE@CFriendMgr@@@5@@4@U?$less@UADDFRIENDKEY@CFriendMgr@@@4@V?$allocator@UADDFRIENDVALUE@CFriendMgr@@@4@@std@@IAEXPAU?$pair@$$CBUADDFRIENDKEY@CFriendMgr@@UADDFRIENDVALUE@2@@2@ABU32@@Z 00427d10 f i FriendMgr.obj
 0001:00026d30       ?_Dec@const_iterator@?$_Tree@UADDFRIENDKEY@CFriendMgr@@U?$pair@$$CBUADDFRIENDKEY@CFriendMgr@@UADDFRIENDVALUE@2@@std@@U_Kfn@?$map@UADDFRIENDKEY@CFriendMgr@@UADDFRIENDVALUE@2@U?$less@UADDFRIENDKEY@CFriendMgr@@@std@@V?$allocator@UADDFRIENDVALUE@CFriendMgr@@@5@@4@U?$less@UADDFRIENDKEY@CFriendMgr@@@4@V?$allocator@UADDFRIENDVALUE@CFriendMgr@@@4@@std@@QAEXXZ 00427d30 f i FriendMgr.obj
 0001:00026e40       ?_Inc@const_iterator@?$_Tree@UADDFRIENDKEY@CFriendMgr@@U?$pair@$$CBUADDFRIENDKEY@CFriendMgr@@UADDFRIENDVALUE@2@@std@@U_Kfn@?$map@UADDFRIENDKEY@CFriendMgr@@UADDFRIENDVALUE@2@U?$less@UADDFRIENDKEY@CFriendMgr@@@std@@V?$allocator@UADDFRIENDVALUE@CFriendMgr@@@5@@4@U?$less@UADDFRIENDKEY@CFriendMgr@@@4@V?$allocator@UADDFRIENDVALUE@CFriendMgr@@@4@@std@@QAEXXZ 00427e40 f i FriendMgr.obj
 0001:00026f20       ?_Charalloc@?$allocator@V?$list@UtagPlusSrcInfo@@V?$allocator@UtagPlusSrcInfo@@@std@@@std@@@std@@QAEPADI@Z 00427f20 f i FriendMgr.obj
 0001:00026f40       ?_Consval@?$_Tree@KU?$pair@$$CBKV?$list@UtagPlusSrcInfo@@V?$allocator@UtagPlusSrcInfo@@@std@@@std@@@std@@U_Kfn@?$map@KV?$list@UtagPlusSrcInfo@@V?$allocator@UtagPlusSrcInfo@@@std@@@std@@U?$less@K@2@V?$allocator@V?$list@UtagPlusSrcInfo@@V?$allocator@UtagPlusSrcInfo@@@std@@@std@@@2@@2@U?$less@K@2@V?$allocator@V?$list@UtagPlusSrcInfo@@V?$allocator@UtagPlusSrcInfo@@@std@@@std@@@2@@std@@IAEXPAU?$pair@$$CBKV?$list@UtagPlusSrcInfo@@V?$allocator@UtagPlusSrcInfo@@@std@@@std@@@2@ABU32@@Z 00427f40 f i FriendMgr.obj
 0001:00026f60       ?_Dec@const_iterator@?$_Tree@KU?$pair@$$CBKV?$list@UtagPlusSrcInfo@@V?$allocator@UtagPlusSrcInfo@@@std@@@std@@@std@@U_Kfn@?$map@KV?$list@UtagPlusSrcInfo@@V?$allocator@UtagPlusSrcInfo@@@std@@@std@@U?$less@K@2@V?$allocator@V?$list@UtagPlusSrcInfo@@V?$allocator@UtagPlusSrcInfo@@@std@@@std@@@2@@2@U?$less@K@2@V?$allocator@V?$list@UtagPlusSrcInfo@@V?$allocator@UtagPlusSrcInfo@@@std@@@std@@@2@@std@@QAEXXZ 00427f60 f i FriendMgr.obj
 0001:00027070       ?_Charalloc@?$allocator@V?$list@U?$pair@EV?$basic_string@DU?$char_traits@D@std@@V?$allocator@D@2@@std@@@std@@V?$allocator@U?$pair@EV?$basic_string@DU?$char_traits@D@std@@V?$allocator@D@2@@std@@@std@@@2@@std@@@std@@QAEPADI@Z 00428070 f i FriendMgr.obj
 0001:00027090       ?_Consval@?$_Tree@V?$basic_string@DU?$char_traits@D@std@@V?$allocator@D@2@@std@@U?$pair@$$CBV?$basic_string@DU?$char_traits@D@std@@V?$allocator@D@2@@std@@V?$list@U?$pair@EV?$basic_string@DU?$char_traits@D@std@@V?$allocator@D@2@@std@@@std@@V?$allocator@U?$pair@EV?$basic_string@DU?$char_traits@D@std@@V?$allocator@D@2@@std@@@std@@@2@@2@@2@U_Kfn@?$map@V?$basic_string@DU?$char_traits@D@std@@V?$allocator@D@2@@std@@V?$list@U?$pair@EV?$basic_string@DU?$char_traits@D@std@@V?$allocator@D@2@@std@@@std@@V?$allocator@U?$pair@EV?$basic_string@DU?$char_traits@D@std@@V?$allocator@D@2@@std@@@std@@@2@@2@U_tstring_less@@V?$allocator@V?$list@U?$pair@EV?$basic_string@DU?$char_traits@D@std@@V?$allocator@D@2@@std@@@std@@V?$allocator@U?$pair@EV?$basic_string@DU?$char_traits@D@std@@V?$allocator@D@2@@std@@@std@@@2@@std@@@2@@2@U_tstring_less@@V?$allocator@V?$list@U?$pair@EV?$basic_string@DU?$char_traits@D@std@@V?$allocator@D@2@@std@@@std@@V?$allocator@U?$pair@EV?$basic_string@DU?$char_traits@D@std@@V?$allocator@D@2@@std@@@std@@@2@@std@@@2@@std@@IAEXPAU?$pair@$$CBV?$basic_string@DU?$char_traits@D@std@@V?$allocator@D@2@@std@@V?$list@U?$pair@EV?$basic_string@DU?$char_traits@D@std@@V?$allocator@D@2@@std@@@std@@V?$allocator@U?$pair@EV?$basic_string@DU?$char_traits@D@std@@V?$allocator@D@2@@std@@@std@@@2@@2@@2@ABU32@@Z 00428090 f i FriendMgr.obj
 0001:000270b0       ?destroy@?$allocator@U?$pair@EV?$basic_string@DU?$char_traits@D@std@@V?$allocator@D@2@@std@@@std@@@std@@QAEXPAU?$pair@EV?$basic_string@DU?$char_traits@D@std@@V?$allocator@D@2@@std@@@2@@Z 004280b0 f i FriendMgr.obj
 0001:000270d0       ??Dconst_iterator@?$list@U?$pair@EV?$basic_string@DU?$char_traits@D@std@@V?$allocator@D@2@@std@@@std@@V?$allocator@U?$pair@EV?$basic_string@DU?$char_traits@D@std@@V?$allocator@D@2@@std@@@std@@@2@@std@@QBEABU?$pair@EV?$basic_string@DU?$char_traits@D@std@@V?$allocator@D@2@@std@@@2@XZ 004280d0 f i FriendMgr.obj
 0001:000270f0       ??Econst_iterator@?$list@U?$pair@EV?$basic_string@DU?$char_traits@D@std@@V?$allocator@D@2@@std@@@std@@V?$allocator@U?$pair@EV?$basic_string@DU?$char_traits@D@std@@V?$allocator@D@2@@std@@@std@@@2@@std@@QAEAAV012@XZ 004280f0 f i FriendMgr.obj
 0001:00027120       ??9const_iterator@?$list@U?$pair@EV?$basic_string@DU?$char_traits@D@std@@V?$allocator@D@2@@std@@@std@@V?$allocator@U?$pair@EV?$basic_string@DU?$char_traits@D@std@@V?$allocator@D@2@@std@@@std@@@2@@std@@QBE_NABV012@@Z 00428120 f i FriendMgr.obj
 0001:00027150       ?_Dec@const_iterator@?$_Tree@V?$basic_string@DU?$char_traits@D@std@@V?$allocator@D@2@@std@@U?$pair@$$CBV?$basic_string@DU?$char_traits@D@std@@V?$allocator@D@2@@std@@V?$list@U?$pair@EV?$basic_string@DU?$char_traits@D@std@@V?$allocator@D@2@@std@@@std@@V?$allocator@U?$pair@EV?$basic_string@DU?$char_traits@D@std@@V?$allocator@D@2@@std@@@std@@@2@@2@@2@U_Kfn@?$map@V?$basic_string@DU?$char_traits@D@std@@V?$allocator@D@2@@std@@V?$list@U?$pair@EV?$basic_string@DU?$char_traits@D@std@@V?$allocator@D@2@@std@@@std@@V?$allocator@U?$pair@EV?$basic_string@DU?$char_traits@D@std@@V?$allocator@D@2@@std@@@std@@@2@@2@U_tstring_less@@V?$allocator@V?$list@U?$pair@EV?$basic_string@DU?$char_traits@D@std@@V?$allocator@D@2@@std@@@std@@V?$allocator@U?$pair@EV?$basic_string@DU?$char_traits@D@std@@V?$allocator@D@2@@std@@@std@@@2@@std@@@2@@2@U_tstring_less@@V?$allocator@V?$list@U?$pair@EV?$basic_string@DU?$char_traits@D@std@@V?$allocator@D@2@@std@@@std@@V?$allocator@U?$pair@EV?$basic_string@DU?$char_traits@D@std@@V?$allocator@D@2@@std@@@std@@@2@@std@@@2@@std@@QAEXXZ 00428150 f i FriendMgr.obj
 0001:00027260       ?construct@?$allocator@Viterator@?$_Tree@V?$basic_string@DU?$char_traits@D@std@@V?$allocator@D@2@@std@@U?$pair@$$CBV?$basic_string@DU?$char_traits@D@std@@V?$allocator@D@2@@std@@UPLAYERINFO@CFriendMgr@@@2@U_Kfn@?$map@V?$basic_string@DU?$char_traits@D@std@@V?$allocator@D@2@@std@@UPLAYERINFO@CFriendMgr@@U_tstring_less@@V?$allocator@UPLAYERINFO@CFriendMgr@@@2@@2@U_tstring_less@@V?$allocator@UPLAYERINFO@CFriendMgr@@@2@@std@@@std@@QAEXPAViterator@?$_Tree@V?$basic_string@DU?$char_traits@D@std@@V?$allocator@D@2@@std@@U?$pair@$$CBV?$basic_string@DU?$char_traits@D@std@@V?$allocator@D@2@@std@@UPLAYERINFO@CFriendMgr@@@2@U_Kfn@?$map@V?$basic_string@DU?$char_traits@D@std@@V?$allocator@D@2@@std@@UPLAYERINFO@CFriendMgr@@U_tstring_less@@V?$allocator@UPLAYERINFO@CFriendMgr@@@2@@2@U_tstring_less@@V?$allocator@UPLAYERINFO@CFriendMgr@@@2@@2@ABV342@@Z 00428260 f i FriendMgr.obj
 0001:00027280       ??8const_iterator@?$list@U?$pair@EV?$basic_string@DU?$char_traits@D@std@@V?$allocator@D@2@@std@@@std@@V?$allocator@U?$pair@EV?$basic_string@DU?$char_traits@D@std@@V?$allocator@D@2@@std@@@std@@@2@@std@@QBE_NABV012@@Z 00428280 f i FriendMgr.obj
 0001:000272a0       ?_SafeAddRef@@YAXAAPAUIServer@@@Z 004282a0 f i FriendMgr.obj
 0001:000272c0       ?swap@std@@YAXAAW4_Redbl@?$_Tree@V?$basic_string@DU?$char_traits@D@std@@V?$allocator@D@2@@std@@U?$pair@$$CBV?$basic_string@DU?$char_traits@D@std@@V?$allocator@D@2@@std@@UFRIENDINFO@CFriendMgr@@@2@U_Kfn@?$map@V?$basic_string@DU?$char_traits@D@std@@V?$allocator@D@2@@std@@UFRIENDINFO@CFriendMgr@@U_tstring_less@@V?$allocator@UFRIENDINFO@CFriendMgr@@@2@@2@U_tstring_less@@V?$allocator@UFRIENDINFO@CFriendMgr@@@2@@1@0@Z 004282c0 f i FriendMgr.obj
 0001:000272f0       ?_Distance@std@@YAXViterator@?$_Tree@V?$basic_string@DU?$char_traits@D@std@@V?$allocator@D@2@@std@@U?$pair@$$CBV?$basic_string@DU?$char_traits@D@std@@V?$allocator@D@2@@std@@UFRIENDINFO@CFriendMgr@@@2@U_Kfn@?$map@V?$basic_string@DU?$char_traits@D@std@@V?$allocator@D@2@@std@@UFRIENDINFO@CFriendMgr@@U_tstring_less@@V?$allocator@UFRIENDINFO@CFriendMgr@@@2@@2@U_tstring_less@@V?$allocator@UFRIENDINFO@CFriendMgr@@@2@@1@0AAI@Z 004282f0 f i FriendMgr.obj
 0001:00027320       ?swap@std@@YAXAAW4_Redbl@?$_Tree@UADDFRIENDKEY@CFriendMgr@@U?$pair@$$CBUADDFRIENDKEY@CFriendMgr@@UADDFRIENDVALUE@2@@std@@U_Kfn@?$map@UADDFRIENDKEY@CFriendMgr@@UADDFRIENDVALUE@2@U?$less@UADDFRIENDKEY@CFriendMgr@@@std@@V?$allocator@UADDFRIENDVALUE@CFriendMgr@@@5@@4@U?$less@UADDFRIENDKEY@CFriendMgr@@@4@V?$allocator@UADDFRIENDVALUE@CFriendMgr@@@4@@1@0@Z 00428320 f i FriendMgr.obj
 0001:00027350       ?_Destroy@std@@YAXPAU?$pair@$$CBV?$basic_string@DU?$char_traits@D@std@@V?$allocator@D@2@@std@@UFRIENDINFO@CFriendMgr@@@1@@Z 00428350 f i FriendMgr.obj
 0001:00027360       ?swap@std@@YAXAAW4_Redbl@?$_Tree@V?$basic_string@DU?$char_traits@D@std@@V?$allocator@D@2@@std@@U?$pair@$$CBV?$basic_string@DU?$char_traits@D@std@@V?$allocator@D@2@@std@@UPLAYERINFO@CFriendMgr@@@2@U_Kfn@?$map@V?$basic_string@DU?$char_traits@D@std@@V?$allocator@D@2@@std@@UPLAYERINFO@CFriendMgr@@U_tstring_less@@V?$allocator@UPLAYERINFO@CFriendMgr@@@2@@2@U_tstring_less@@V?$allocator@UPLAYERINFO@CFriendMgr@@@2@@1@0@Z 00428360 f i FriendMgr.obj
 0001:00027390       ?_Destroy@std@@YAXPAU?$pair@$$CBUADDFRIENDKEY@CFriendMgr@@UADDFRIENDVALUE@2@@1@@Z 00428390 f i FriendMgr.obj
 0001:000273a0       ?_Construct@std@@YAXPAUMEM_FRIENDRECORD@CFriendMgr@@ABU23@@Z 004283a0 f i FriendMgr.obj
 0001:00027410       ?swap@std@@YAXAAW4_Redbl@?$_Tree@KU?$pair@$$CBKV?$list@UtagPlusSrcInfo@@V?$allocator@UtagPlusSrcInfo@@@std@@@std@@@std@@U_Kfn@?$map@KV?$list@UtagPlusSrcInfo@@V?$allocator@UtagPlusSrcInfo@@@std@@@std@@U?$less@K@2@V?$allocator@V?$list@UtagPlusSrcInfo@@V?$allocator@UtagPlusSrcInfo@@@std@@@std@@@2@@2@U?$less@K@2@V?$allocator@V?$list@UtagPlusSrcInfo@@V?$allocator@UtagPlusSrcInfo@@@std@@@std@@@2@@1@0@Z 00428410 f i FriendMgr.obj
 0001:00027440       ?swap@std@@YAXAAW4_Redbl@?$_Tree@V?$basic_string@DU?$char_traits@D@std@@V?$allocator@D@2@@std@@U?$pair@$$CBV?$basic_string@DU?$char_traits@D@std@@V?$allocator@D@2@@std@@V?$list@U?$pair@EV?$basic_string@DU?$char_traits@D@std@@V?$allocator@D@2@@std@@@std@@V?$allocator@U?$pair@EV?$basic_string@DU?$char_traits@D@std@@V?$allocator@D@2@@std@@@std@@@2@@2@@2@U_Kfn@?$map@V?$basic_string@DU?$char_traits@D@std@@V?$allocator@D@2@@std@@V?$list@U?$pair@EV?$basic_string@DU?$char_traits@D@std@@V?$allocator@D@2@@std@@@std@@V?$allocator@U?$pair@EV?$basic_string@DU?$char_traits@D@std@@V?$allocator@D@2@@std@@@std@@@2@@2@U_tstring_less@@V?$allocator@V?$list@U?$pair@EV?$basic_string@DU?$char_traits@D@std@@V?$allocator@D@2@@std@@@std@@V?$allocator@U?$pair@EV?$basic_string@DU?$char_traits@D@std@@V?$allocator@D@2@@std@@@std@@@2@@std@@@2@@2@U_tstring_less@@V?$allocator@V?$list@U?$pair@EV?$basic_string@DU?$char_traits@D@std@@V?$allocator@D@2@@std@@@std@@V?$allocator@U?$pair@EV?$basic_string@DU?$char_traits@D@std@@V?$allocator@D@2@@std@@@std@@@2@@std@@@2@@1@0@Z 00428440 f i FriendMgr.obj
 0001:00027470       ?_Construct@std@@YAXPAU?$pair@EV?$basic_string@DU?$char_traits@D@std@@V?$allocator@D@2@@std@@@1@ABU21@@Z 00428470 f i FriendMgr.obj
 0001:000274e0       ?_Construct@std@@YAXPAUONEPLAYER@CFriendMgr@@ABU23@@Z 004284e0 f i FriendMgr.obj
 0001:00027550       ?_Destroy@std@@YAXPAUONEPLAYER@CFriendMgr@@@Z 00428550 f i FriendMgr.obj
 0001:00027560       ?_Construct@std@@YAXPAV?$basic_string@DU?$char_traits@D@std@@V?$allocator@D@2@@1@ABV21@@Z 00428560 f i FriendMgr.obj
 0001:000275d0       ?fill@std@@YAXPAViterator@?$_Tree@V?$basic_string@DU?$char_traits@D@std@@V?$allocator@D@2@@std@@U?$pair@$$CBV?$basic_string@DU?$char_traits@D@std@@V?$allocator@D@2@@std@@UPLAYERINFO@CFriendMgr@@@2@U_Kfn@?$map@V?$basic_string@DU?$char_traits@D@std@@V?$allocator@D@2@@std@@UPLAYERINFO@CFriendMgr@@U_tstring_less@@V?$allocator@UPLAYERINFO@CFriendMgr@@@2@@2@U_tstring_less@@V?$allocator@UPLAYERINFO@CFriendMgr@@@2@@1@0ABV231@@Z 004285d0 f i FriendMgr.obj
 0001:00027600       ?copy_backward@std@@YAPAViterator@?$_Tree@V?$basic_string@DU?$char_traits@D@std@@V?$allocator@D@2@@std@@U?$pair@$$CBV?$basic_string@DU?$char_traits@D@std@@V?$allocator@D@2@@std@@UPLAYERINFO@CFriendMgr@@@2@U_Kfn@?$map@V?$basic_string@DU?$char_traits@D@std@@V?$allocator@D@2@@std@@UPLAYERINFO@CFriendMgr@@U_tstring_less@@V?$allocator@UPLAYERINFO@CFriendMgr@@@2@@2@U_tstring_less@@V?$allocator@UPLAYERINFO@CFriendMgr@@@2@@1@PAV231@00@Z 00428600 f i FriendMgr.obj
 0001:00027630       ?_Destroy@std@@YAXPAViterator@?$_Tree@V?$basic_string@DU?$char_traits@D@std@@V?$allocator@D@2@@std@@U?$pair@$$CBV?$basic_string@DU?$char_traits@D@std@@V?$allocator@D@2@@std@@UPLAYERINFO@CFriendMgr@@@2@U_Kfn@?$map@V?$basic_string@DU?$char_traits@D@std@@V?$allocator@D@2@@std@@UPLAYERINFO@CFriendMgr@@U_tstring_less@@V?$allocator@UPLAYERINFO@CFriendMgr@@@2@@2@U_tstring_less@@V?$allocator@UPLAYERINFO@CFriendMgr@@@2@@1@@Z 00428630 f i FriendMgr.obj
 0001:00027640       ?_Construct@std@@YAXPAU?$pair@$$CBV?$basic_string@DU?$char_traits@D@std@@V?$allocator@D@2@@std@@UFRIENDINFO@CFriendMgr@@@1@ABU21@@Z 00428640 f i FriendMgr.obj
 0001:000276b0       ?_Construct@std@@YAXPAU?$pair@$$CBV?$basic_string@DU?$char_traits@D@std@@V?$allocator@D@2@@std@@UPLAYERINFO@CFriendMgr@@@1@ABU21@@Z 004286b0 f i FriendMgr.obj
 0001:00027720       ?_Destroy@std@@YAXPAU?$pair@$$CBV?$basic_string@DU?$char_traits@D@std@@V?$allocator@D@2@@std@@UPLAYERINFO@CFriendMgr@@@1@@Z 00428720 f i FriendMgr.obj
 0001:00027730       ?_Destroy@std@@YAXPAUMEM_FRIENDRECORD@CFriendMgr@@@Z 00428730 f i FriendMgr.obj
 0001:00027740       ?_Destroy@std@@YAXPAU?$pair@$$CBKV?$list@UtagPlusSrcInfo@@V?$allocator@UtagPlusSrcInfo@@@std@@@std@@@1@@Z 00428740 f i FriendMgr.obj
 0001:00027750       ?_Destroy@std@@YAXPAU?$pair@$$CBV?$basic_string@DU?$char_traits@D@std@@V?$allocator@D@2@@std@@V?$list@U?$pair@EV?$basic_string@DU?$char_traits@D@std@@V?$allocator@D@2@@std@@@std@@V?$allocator@U?$pair@EV?$basic_string@DU?$char_traits@D@std@@V?$allocator@D@2@@std@@@std@@@2@@2@@1@@Z 00428750 f i FriendMgr.obj
 0001:00027760       ?_Destroy@std@@YAXPAV?$basic_string@DU?$char_traits@D@std@@V?$allocator@D@2@@1@@Z 00428760 f i FriendMgr.obj
 0001:00027770       ?_Allocate@std@@YAPAViterator@?$_Tree@V?$basic_string@DU?$char_traits@D@std@@V?$allocator@D@2@@std@@U?$pair@$$CBV?$basic_string@DU?$char_traits@D@std@@V?$allocator@D@2@@std@@UPLAYERINFO@CFriendMgr@@@2@U_Kfn@?$map@V?$basic_string@DU?$char_traits@D@std@@V?$allocator@D@2@@std@@UPLAYERINFO@CFriendMgr@@U_tstring_less@@V?$allocator@UPLAYERINFO@CFriendMgr@@@2@@2@U_tstring_less@@V?$allocator@UPLAYERINFO@CFriendMgr@@@2@@1@HPAV231@@Z 00428770 f i FriendMgr.obj
 0001:000277a0       ?_Construct@std@@YAXPAU?$pair@$$CBUADDFRIENDKEY@CFriendMgr@@UADDFRIENDVALUE@2@@1@ABU21@@Z 004287a0 f i FriendMgr.obj
 0001:00027810       ?_Construct@std@@YAXPAU?$pair@$$CBKV?$list@UtagPlusSrcInfo@@V?$allocator@UtagPlusSrcInfo@@@std@@@std@@@1@ABU21@@Z 00428810 f i FriendMgr.obj
 0001:00027880       ?_Construct@std@@YAXPAU?$pair@$$CBV?$basic_string@DU?$char_traits@D@std@@V?$allocator@D@2@@std@@V?$list@U?$pair@EV?$basic_string@DU?$char_traits@D@std@@V?$allocator@D@2@@std@@@std@@V?$allocator@U?$pair@EV?$basic_string@DU?$char_traits@D@std@@V?$allocator@D@2@@std@@@std@@@2@@2@@1@ABU21@@Z 00428880 f i FriendMgr.obj
 0001:000278f0       ?_Destroy@std@@YAXPAU?$pair@EV?$basic_string@DU?$char_traits@D@std@@V?$allocator@D@2@@std@@@1@@Z 004288f0 f i FriendMgr.obj
 0001:00027900       ?_Construct@std@@YAXPAViterator@?$_Tree@V?$basic_string@DU?$char_traits@D@std@@V?$allocator@D@2@@std@@U?$pair@$$CBV?$basic_string@DU?$char_traits@D@std@@V?$allocator@D@2@@std@@UPLAYERINFO@CFriendMgr@@@2@U_Kfn@?$map@V?$basic_string@DU?$char_traits@D@std@@V?$allocator@D@2@@std@@UPLAYERINFO@CFriendMgr@@U_tstring_less@@V?$allocator@UPLAYERINFO@CFriendMgr@@@2@@2@U_tstring_less@@V?$allocator@UPLAYERINFO@CFriendMgr@@@2@@1@ABV231@@Z 00428900 f i FriendMgr.obj
 0001:00027940       ??_G?$pair@$$CBV?$basic_string@DU?$char_traits@D@std@@V?$allocator@D@2@@std@@UFRIENDINFO@CFriendMgr@@@std@@QAEPAXI@Z 00428940 f i FriendMgr.obj
 0001:00027970       ??_G?$pair@$$CBUADDFRIENDKEY@CFriendMgr@@UADDFRIENDVALUE@2@@std@@QAEPAXI@Z 00428970 f i FriendMgr.obj
 0001:000279a0       ??0MEM_FRIENDRECORD@CFriendMgr@@QAE@ABU01@@Z 004289a0 f i FriendMgr.obj
 0001:00027a20       ??0ONEPLAYER@CFriendMgr@@QAE@ABU01@@Z 00428a20 f i FriendMgr.obj
 0001:00027a80       ??_GONEPLAYER@CFriendMgr@@QAEPAXI@Z 00428a80 f i FriendMgr.obj
 0001:00027ab0       ??0?$pair@$$CBV?$basic_string@DU?$char_traits@D@std@@V?$allocator@D@2@@std@@UFRIENDINFO@CFriendMgr@@@std@@QAE@ABU01@@Z 00428ab0 f i FriendMgr.obj
 0001:00027b10       ??0?$pair@$$CBV?$basic_string@DU?$char_traits@D@std@@V?$allocator@D@2@@std@@UPLAYERINFO@CFriendMgr@@@std@@QAE@ABU01@@Z 00428b10 f i FriendMgr.obj
 0001:00027b70       ??_G?$pair@$$CBV?$basic_string@DU?$char_traits@D@std@@V?$allocator@D@2@@std@@UPLAYERINFO@CFriendMgr@@@std@@QAEPAXI@Z 00428b70 f i FriendMgr.obj
 0001:00027ba0       ??_GMEM_FRIENDRECORD@CFriendMgr@@QAEPAXI@Z 00428ba0 f i FriendMgr.obj
 0001:00027bd0       ??_G?$pair@$$CBKV?$list@UtagPlusSrcInfo@@V?$allocator@UtagPlusSrcInfo@@@std@@@std@@@std@@QAEPAXI@Z 00428bd0 f i FriendMgr.obj
 0001:00027c00       ??_G?$pair@$$CBV?$basic_string@DU?$char_traits@D@std@@V?$allocator@D@2@@std@@V?$list@U?$pair@EV?$basic_string@DU?$char_traits@D@std@@V?$allocator@D@2@@std@@@std@@V?$allocator@U?$pair@EV?$basic_string@DU?$char_traits@D@std@@V?$allocator@D@2@@std@@@std@@@2@@2@@std@@QAEPAXI@Z 00428c00 f i FriendMgr.obj
 0001:00027c30       ??_G?$basic_string@DU?$char_traits@D@std@@V?$allocator@D@2@@std@@QAEPAXI@Z 00428c30 f i FriendMgr.obj
 0001:00027c60       ??0?$pair@$$CBUADDFRIENDKEY@CFriendMgr@@UADDFRIENDVALUE@2@@std@@QAE@ABU01@@Z 00428c60 f i FriendMgr.obj
 0001:00027cc0       ??0?$pair@$$CBKV?$list@UtagPlusSrcInfo@@V?$allocator@UtagPlusSrcInfo@@@std@@@std@@@std@@QAE@ABU01@@Z 00428cc0 f i FriendMgr.obj
 0001:00027cf0       ??0?$pair@$$CBV?$basic_string@DU?$char_traits@D@std@@V?$allocator@D@2@@std@@V?$list@U?$pair@EV?$basic_string@DU?$char_traits@D@std@@V?$allocator@D@2@@std@@@std@@V?$allocator@U?$pair@EV?$basic_string@DU?$char_traits@D@std@@V?$allocator@D@2@@std@@@std@@@2@@2@@std@@QAE@ABU01@@Z 00428cf0 f i FriendMgr.obj
 0001:00027d50       ??_G?$pair@EV?$basic_string@DU?$char_traits@D@std@@V?$allocator@D@2@@std@@@std@@QAEPAXI@Z 00428d50 f i FriendMgr.obj
 0001:00027d80       ??0?$list@UMEM_FRIENDRECORD@CFriendMgr@@V?$allocator@UMEM_FRIENDRECORD@CFriendMgr@@@std@@@std@@QAE@ABV01@@Z 00428d80 f i FriendMgr.obj
 0001:00027df0       ?insert@?$list@UMEM_FRIENDRECORD@CFriendMgr@@V?$allocator@UMEM_FRIENDRECORD@CFriendMgr@@@std@@@std@@QAEXViterator@12@Vconst_iterator@12@1@Z 00428df0 f i FriendMgr.obj
 0001:00027e40       ?_Iter_cat@std@@YA?AUbidirectional_iterator_tag@1@ABU?$iterator@Ubidirectional_iterator_tag@std@@U?$pair@$$CBV?$basic_string@DU?$char_traits@D@std@@V?$allocator@D@2@@std@@UFRIENDINFO@CFriendMgr@@@2@H@1@@Z 00428e40 f i FriendMgr.obj
 0001:00027e60       ?_Distance@std@@YAXViterator@?$_Tree@V?$basic_string@DU?$char_traits@D@std@@V?$allocator@D@2@@std@@U?$pair@$$CBV?$basic_string@DU?$char_traits@D@std@@V?$allocator@D@2@@std@@UFRIENDINFO@CFriendMgr@@@2@U_Kfn@?$map@V?$basic_string@DU?$char_traits@D@std@@V?$allocator@D@2@@std@@UFRIENDINFO@CFriendMgr@@U_tstring_less@@V?$allocator@UFRIENDINFO@CFriendMgr@@@2@@2@U_tstring_less@@V?$allocator@UFRIENDINFO@CFriendMgr@@@2@@1@0AAIUbidirectional_iterator_tag@1@@Z 00428e60 f i FriendMgr.obj
 0001:00027ea0       ??0CGatewayCenter@@QAE@XZ  00428ea0 f   GatewayCenter.obj
 0001:00027ebf       ??1CGatewayCenter@@UAE@XZ  00428ebf f   GatewayCenter.obj
 0001:00027edb       ?TraceInfo@CGatewayCenter@@QAEHXZ 00428edb f   GatewayCenter.obj
 0001:00027ff0       ??_ECGatewayCenter@@UAEPAXI@Z 00428ff0 f i GatewayCenter.obj
 0001:00027ff0       ??_GCGatewayCenter@@UAEPAXI@Z 00428ff0 f i GatewayCenter.obj
 0001:00028020       ??0CGatewayClient@@QAE@PAVCGatewayCenter@@H@Z 00429020 f   GatewayClient.obj
 0001:000280a3       ??1CGatewayClient@@UAE@XZ  004290a3 f   GatewayClient.obj
 0001:00028106       ?RecvPackage@CGatewayClient@@MAEXPBXI@Z 00429106 f   GatewayClient.obj
 0001:0002813b       ?OnServerEventCreate@CGatewayClient@@MAEXXZ 0042913b f   GatewayClient.obj
 0001:0002816f       ?OnServerEventClose@CGatewayClient@@MAEXXZ 0042916f f   GatewayClient.obj
 0001:00028474       ?Proc0_NotifySvrIP@CGatewayClient@@AAEXPBXI@Z 00429474 f   GatewayClient.obj
 0001:0002868b       ?PassAskWayMap@CGatewayClient@@QAEHKPBURELAY_ASKWAY_DATA@@@Z 0042968b f   GatewayClient.obj
 0001:000288e0       ??_ECGatewayClient@@UAEPAXI@Z 004298e0 f i GatewayClient.obj
 0001:000288e0       ??_GCGatewayClient@@UAEPAXI@Z 004298e0 f i GatewayClient.obj
 0001:00028910       ??1?$map@GUASKWAYMAP@CGatewayClient@@U?$less@G@std@@V?$allocator@UASKWAYMAP@CGatewayClient@@@4@@std@@QAE@XZ 00429910 f i GatewayClient.obj
 0001:00028930       ??0?$map@GUASKWAYMAP@CGatewayClient@@U?$less@G@std@@V?$allocator@UASKWAYMAP@CGatewayClient@@@4@@std@@QAE@ABU?$less@G@1@ABV?$allocator@UASKWAYMAP@CGatewayClient@@@1@@Z 00429930 f i GatewayClient.obj
 0001:00028960       ?begin@?$map@GUASKWAYMAP@CGatewayClient@@U?$less@G@std@@V?$allocator@UASKWAYMAP@CGatewayClient@@@4@@std@@QAE?AViterator@?$_Tree@GU?$pair@$$CBGUASKWAYMAP@CGatewayClient@@@std@@U_Kfn@?$map@GUASKWAYMAP@CGatewayClient@@U?$less@G@std@@V?$allocator@UASKWAYMAP@CGatewayClient@@@4@@2@U?$less@G@2@V?$allocator@UASKWAYMAP@CGatewayClient@@@2@@2@XZ 00429960 f i GatewayClient.obj
 0001:00028990       ?end@?$map@GUASKWAYMAP@CGatewayClient@@U?$less@G@std@@V?$allocator@UASKWAYMAP@CGatewayClient@@@4@@std@@QAE?AViterator@?$_Tree@GU?$pair@$$CBGUASKWAYMAP@CGatewayClient@@@std@@U_Kfn@?$map@GUASKWAYMAP@CGatewayClient@@U?$less@G@std@@V?$allocator@UASKWAYMAP@CGatewayClient@@@4@@2@U?$less@G@2@V?$allocator@UASKWAYMAP@CGatewayClient@@@2@@2@XZ 00429990 f i GatewayClient.obj
 0001:000289c0       ?size@?$map@GUASKWAYMAP@CGatewayClient@@U?$less@G@std@@V?$allocator@UASKWAYMAP@CGatewayClient@@@4@@std@@QBEIXZ 004299c0 f i GatewayClient.obj
 0001:000289e0       ?insert@?$map@GUASKWAYMAP@CGatewayClient@@U?$less@G@std@@V?$allocator@UASKWAYMAP@CGatewayClient@@@4@@std@@QAE?AU?$pair@Viterator@?$_Tree@GU?$pair@$$CBGUASKWAYMAP@CGatewayClient@@@std@@U_Kfn@?$map@GUASKWAYMAP@CGatewayClient@@U?$less@G@std@@V?$allocator@UASKWAYMAP@CGatewayClient@@@4@@2@U?$less@G@2@V?$allocator@UASKWAYMAP@CGatewayClient@@@2@@std@@_N@2@ABU?$pair@$$CBGUASKWAYMAP@CGatewayClient@@@2@@Z 004299e0 f i GatewayClient.obj
 0001:00028a30       ?erase@?$map@GUASKWAYMAP@CGatewayClient@@U?$less@G@std@@V?$allocator@UASKWAYMAP@CGatewayClient@@@4@@std@@QAE?AViterator@?$_Tree@GU?$pair@$$CBGUASKWAYMAP@CGatewayClient@@@std@@U_Kfn@?$map@GUASKWAYMAP@CGatewayClient@@U?$less@G@std@@V?$allocator@UASKWAYMAP@CGatewayClient@@@4@@2@U?$less@G@2@V?$allocator@UASKWAYMAP@CGatewayClient@@@2@@2@V342@@Z 00429a30 f i GatewayClient.obj
 0001:00028a60       ?clear@?$map@GUASKWAYMAP@CGatewayClient@@U?$less@G@std@@V?$allocator@UASKWAYMAP@CGatewayClient@@@4@@std@@QAEXXZ 00429a60 f i GatewayClient.obj
 0001:00028a80       ?find@?$map@GUASKWAYMAP@CGatewayClient@@U?$less@G@std@@V?$allocator@UASKWAYMAP@CGatewayClient@@@4@@std@@QAE?AViterator@?$_Tree@GU?$pair@$$CBGUASKWAYMAP@CGatewayClient@@@std@@U_Kfn@?$map@GUASKWAYMAP@CGatewayClient@@U?$less@G@std@@V?$allocator@UASKWAYMAP@CGatewayClient@@@4@@2@U?$less@G@2@V?$allocator@UASKWAYMAP@CGatewayClient@@@2@@2@ABG@Z 00429a80 f i GatewayClient.obj
 0001:00028ab0       ??1?$_Tree@GU?$pair@$$CBGUASKWAYMAP@CGatewayClient@@@std@@U_Kfn@?$map@GUASKWAYMAP@CGatewayClient@@U?$less@G@std@@V?$allocator@UASKWAYMAP@CGatewayClient@@@4@@2@U?$less@G@2@V?$allocator@UASKWAYMAP@CGatewayClient@@@2@@std@@QAE@XZ 00429ab0 f i GatewayClient.obj
 0001:00028b80       ??0?$pair@$$CBGUASKWAYMAP@CGatewayClient@@@std@@QAE@ABGABUASKWAYMAP@CGatewayClient@@@Z 00429b80 f i GatewayClient.obj
 0001:00028bc0       ??Diterator@?$_Tree@GU?$pair@$$CBGUASKWAYMAP@CGatewayClient@@@std@@U_Kfn@?$map@GUASKWAYMAP@CGatewayClient@@U?$less@G@std@@V?$allocator@UASKWAYMAP@CGatewayClient@@@4@@2@U?$less@G@2@V?$allocator@UASKWAYMAP@CGatewayClient@@@2@@std@@QBEAAU?$pair@$$CBGUASKWAYMAP@CGatewayClient@@@2@XZ 00429bc0 f i GatewayClient.obj
 0001:00028be0       ??Eiterator@?$_Tree@GU?$pair@$$CBGUASKWAYMAP@CGatewayClient@@@std@@U_Kfn@?$map@GUASKWAYMAP@CGatewayClient@@U?$less@G@std@@V?$allocator@UASKWAYMAP@CGatewayClient@@@4@@2@U?$less@G@2@V?$allocator@UASKWAYMAP@CGatewayClient@@@2@@std@@QAE?AV012@H@Z 00429be0 f i GatewayClient.obj
 0001:00028c10       ??8iterator@?$_Tree@GU?$pair@$$CBGUASKWAYMAP@CGatewayClient@@@std@@U_Kfn@?$map@GUASKWAYMAP@CGatewayClient@@U?$less@G@std@@V?$allocator@UASKWAYMAP@CGatewayClient@@@4@@2@U?$less@G@2@V?$allocator@UASKWAYMAP@CGatewayClient@@@2@@std@@QBE_NABV012@@Z 00429c10 f i GatewayClient.obj
 0001:00028c30       ??9iterator@?$_Tree@GU?$pair@$$CBGUASKWAYMAP@CGatewayClient@@@std@@U_Kfn@?$map@GUASKWAYMAP@CGatewayClient@@U?$less@G@std@@V?$allocator@UASKWAYMAP@CGatewayClient@@@4@@2@U?$less@G@2@V?$allocator@UASKWAYMAP@CGatewayClient@@@2@@std@@QBE_NABV012@@Z 00429c30 f i GatewayClient.obj
 0001:00028c60       ?_Value@?$_Tree@GU?$pair@$$CBGUASKWAYMAP@CGatewayClient@@@std@@U_Kfn@?$map@GUASKWAYMAP@CGatewayClient@@U?$less@G@std@@V?$allocator@UASKWAYMAP@CGatewayClient@@@4@@2@U?$less@G@2@V?$allocator@UASKWAYMAP@CGatewayClient@@@2@@std@@KAAAU?$pair@$$CBGUASKWAYMAP@CGatewayClient@@@2@PAU_Node@12@@Z 00429c60 f i GatewayClient.obj
 0001:00028c70       ??0?$_Tree@GU?$pair@$$CBGUASKWAYMAP@CGatewayClient@@@std@@U_Kfn@?$map@GUASKWAYMAP@CGatewayClient@@U?$less@G@std@@V?$allocator@UASKWAYMAP@CGatewayClient@@@4@@2@U?$less@G@2@V?$allocator@UASKWAYMAP@CGatewayClient@@@2@@std@@QAE@ABU?$less@G@1@_NABV?$allocator@UASKWAYMAP@CGatewayClient@@@1@@Z 00429c70 f i GatewayClient.obj
 0001:00028cb0       ?begin@?$_Tree@GU?$pair@$$CBGUASKWAYMAP@CGatewayClient@@@std@@U_Kfn@?$map@GUASKWAYMAP@CGatewayClient@@U?$less@G@std@@V?$allocator@UASKWAYMAP@CGatewayClient@@@4@@2@U?$less@G@2@V?$allocator@UASKWAYMAP@CGatewayClient@@@2@@std@@QAE?AViterator@12@XZ 00429cb0 f i GatewayClient.obj
 0001:00028ce0       ?end@?$_Tree@GU?$pair@$$CBGUASKWAYMAP@CGatewayClient@@@std@@U_Kfn@?$map@GUASKWAYMAP@CGatewayClient@@U?$less@G@std@@V?$allocator@UASKWAYMAP@CGatewayClient@@@4@@2@U?$less@G@2@V?$allocator@UASKWAYMAP@CGatewayClient@@@2@@std@@QAE?AViterator@12@XZ 00429ce0 f i GatewayClient.obj
 0001:00028d10       ?size@?$_Tree@GU?$pair@$$CBGUASKWAYMAP@CGatewayClient@@@std@@U_Kfn@?$map@GUASKWAYMAP@CGatewayClient@@U?$less@G@std@@V?$allocator@UASKWAYMAP@CGatewayClient@@@4@@2@U?$less@G@2@V?$allocator@UASKWAYMAP@CGatewayClient@@@2@@std@@QBEIXZ 00429d10 f i GatewayClient.obj
 0001:00028d30       ?insert@?$_Tree@GU?$pair@$$CBGUASKWAYMAP@CGatewayClient@@@std@@U_Kfn@?$map@GUASKWAYMAP@CGatewayClient@@U?$less@G@std@@V?$allocator@UASKWAYMAP@CGatewayClient@@@4@@2@U?$less@G@2@V?$allocator@UASKWAYMAP@CGatewayClient@@@2@@std@@QAE?AU?$pair@Viterator@?$_Tree@GU?$pair@$$CBGUASKWAYMAP@CGatewayClient@@@std@@U_Kfn@?$map@GUASKWAYMAP@CGatewayClient@@U?$less@G@std@@V?$allocator@UASKWAYMAP@CGatewayClient@@@4@@2@U?$less@G@2@V?$allocator@UASKWAYMAP@CGatewayClient@@@2@@std@@_N@2@ABU?$pair@$$CBGUASKWAYMAP@CGatewayClient@@@2@@Z 00429d30 f i GatewayClient.obj
 0001:00028f70       ?erase@?$_Tree@GU?$pair@$$CBGUASKWAYMAP@CGatewayClient@@@std@@U_Kfn@?$map@GUASKWAYMAP@CGatewayClient@@U?$less@G@std@@V?$allocator@UASKWAYMAP@CGatewayClient@@@4@@2@U?$less@G@2@V?$allocator@UASKWAYMAP@CGatewayClient@@@2@@std@@QAE?AViterator@12@V312@@Z 00429f70 f i GatewayClient.obj
 0001:000297c0       ?erase@?$_Tree@GU?$pair@$$CBGUASKWAYMAP@CGatewayClient@@@std@@U_Kfn@?$map@GUASKWAYMAP@CGatewayClient@@U?$less@G@std@@V?$allocator@UASKWAYMAP@CGatewayClient@@@4@@2@U?$less@G@2@V?$allocator@UASKWAYMAP@CGatewayClient@@@2@@std@@QAE?AViterator@12@V312@0@Z 0042a7c0 f i GatewayClient.obj
 0001:00029900       ?clear@?$_Tree@GU?$pair@$$CBGUASKWAYMAP@CGatewayClient@@@std@@U_Kfn@?$map@GUASKWAYMAP@CGatewayClient@@U?$less@G@std@@V?$allocator@UASKWAYMAP@CGatewayClient@@@4@@2@U?$less@G@2@V?$allocator@UASKWAYMAP@CGatewayClient@@@2@@std@@QAEXXZ 0042a900 f i GatewayClient.obj
 0001:00029940       ?find@?$_Tree@GU?$pair@$$CBGUASKWAYMAP@CGatewayClient@@@std@@U_Kfn@?$map@GUASKWAYMAP@CGatewayClient@@U?$less@G@std@@V?$allocator@UASKWAYMAP@CGatewayClient@@@4@@2@U?$less@G@2@V?$allocator@UASKWAYMAP@CGatewayClient@@@2@@std@@QAE?AViterator@12@ABG@Z 0042a940 f i GatewayClient.obj
 0001:000299e0       ?_Freenode@?$_Tree@GU?$pair@$$CBGUASKWAYMAP@CGatewayClient@@@std@@U_Kfn@?$map@GUASKWAYMAP@CGatewayClient@@U?$less@G@std@@V?$allocator@UASKWAYMAP@CGatewayClient@@@4@@2@U?$less@G@2@V?$allocator@UASKWAYMAP@CGatewayClient@@@2@@std@@IAEXPAU_Node@12@@Z 0042a9e0 f i GatewayClient.obj
 0001:00029a00       ??Eiterator@?$_Tree@GU?$pair@$$CBGUASKWAYMAP@CGatewayClient@@@std@@U_Kfn@?$map@GUASKWAYMAP@CGatewayClient@@U?$less@G@std@@V?$allocator@UASKWAYMAP@CGatewayClient@@@4@@2@U?$less@G@2@V?$allocator@UASKWAYMAP@CGatewayClient@@@2@@std@@QAEAAV012@XZ 0042aa00 f i GatewayClient.obj
 0001:00029a20       ??0?$pair@Viterator@?$_Tree@GU?$pair@$$CBGUASKWAYMAP@CGatewayClient@@@std@@U_Kfn@?$map@GUASKWAYMAP@CGatewayClient@@U?$less@G@std@@V?$allocator@UASKWAYMAP@CGatewayClient@@@4@@2@U?$less@G@2@V?$allocator@UASKWAYMAP@CGatewayClient@@@2@@std@@_N@std@@QAE@ABViterator@?$_Tree@GU?$pair@$$CBGUASKWAYMAP@CGatewayClient@@@std@@U_Kfn@?$map@GUASKWAYMAP@CGatewayClient@@U?$less@G@std@@V?$allocator@UASKWAYMAP@CGatewayClient@@@4@@2@U?$less@G@2@V?$allocator@UASKWAYMAP@CGatewayClient@@@2@@1@AB_N@Z 0042aa20 f i GatewayClient.obj
 0001:00029a50       ??R_Kfn@?$map@GUASKWAYMAP@CGatewayClient@@U?$less@G@std@@V?$allocator@UASKWAYMAP@CGatewayClient@@@4@@std@@QBEABGABU?$pair@$$CBGUASKWAYMAP@CGatewayClient@@@2@@Z 0042aa50 f i GatewayClient.obj
 0001:00029a60       ??R?$less@G@std@@QBE_NABG0@Z 0042aa60 f i GatewayClient.obj
 0001:00029a90       ?deallocate@?$allocator@UASKWAYMAP@CGatewayClient@@@std@@QAEXPAXI@Z 0042aa90 f i GatewayClient.obj
 0001:00029ab0       ?_Color@?$_Tree@GU?$pair@$$CBGUASKWAYMAP@CGatewayClient@@@std@@U_Kfn@?$map@GUASKWAYMAP@CGatewayClient@@U?$less@G@std@@V?$allocator@UASKWAYMAP@CGatewayClient@@@4@@2@U?$less@G@2@V?$allocator@UASKWAYMAP@CGatewayClient@@@2@@std@@KAAAW4_Redbl@12@PAU_Node@12@@Z 0042aab0 f i GatewayClient.obj
 0001:00029ac0       ?_Key@?$_Tree@GU?$pair@$$CBGUASKWAYMAP@CGatewayClient@@@std@@U_Kfn@?$map@GUASKWAYMAP@CGatewayClient@@U?$less@G@std@@V?$allocator@UASKWAYMAP@CGatewayClient@@@4@@2@U?$less@G@2@V?$allocator@UASKWAYMAP@CGatewayClient@@@2@@std@@KAABGPAU_Node@12@@Z 0042aac0 f i GatewayClient.obj
 0001:00029ae0       ?_Left@?$_Tree@GU?$pair@$$CBGUASKWAYMAP@CGatewayClient@@@std@@U_Kfn@?$map@GUASKWAYMAP@CGatewayClient@@U?$less@G@std@@V?$allocator@UASKWAYMAP@CGatewayClient@@@4@@2@U?$less@G@2@V?$allocator@UASKWAYMAP@CGatewayClient@@@2@@std@@KAAAPAU_Node@12@PAU312@@Z 0042aae0 f i GatewayClient.obj
 0001:00029af0       ?_Parent@?$_Tree@GU?$pair@$$CBGUASKWAYMAP@CGatewayClient@@@std@@U_Kfn@?$map@GUASKWAYMAP@CGatewayClient@@U?$less@G@std@@V?$allocator@UASKWAYMAP@CGatewayClient@@@4@@2@U?$less@G@2@V?$allocator@UASKWAYMAP@CGatewayClient@@@2@@std@@KAAAPAU_Node@12@PAU312@@Z 0042aaf0 f i GatewayClient.obj
 0001:00029b00       ?_Right@?$_Tree@GU?$pair@$$CBGUASKWAYMAP@CGatewayClient@@@std@@U_Kfn@?$map@GUASKWAYMAP@CGatewayClient@@U?$less@G@std@@V?$allocator@UASKWAYMAP@CGatewayClient@@@4@@2@U?$less@G@2@V?$allocator@UASKWAYMAP@CGatewayClient@@@2@@std@@KAAAPAU_Node@12@PAU312@@Z 0042ab00 f i GatewayClient.obj
 0001:00029b10       ?lower_bound@?$_Tree@GU?$pair@$$CBGUASKWAYMAP@CGatewayClient@@@std@@U_Kfn@?$map@GUASKWAYMAP@CGatewayClient@@U?$less@G@std@@V?$allocator@UASKWAYMAP@CGatewayClient@@@4@@2@U?$less@G@2@V?$allocator@UASKWAYMAP@CGatewayClient@@@2@@std@@QAE?AViterator@12@ABG@Z 0042ab10 f i GatewayClient.obj
 0001:00029b40       ?_Erase@?$_Tree@GU?$pair@$$CBGUASKWAYMAP@CGatewayClient@@@std@@U_Kfn@?$map@GUASKWAYMAP@CGatewayClient@@U?$less@G@std@@V?$allocator@UASKWAYMAP@CGatewayClient@@@4@@2@U?$less@G@2@V?$allocator@UASKWAYMAP@CGatewayClient@@@2@@std@@IAEXPAU_Node@12@@Z 0042ab40 f i GatewayClient.obj
 0001:00029bf0       ?_Init@?$_Tree@GU?$pair@$$CBGUASKWAYMAP@CGatewayClient@@@std@@U_Kfn@?$map@GUASKWAYMAP@CGatewayClient@@U?$less@G@std@@V?$allocator@UASKWAYMAP@CGatewayClient@@@4@@2@U?$less@G@2@V?$allocator@UASKWAYMAP@CGatewayClient@@@2@@std@@IAEXXZ 0042abf0 f i GatewayClient.obj
 0001:00029cd0       ?_Insert@?$_Tree@GU?$pair@$$CBGUASKWAYMAP@CGatewayClient@@@std@@U_Kfn@?$map@GUASKWAYMAP@CGatewayClient@@U?$less@G@std@@V?$allocator@UASKWAYMAP@CGatewayClient@@@4@@2@U?$less@G@2@V?$allocator@UASKWAYMAP@CGatewayClient@@@2@@std@@IAE?AViterator@12@PAU_Node@12@0ABU?$pair@$$CBGUASKWAYMAP@CGatewayClient@@@2@@Z 0042acd0 f i GatewayClient.obj
 0001:0002a1a0       ?_Lmost@?$_Tree@GU?$pair@$$CBGUASKWAYMAP@CGatewayClient@@@std@@U_Kfn@?$map@GUASKWAYMAP@CGatewayClient@@U?$less@G@std@@V?$allocator@UASKWAYMAP@CGatewayClient@@@4@@2@U?$less@G@2@V?$allocator@UASKWAYMAP@CGatewayClient@@@2@@std@@IAEAAPAU_Node@12@XZ 0042b1a0 f i GatewayClient.obj
 0001:0002a1c0       ?_Lrotate@?$_Tree@GU?$pair@$$CBGUASKWAYMAP@CGatewayClient@@@std@@U_Kfn@?$map@GUASKWAYMAP@CGatewayClient@@U?$less@G@std@@V?$allocator@UASKWAYMAP@CGatewayClient@@@4@@2@U?$less@G@2@V?$allocator@UASKWAYMAP@CGatewayClient@@@2@@std@@IAEXPAU_Node@12@@Z 0042b1c0 f i GatewayClient.obj
 0001:0002a330       ?_Max@?$_Tree@GU?$pair@$$CBGUASKWAYMAP@CGatewayClient@@@std@@U_Kfn@?$map@GUASKWAYMAP@CGatewayClient@@U?$less@G@std@@V?$allocator@UASKWAYMAP@CGatewayClient@@@4@@2@U?$less@G@2@V?$allocator@UASKWAYMAP@CGatewayClient@@@2@@std@@KAPAU_Node@12@PAU312@@Z 0042b330 f i GatewayClient.obj
 0001:0002a3b0       ?_Min@?$_Tree@GU?$pair@$$CBGUASKWAYMAP@CGatewayClient@@@std@@U_Kfn@?$map@GUASKWAYMAP@CGatewayClient@@U?$less@G@std@@V?$allocator@UASKWAYMAP@CGatewayClient@@@4@@2@U?$less@G@2@V?$allocator@UASKWAYMAP@CGatewayClient@@@2@@std@@KAPAU_Node@12@PAU312@@Z 0042b3b0 f i GatewayClient.obj
 0001:0002a430       ?_Rmost@?$_Tree@GU?$pair@$$CBGUASKWAYMAP@CGatewayClient@@@std@@U_Kfn@?$map@GUASKWAYMAP@CGatewayClient@@U?$less@G@std@@V?$allocator@UASKWAYMAP@CGatewayClient@@@4@@2@U?$less@G@2@V?$allocator@UASKWAYMAP@CGatewayClient@@@2@@std@@IAEAAPAU_Node@12@XZ 0042b430 f i GatewayClient.obj
 0001:0002a450       ?_Root@?$_Tree@GU?$pair@$$CBGUASKWAYMAP@CGatewayClient@@@std@@U_Kfn@?$map@GUASKWAYMAP@CGatewayClient@@U?$less@G@std@@V?$allocator@UASKWAYMAP@CGatewayClient@@@4@@2@U?$less@G@2@V?$allocator@UASKWAYMAP@CGatewayClient@@@2@@std@@IAEAAPAU_Node@12@XZ 0042b450 f i GatewayClient.obj
 0001:0002a470       ?_Rrotate@?$_Tree@GU?$pair@$$CBGUASKWAYMAP@CGatewayClient@@@std@@U_Kfn@?$map@GUASKWAYMAP@CGatewayClient@@U?$less@G@std@@V?$allocator@UASKWAYMAP@CGatewayClient@@@4@@2@U?$less@G@2@V?$allocator@UASKWAYMAP@CGatewayClient@@@2@@std@@IAEXPAU_Node@12@@Z 0042b470 f i GatewayClient.obj
 0001:0002a5e0       ?_Destval@?$_Tree@GU?$pair@$$CBGUASKWAYMAP@CGatewayClient@@@std@@U_Kfn@?$map@GUASKWAYMAP@CGatewayClient@@U?$less@G@std@@V?$allocator@UASKWAYMAP@CGatewayClient@@@4@@2@U?$less@G@2@V?$allocator@UASKWAYMAP@CGatewayClient@@@2@@std@@IAEXPAU?$pair@$$CBGUASKWAYMAP@CGatewayClient@@@2@@Z 0042b5e0 f i GatewayClient.obj
 0001:0002a600       ?_Inc@const_iterator@?$_Tree@GU?$pair@$$CBGUASKWAYMAP@CGatewayClient@@@std@@U_Kfn@?$map@GUASKWAYMAP@CGatewayClient@@U?$less@G@std@@V?$allocator@UASKWAYMAP@CGatewayClient@@@4@@2@U?$less@G@2@V?$allocator@UASKWAYMAP@CGatewayClient@@@2@@std@@QAEXXZ 0042b600 f i GatewayClient.obj
 0001:0002a6e0       ?_Mynode@const_iterator@?$_Tree@GU?$pair@$$CBGUASKWAYMAP@CGatewayClient@@@std@@U_Kfn@?$map@GUASKWAYMAP@CGatewayClient@@U?$less@G@std@@V?$allocator@UASKWAYMAP@CGatewayClient@@@4@@2@U?$less@G@2@V?$allocator@UASKWAYMAP@CGatewayClient@@@2@@std@@QBEPAU_Node@23@XZ 0042b6e0 f i GatewayClient.obj
 0001:0002a6f0       ??0iterator@?$_Tree@GU?$pair@$$CBGUASKWAYMAP@CGatewayClient@@@std@@U_Kfn@?$map@GUASKWAYMAP@CGatewayClient@@U?$less@G@std@@V?$allocator@UASKWAYMAP@CGatewayClient@@@4@@2@U?$less@G@2@V?$allocator@UASKWAYMAP@CGatewayClient@@@2@@std@@QAE@PAU_Node@12@@Z 0042b6f0 f i GatewayClient.obj
 0001:0002a710       ??Fiterator@?$_Tree@GU?$pair@$$CBGUASKWAYMAP@CGatewayClient@@@std@@U_Kfn@?$map@GUASKWAYMAP@CGatewayClient@@U?$less@G@std@@V?$allocator@UASKWAYMAP@CGatewayClient@@@4@@2@U?$less@G@2@V?$allocator@UASKWAYMAP@CGatewayClient@@@2@@std@@QAEAAV012@XZ 0042b710 f i GatewayClient.obj
 0001:0002a730       ?_Lbound@?$_Tree@GU?$pair@$$CBGUASKWAYMAP@CGatewayClient@@@std@@U_Kfn@?$map@GUASKWAYMAP@CGatewayClient@@U?$less@G@std@@V?$allocator@UASKWAYMAP@CGatewayClient@@@4@@2@U?$less@G@2@V?$allocator@UASKWAYMAP@CGatewayClient@@@2@@std@@IBEPAU_Node@12@ABG@Z 0042b730 f i GatewayClient.obj
 0001:0002a800       ?_Buynode@?$_Tree@GU?$pair@$$CBGUASKWAYMAP@CGatewayClient@@@std@@U_Kfn@?$map@GUASKWAYMAP@CGatewayClient@@U?$less@G@std@@V?$allocator@UASKWAYMAP@CGatewayClient@@@4@@2@U?$less@G@2@V?$allocator@UASKWAYMAP@CGatewayClient@@@2@@std@@IAEPAU_Node@12@PAU312@W4_Redbl@12@@Z 0042b800 f i GatewayClient.obj
 0001:0002a850       ?_Consval@?$_Tree@GU?$pair@$$CBGUASKWAYMAP@CGatewayClient@@@std@@U_Kfn@?$map@GUASKWAYMAP@CGatewayClient@@U?$less@G@std@@V?$allocator@UASKWAYMAP@CGatewayClient@@@4@@2@U?$less@G@2@V?$allocator@UASKWAYMAP@CGatewayClient@@@2@@std@@IAEXPAU?$pair@$$CBGUASKWAYMAP@CGatewayClient@@@2@ABU32@@Z 0042b850 f i GatewayClient.obj
 0001:0002a870       ??0const_iterator@?$_Tree@GU?$pair@$$CBGUASKWAYMAP@CGatewayClient@@@std@@U_Kfn@?$map@GUASKWAYMAP@CGatewayClient@@U?$less@G@std@@V?$allocator@UASKWAYMAP@CGatewayClient@@@4@@2@U?$less@G@2@V?$allocator@UASKWAYMAP@CGatewayClient@@@2@@std@@QAE@PAU_Node@12@@Z 0042b870 f i GatewayClient.obj
 0001:0002a890       ?_Dec@const_iterator@?$_Tree@GU?$pair@$$CBGUASKWAYMAP@CGatewayClient@@@std@@U_Kfn@?$map@GUASKWAYMAP@CGatewayClient@@U?$less@G@std@@V?$allocator@UASKWAYMAP@CGatewayClient@@@4@@2@U?$less@G@2@V?$allocator@UASKWAYMAP@CGatewayClient@@@2@@std@@QAEXXZ 0042b890 f i GatewayClient.obj
 0001:0002a9a0       ?_Charalloc@?$allocator@UASKWAYMAP@CGatewayClient@@@std@@QAEPADI@Z 0042b9a0 f i GatewayClient.obj
 0001:0002a9c0       ?_Root@?$_Tree@GU?$pair@$$CBGUASKWAYMAP@CGatewayClient@@@std@@U_Kfn@?$map@GUASKWAYMAP@CGatewayClient@@U?$less@G@std@@V?$allocator@UASKWAYMAP@CGatewayClient@@@4@@2@U?$less@G@2@V?$allocator@UASKWAYMAP@CGatewayClient@@@2@@std@@IBEAAPAU_Node@12@XZ 0042b9c0 f i GatewayClient.obj
 0001:0002a9e0       ?swap@std@@YAXAAW4_Redbl@?$_Tree@GU?$pair@$$CBGUASKWAYMAP@CGatewayClient@@@std@@U_Kfn@?$map@GUASKWAYMAP@CGatewayClient@@U?$less@G@std@@V?$allocator@UASKWAYMAP@CGatewayClient@@@4@@2@U?$less@G@2@V?$allocator@UASKWAYMAP@CGatewayClient@@@2@@1@0@Z 0042b9e0 f i GatewayClient.obj
 0001:0002aa10       ?_Destroy@std@@YAXPAU?$pair@$$CBGUASKWAYMAP@CGatewayClient@@@1@@Z 0042ba10 f i GatewayClient.obj
 0001:0002aa20       ?_Construct@std@@YAXPAU?$pair@$$CBGUASKWAYMAP@CGatewayClient@@@1@ABU21@@Z 0042ba20 f i GatewayClient.obj
 0001:0002aef3       ?gGetLocateDirectory@@YA?AV?$basic_string@DU?$char_traits@D@std@@V?$allocator@D@2@@std@@XZ 0042bef3 f   Global.obj
 0001:0002af4f       ??0_LOCALDIR@?1??gGetLocateDirectory@@YA?AV?$basic_string@DU?$char_traits@D@std@@V?$allocator@D@2@@std@@XZ@QAE@XZ 0042bf4f f   Global.obj
 0001:0002b012       ?gGetPrivateProfileStringEx@@YA?AV?$basic_string@DU?$char_traits@D@std@@V?$allocator@D@2@@std@@PBD000@Z 0042c012 f   Global.obj
 0001:0002b10c       ?gGetPrivateProfileIntEx@@YAHPBD00H@Z 0042c10c f   Global.obj
 0001:0002b1a1       ?gGetPrivateProfileCharEx@@YADPBD00D@Z 0042c1a1 f   Global.obj
 0001:0002b22e       ?gGetPrivateProfileSectionEx@@YAABV?$vector@V?$basic_string@DU?$char_traits@D@std@@V?$allocator@D@2@@std@@V?$allocator@V?$basic_string@DU?$char_traits@D@std@@V?$allocator@D@2@@std@@@2@@std@@PBD0@Z 0042c22e f   Global.obj
 0001:0002b3c0       ?gGetPrivateProfileSectionNamesEx@@YAABV?$vector@V?$basic_string@DU?$char_traits@D@std@@V?$allocator@D@2@@std@@V?$allocator@V?$basic_string@DU?$char_traits@D@std@@V?$allocator@D@2@@std@@@2@@std@@PBD@Z 0042c3c0 f   Global.obj
 0001:0002b550       ?gInitialize@@YAHXZ        0042c550 f   Global.obj
 0001:0002bcc7       ?gUninitialize@@YAHXZ      0042ccc7 f   Global.obj
 0001:0002be0b       ?gIsLocalIP@@YAHK@Z        0042ce0b f   Global.obj
 0001:0002be24       ?gGetHostMac@@YAPBEHPAI@Z  0042ce24 f   Global.obj
 0001:0002beb0       ??0_MACSTORE@?1??gGetHostMac@@YAPBEHPAI@Z@QAE@XZ 0042ceb0 f   Global.obj
 0001:0002bf04       ?gGetHostIP@@YAKH@Z        0042cf04 f   Global.obj
 0001:0002bf64       ??0_IPSTORE@?1??gGetHostIP@@YAKH@Z@QAE@XZ 0042cf64 f   Global.obj
 0001:0002bfa8       ?gConnectToSibling@@YAHPBD@Z 0042cfa8 f   Global.obj
 0001:0002c079       ?gFillClntwayPckg@@YAIKKPBURELAY_ASKWAY_DATA@@IPAU1@I@Z 0042d079 f   Global.obj
 0001:0002c152       ?gFillLosewayPckg@@YAIKKPBXIPAXI@Z 0042d152 f   Global.obj
 0001:0002c1df       ?gIsLegalString@@YAHPBDII@Z 0042d1df f   Global.obj
 0001:0002c25c       ?g_String2Id@@YAKPBD@Z     0042d25c f   Global.obj
 0001:0002c2bc       ?gOnOneClientCreate@@YAHW4ONECLIENT@@@Z 0042d2bc f   Global.obj
 0001:0002c3b8       ?gOnOneClientClose@@YAHW4ONECLIENT@@@Z 0042d3b8 f   Global.obj
 0001:0002c55f       ?gReOneClient@@YAHW4ONECLIENT@@@Z 0042d55f f   Global.obj
 0001:0002c85d       ?gConsignClientSD@@YAHPAUIClient@@@Z 0042d85d f   Global.obj
 0001:0002c8aa       ?gStartFriendTimingUpdateDB@@YAHI@Z 0042d8aa f   Global.obj
 0001:0002c917       ?gStopFriendTimingUpdateDB@@YAHXZ 0042d917 f   Global.obj
 0001:0002c96d       ?gFriendTimingUpdateDB@@YAHXZ 0042d96d f   Global.obj
 0001:0002c9d0       __tcsrchr                  0042d9d0 f i Global.obj
 0001:0002c9f0       ??1_LOCALDIR@?1??gGetLocateDirectory@@YA?AV?$basic_string@DU?$char_traits@D@std@@V?$allocator@D@2@@std@@XZ@QAE@XZ 0042d9f0 f i Global.obj
 0001:0002ca10       ?gGetMacAndIPAddress@@YAHPAEPAK01KK@Z 0042da10 f i Global.obj
 0001:0002ccf0       ??4?$basic_string@DU?$char_traits@D@std@@V?$allocator@D@2@@std@@QAEAAV01@PBD@Z 0042dcf0 f i Global.obj
 0001:0002cd10       ??0?$vector@V?$basic_string@DU?$char_traits@D@std@@V?$allocator@D@2@@std@@V?$allocator@V?$basic_string@DU?$char_traits@D@std@@V?$allocator@D@2@@std@@@2@@std@@QAE@ABV?$allocator@V?$basic_string@DU?$char_traits@D@std@@V?$allocator@D@2@@std@@@1@@Z 0042dd10 f i Global.obj
 0001:0002cd50       ??1?$vector@V?$basic_string@DU?$char_traits@D@std@@V?$allocator@D@2@@std@@V?$allocator@V?$basic_string@DU?$char_traits@D@std@@V?$allocator@D@2@@std@@@2@@std@@QAE@XZ 0042dd50 f i Global.obj
 0001:0002cdb0       ?back@?$vector@V?$basic_string@DU?$char_traits@D@std@@V?$allocator@D@2@@std@@V?$allocator@V?$basic_string@DU?$char_traits@D@std@@V?$allocator@D@2@@std@@@2@@std@@QAEAAV?$basic_string@DU?$char_traits@D@std@@V?$allocator@D@2@@2@XZ 0042ddb0 f i Global.obj
 0001:0002cdd0       ?push_back@?$vector@V?$basic_string@DU?$char_traits@D@std@@V?$allocator@D@2@@std@@V?$allocator@V?$basic_string@DU?$char_traits@D@std@@V?$allocator@D@2@@std@@@2@@std@@QAEXABV?$basic_string@DU?$char_traits@D@std@@V?$allocator@D@2@@2@@Z 0042ddd0 f i Global.obj
 0001:0002ce00       ?clear@?$vector@V?$basic_string@DU?$char_traits@D@std@@V?$allocator@D@2@@std@@V?$allocator@V?$basic_string@DU?$char_traits@D@std@@V?$allocator@D@2@@std@@@2@@std@@QAEXXZ 0042de00 f i Global.obj
 0001:0002ce30       ?begin@?$vector@V?$basic_string@DU?$char_traits@D@std@@V?$allocator@D@2@@std@@V?$allocator@V?$basic_string@DU?$char_traits@D@std@@V?$allocator@D@2@@std@@@2@@std@@QAEPAV?$basic_string@DU?$char_traits@D@std@@V?$allocator@D@2@@2@XZ 0042de30 f i Global.obj
 0001:0002ce50       ?end@?$vector@V?$basic_string@DU?$char_traits@D@std@@V?$allocator@D@2@@std@@V?$allocator@V?$basic_string@DU?$char_traits@D@std@@V?$allocator@D@2@@std@@@2@@std@@QAEPAV?$basic_string@DU?$char_traits@D@std@@V?$allocator@D@2@@2@XZ 0042de50 f i Global.obj
 0001:0002ce70       ?insert@?$vector@V?$basic_string@DU?$char_traits@D@std@@V?$allocator@D@2@@std@@V?$allocator@V?$basic_string@DU?$char_traits@D@std@@V?$allocator@D@2@@std@@@2@@std@@QAEPAV?$basic_string@DU?$char_traits@D@std@@V?$allocator@D@2@@2@PAV32@ABV32@@Z 0042de70 f i Global.obj
 0001:0002cec0       ?erase@?$vector@V?$basic_string@DU?$char_traits@D@std@@V?$allocator@D@2@@std@@V?$allocator@V?$basic_string@DU?$char_traits@D@std@@V?$allocator@D@2@@std@@@2@@std@@QAEPAV?$basic_string@DU?$char_traits@D@std@@V?$allocator@D@2@@2@PAV32@0@Z 0042dec0 f i Global.obj
 0001:0002cf10       ?_Destroy@?$vector@V?$basic_string@DU?$char_traits@D@std@@V?$allocator@D@2@@std@@V?$allocator@V?$basic_string@DU?$char_traits@D@std@@V?$allocator@D@2@@std@@@2@@std@@IAEXPAV?$basic_string@DU?$char_traits@D@std@@V?$allocator@D@2@@2@0@Z 0042df10 f i Global.obj
 0001:0002cf40       ?insert@?$vector@V?$basic_string@DU?$char_traits@D@std@@V?$allocator@D@2@@std@@V?$allocator@V?$basic_string@DU?$char_traits@D@std@@V?$allocator@D@2@@std@@@2@@std@@QAEXPAV?$basic_string@DU?$char_traits@D@std@@V?$allocator@D@2@@2@IABV32@@Z 0042df40 f i Global.obj
 0001:0002d170       ?_Ucopy@?$vector@V?$basic_string@DU?$char_traits@D@std@@V?$allocator@D@2@@std@@V?$allocator@V?$basic_string@DU?$char_traits@D@std@@V?$allocator@D@2@@std@@@2@@std@@IAEPAV?$basic_string@DU?$char_traits@D@std@@V?$allocator@D@2@@2@PBV32@0PAV32@@Z 0042e170 f i Global.obj
 0001:0002d1b0       ?_Ufill@?$vector@V?$basic_string@DU?$char_traits@D@std@@V?$allocator@D@2@@std@@V?$allocator@V?$basic_string@DU?$char_traits@D@std@@V?$allocator@D@2@@std@@@2@@std@@IAEXPAV?$basic_string@DU?$char_traits@D@std@@V?$allocator@D@2@@2@IABV32@@Z 0042e1b0 f i Global.obj
 0001:0002d1f0       ?allocate@?$allocator@V?$basic_string@DU?$char_traits@D@std@@V?$allocator@D@2@@std@@@std@@QAEPAV?$basic_string@DU?$char_traits@D@std@@V?$allocator@D@2@@2@IPBX@Z 0042e1f0 f i Global.obj
 0001:0002d210       ??Hstd@@YA?AV?$basic_string@DU?$char_traits@D@std@@V?$allocator@D@2@@0@ABV10@PBD@Z 0042e210 f i Global.obj
 0001:0002d290       ?copy@std@@YAPAV?$basic_string@DU?$char_traits@D@std@@V?$allocator@D@2@@1@PAV21@00@Z 0042e290 f i Global.obj
 0001:0002d2d0       ?fill@std@@YAXPAV?$basic_string@DU?$char_traits@D@std@@V?$allocator@D@2@@1@0ABV21@@Z 0042e2d0 f i Global.obj
 0001:0002d300       ?copy_backward@std@@YAPAV?$basic_string@DU?$char_traits@D@std@@V?$allocator@D@2@@1@PAV21@00@Z 0042e300 f i Global.obj
 0001:0002d330       ?_Allocate@std@@YAPAV?$basic_string@DU?$char_traits@D@std@@V?$allocator@D@2@@1@HPAV21@@Z 0042e330 f i Global.obj
 0001:0002d360       ??0CHeavenLib@@QAE@XZ      0042e360 f   HeavenLib.obj
 0001:0002d38b       ??1CHeavenLib@@UAE@XZ      0042e38b f   HeavenLib.obj
 0001:0002d39f       ?Initialize@CHeavenLib@@QAEHXZ 0042e39f f   HeavenLib.obj
 0001:0002d3ff       ?Uninitialize@CHeavenLib@@QAEHXZ 0042e3ff f   HeavenLib.obj
 0001:0002d439       ?CreateInterface@CHeavenLib@@QAEJABU_GUID@@PAPAX@Z 0042e439 f   HeavenLib.obj
 0001:0002d490       ??_ECHeavenLib@@UAEPAXI@Z  0042e490 f i HeavenLib.obj
 0001:0002d490       ??_GCHeavenLib@@UAEPAXI@Z  0042e490 f i HeavenLib.obj
 0001:0002d4c0       ??0CHostConnect@@QAE@PAVCHostServer@@K@Z 0042e4c0 f   HostConnect.obj
 0001:0002d572       ??1CHostConnect@@UAE@XZ    0042e572 f   HostConnect.obj
 0001:0002d5fd       ?RecvPackage@CHostConnect@@MAEXPBXI@Z 0042e5fd f   HostConnect.obj
 0001:0002d669       ?Proc0_Normal@CHostConnect@@AAEXPBXI@Z 0042e669 f   HostConnect.obj
 0001:0002d6ba       ?Proc1_Normal_EnterGame@CHostConnect@@AAEXPBXI@Z 0042e6ba f   HostConnect.obj
 0001:0002d897       ?Proc1_Normal_LeaveGame@CHostConnect@@AAEXPBXI@Z 0042e897 f   HostConnect.obj
 0001:0002d9ad       ?Proc0_Relay@CHostConnect@@AAEXPBXI@Z 0042e9ad f   HostConnect.obj
 0001:0002da1d       ?Proc1_Relay_Data@CHostConnect@@AAEXPBXI@Z 0042ea1d f   HostConnect.obj
 0001:0002dc4c       ?Proc1_Relay_AskWay@CHostConnect@@AAEXPBXI@Z 0042ec4c f   HostConnect.obj
 0001:0002dce7       ?Proc1_Relay_LoseWay@CHostConnect@@AAEXPBXI@Z 0042ece7 f   HostConnect.obj
 0001:0002de77       ?Proc2_Relay_AskWay_AccountRoleID@CHostConnect@@AAEXPBXIH@Z 0042ee77 f   HostConnect.obj
 0001:0002e0f3       ?Proc2_Relay_AskWay_MapID@CHostConnect@@AAEXPBXI@Z 0042f0f3 f   HostConnect.obj
 0001:0002e14c       ?Proc2_Relay_AskWay_GM@CHostConnect@@AAEXPBXI@Z 0042f14c f   HostConnect.obj
 0001:0002e205       ?Proc0_PlayerCommunity@CHostConnect@@AAEXPBXI@Z 0042f205 f   HostConnect.obj
 0001:0002e275       ?Proc1_PlayerCommunity_QueryChannelID@CHostConnect@@AAEXPBXI@Z 0042f275 f   HostConnect.obj
 0001:0002e356       ?Proc1_PlayerCommunity_FreeChannelID@CHostConnect@@AAEXPBXI@Z 0042f356 f   HostConnect.obj
 0001:0002e3a1       ?Proc1_PlayerCommunity_Subscribe@CHostConnect@@AAEXPBXI@Z 0042f3a1 f   HostConnect.obj
 0001:0002e418       ?OnClientConnectCreate@CHostConnect@@MAEXXZ 0042f418 f   HostConnect.obj
 0001:0002e442       ?OnClientConnectClose@CHostConnect@@MAEXXZ 0042f442 f   HostConnect.obj
 0001:0002e564       ?FindPlayerByAcc@CHostConnect@@QAEHABV?$basic_string@DU?$char_traits@D@std@@V?$allocator@D@2@@std@@PAV23@PAK21@Z 0042f564 f   HostConnect.obj
 0001:0002e60e       ?FindPlayerByRole@CHostConnect@@QAEHABV?$basic_string@DU?$char_traits@D@std@@V?$allocator@D@2@@std@@PAV23@PAK21@Z 0042f60e f   HostConnect.obj
 0001:0002e6b8       ?FindPlayerByParam@CHostConnect@@QAEHKPAV?$basic_string@DU?$char_traits@D@std@@V?$allocator@D@2@@std@@0PAK@Z 0042f6b8 f   HostConnect.obj
 0001:0002e74f       ?PrepareRecvs@CHostConnect@@MAEXXZ 0042f74f f   HostConnect.obj
 0001:0002e75a       ?UnprepareRecvs@CHostConnect@@MAEXXZ 0042f75a f   HostConnect.obj
 0001:0002e771       ?GetPlayerCount@CHostConnect@@QAEIXZ 0042f771 f   HostConnect.obj
 0001:0002e7b0       ??_GCHostConnect@@UAEPAXI@Z 0042f7b0 f i HostConnect.obj
 0001:0002e7b0       ??_ECHostConnect@@UAEPAXI@Z 0042f7b0 f i HostConnect.obj
 0001:0002e7e0       ??1?$map@V?$basic_string@DU?$char_traits@D@std@@V?$allocator@D@2@@std@@UACCINFO@CHostConnect@@U_tstring_iless@@V?$allocator@UACCINFO@CHostConnect@@@2@@std@@QAE@XZ 0042f7e0 f i HostConnect.obj
 0001:0002e800       ??1?$map@V?$basic_string@DU?$char_traits@D@std@@V?$allocator@D@2@@std@@UROLEINFO@CHostConnect@@U_tstring_less@@V?$allocator@UROLEINFO@CHostConnect@@@2@@std@@QAE@XZ 0042f800 f i HostConnect.obj
 0001:0002e820       ??1?$map@KUPARAMINFO@CHostConnect@@U?$less@K@std@@V?$allocator@UPARAMINFO@CHostConnect@@@4@@std@@QAE@XZ 0042f820 f i HostConnect.obj
 0001:0002e840       ??0ACCINFO@CHostConnect@@QAE@XZ 0042f840 f i HostConnect.obj
 0001:0002e860       ??1ACCINFO@CHostConnect@@QAE@XZ 0042f860 f i HostConnect.obj
 0001:0002e880       ??0ROLEINFO@CHostConnect@@QAE@XZ 0042f880 f i HostConnect.obj
 0001:0002e8a0       ??1ROLEINFO@CHostConnect@@QAE@XZ 0042f8a0 f i HostConnect.obj
 0001:0002e8c0       ??0PARAMINFO@CHostConnect@@QAE@XZ 0042f8c0 f i HostConnect.obj
 0001:0002e920       ??1PARAMINFO@CHostConnect@@QAE@XZ 0042f920 f i HostConnect.obj
 0001:0002e970       ??4ACCINFO@CHostConnect@@QAEAAU01@ABU01@@Z 0042f970 f i HostConnect.obj
 0001:0002e9b0       ??4ROLEINFO@CHostConnect@@QAEAAU01@ABU01@@Z 0042f9b0 f i HostConnect.obj
 0001:0002e9f0       ??4PARAMINFO@CHostConnect@@QAEAAU01@ABU01@@Z 0042f9f0 f i HostConnect.obj
 0001:0002ea30       ?GetID@CNetConnect@@QBEKXZ 0042fa30 f i HostConnect.obj
 0001:0002ea50       ??0?$map@V?$basic_string@DU?$char_traits@D@std@@V?$allocator@D@2@@std@@UACCINFO@CHostConnect@@U_tstring_iless@@V?$allocator@UACCINFO@CHostConnect@@@2@@std@@QAE@ABU_tstring_iless@@ABV?$allocator@UACCINFO@CHostConnect@@@1@@Z 0042fa50 f i HostConnect.obj
 0001:0002ea80       ?end@?$map@V?$basic_string@DU?$char_traits@D@std@@V?$allocator@D@2@@std@@UACCINFO@CHostConnect@@U_tstring_iless@@V?$allocator@UACCINFO@CHostConnect@@@2@@std@@QAE?AViterator@?$_Tree@V?$basic_string@DU?$char_traits@D@std@@V?$allocator@D@2@@std@@U?$pair@$$CBV?$basic_string@DU?$char_traits@D@std@@V?$allocator@D@2@@std@@UACCINFO@CHostConnect@@@2@U_Kfn@?$map@V?$basic_string@DU?$char_traits@D@std@@V?$allocator@D@2@@std@@UACCINFO@CHostConnect@@U_tstring_iless@@V?$allocator@UACCINFO@CHostConnect@@@2@@2@U_tstring_iless@@V?$allocator@UACCINFO@CHostConnect@@@2@@2@XZ 0042fa80 f i HostConnect.obj
 0001:0002eab0       ??A?$map@V?$basic_string@DU?$char_traits@D@std@@V?$allocator@D@2@@std@@UACCINFO@CHostConnect@@U_tstring_iless@@V?$allocator@UACCINFO@CHostConnect@@@2@@std@@QAEAAUACCINFO@CHostConnect@@ABV?$basic_string@DU?$char_traits@D@std@@V?$allocator@D@2@@1@@Z 0042fab0 f i HostConnect.obj
 0001:0002eb50       ?erase@?$map@V?$basic_string@DU?$char_traits@D@std@@V?$allocator@D@2@@std@@UACCINFO@CHostConnect@@U_tstring_iless@@V?$allocator@UACCINFO@CHostConnect@@@2@@std@@QAE?AViterator@?$_Tree@V?$basic_string@DU?$char_traits@D@std@@V?$allocator@D@2@@std@@U?$pair@$$CBV?$basic_string@DU?$char_traits@D@std@@V?$allocator@D@2@@std@@UACCINFO@CHostConnect@@@2@U_Kfn@?$map@V?$basic_string@DU?$char_traits@D@std@@V?$allocator@D@2@@std@@UACCINFO@CHostConnect@@U_tstring_iless@@V?$allocator@UACCINFO@CHostConnect@@@2@@2@U_tstring_iless@@V?$allocator@UACCINFO@CHostConnect@@@2@@2@V342@@Z 0042fb50 f i HostConnect.obj
 0001:0002eb80       ?find@?$map@V?$basic_string@DU?$char_traits@D@std@@V?$allocator@D@2@@std@@UACCINFO@CHostConnect@@U_tstring_iless@@V?$allocator@UACCINFO@CHostConnect@@@2@@std@@QAE?AViterator@?$_Tree@V?$basic_string@DU?$char_traits@D@std@@V?$allocator@D@2@@std@@U?$pair@$$CBV?$basic_string@DU?$char_traits@D@std@@V?$allocator@D@2@@std@@UACCINFO@CHostConnect@@@2@U_Kfn@?$map@V?$basic_string@DU?$char_traits@D@std@@V?$allocator@D@2@@std@@UACCINFO@CHostConnect@@U_tstring_iless@@V?$allocator@UACCINFO@CHostConnect@@@2@@2@U_tstring_iless@@V?$allocator@UACCINFO@CHostConnect@@@2@@2@ABV?$basic_string@DU?$char_traits@D@std@@V?$allocator@D@2@@2@@Z 0042fb80 f i HostConnect.obj
 0001:0002ebb0       ??1?$_Tree@V?$basic_string@DU?$char_traits@D@std@@V?$allocator@D@2@@std@@U?$pair@$$CBV?$basic_string@DU?$char_traits@D@std@@V?$allocator@D@2@@std@@UACCINFO@CHostConnect@@@2@U_Kfn@?$map@V?$basic_string@DU?$char_traits@D@std@@V?$allocator@D@2@@std@@UACCINFO@CHostConnect@@U_tstring_iless@@V?$allocator@UACCINFO@CHostConnect@@@2@@2@U_tstring_iless@@V?$allocator@UACCINFO@CHostConnect@@@2@@std@@QAE@XZ 0042fbb0 f i HostConnect.obj
 0001:0002ec80       ??Diterator@?$_Tree@V?$basic_string@DU?$char_traits@D@std@@V?$allocator@D@2@@std@@U?$pair@$$CBV?$basic_string@DU?$char_traits@D@std@@V?$allocator@D@2@@std@@UACCINFO@CHostConnect@@@2@U_Kfn@?$map@V?$basic_string@DU?$char_traits@D@std@@V?$allocator@D@2@@std@@UACCINFO@CHostConnect@@U_tstring_iless@@V?$allocator@UACCINFO@CHostConnect@@@2@@2@U_tstring_iless@@V?$allocator@UACCINFO@CHostConnect@@@2@@std@@QBEAAU?$pair@$$CBV?$basic_string@DU?$char_traits@D@std@@V?$allocator@D@2@@std@@UACCINFO@CHostConnect@@@2@XZ 0042fc80 f i HostConnect.obj
 0001:0002eca0       ??8iterator@?$_Tree@V?$basic_string@DU?$char_traits@D@std@@V?$allocator@D@2@@std@@U?$pair@$$CBV?$basic_string@DU?$char_traits@D@std@@V?$allocator@D@2@@std@@UACCINFO@CHostConnect@@@2@U_Kfn@?$map@V?$basic_string@DU?$char_traits@D@std@@V?$allocator@D@2@@std@@UACCINFO@CHostConnect@@U_tstring_iless@@V?$allocator@UACCINFO@CHostConnect@@@2@@2@U_tstring_iless@@V?$allocator@UACCINFO@CHostConnect@@@2@@std@@QBE_NABV012@@Z 0042fca0 f i HostConnect.obj
 0001:0002ecc0       ??9iterator@?$_Tree@V?$basic_string@DU?$char_traits@D@std@@V?$allocator@D@2@@std@@U?$pair@$$CBV?$basic_string@DU?$char_traits@D@std@@V?$allocator@D@2@@std@@UACCINFO@CHostConnect@@@2@U_Kfn@?$map@V?$basic_string@DU?$char_traits@D@std@@V?$allocator@D@2@@std@@UACCINFO@CHostConnect@@U_tstring_iless@@V?$allocator@UACCINFO@CHostConnect@@@2@@2@U_tstring_iless@@V?$allocator@UACCINFO@CHostConnect@@@2@@std@@QBE_NABV012@@Z 0042fcc0 f i HostConnect.obj
 0001:0002ecf0       ??0?$map@V?$basic_string@DU?$char_traits@D@std@@V?$allocator@D@2@@std@@UROLEINFO@CHostConnect@@U_tstring_less@@V?$allocator@UROLEINFO@CHostConnect@@@2@@std@@QAE@ABU_tstring_less@@ABV?$allocator@UROLEINFO@CHostConnect@@@1@@Z 0042fcf0 f i HostConnect.obj
 0001:0002ed20       ?end@?$map@V?$basic_string@DU?$char_traits@D@std@@V?$allocator@D@2@@std@@UROLEINFO@CHostConnect@@U_tstring_less@@V?$allocator@UROLEINFO@CHostConnect@@@2@@std@@QAE?AViterator@?$_Tree@V?$basic_string@DU?$char_traits@D@std@@V?$allocator@D@2@@std@@U?$pair@$$CBV?$basic_string@DU?$char_traits@D@std@@V?$allocator@D@2@@std@@UROLEINFO@CHostConnect@@@2@U_Kfn@?$map@V?$basic_string@DU?$char_traits@D@std@@V?$allocator@D@2@@std@@UROLEINFO@CHostConnect@@U_tstring_less@@V?$allocator@UROLEINFO@CHostConnect@@@2@@2@U_tstring_less@@V?$allocator@UROLEINFO@CHostConnect@@@2@@2@XZ 0042fd20 f i HostConnect.obj
 0001:0002ed50       ?size@?$map@V?$basic_string@DU?$char_traits@D@std@@V?$allocator@D@2@@std@@UROLEINFO@CHostConnect@@U_tstring_less@@V?$allocator@UROLEINFO@CHostConnect@@@2@@std@@QBEIXZ 0042fd50 f i HostConnect.obj
 0001:0002ed70       ??A?$map@V?$basic_string@DU?$char_traits@D@std@@V?$allocator@D@2@@std@@UROLEINFO@CHostConnect@@U_tstring_less@@V?$allocator@UROLEINFO@CHostConnect@@@2@@std@@QAEAAUROLEINFO@CHostConnect@@ABV?$basic_string@DU?$char_traits@D@std@@V?$allocator@D@2@@1@@Z 0042fd70 f i HostConnect.obj
 0001:0002ee10       ?erase@?$map@V?$basic_string@DU?$char_traits@D@std@@V?$allocator@D@2@@std@@UROLEINFO@CHostConnect@@U_tstring_less@@V?$allocator@UROLEINFO@CHostConnect@@@2@@std@@QAEIABV?$basic_string@DU?$char_traits@D@std@@V?$allocator@D@2@@2@@Z 0042fe10 f i HostConnect.obj
 0001:0002ee30       ?find@?$map@V?$basic_string@DU?$char_traits@D@std@@V?$allocator@D@2@@std@@UROLEINFO@CHostConnect@@U_tstring_less@@V?$allocator@UROLEINFO@CHostConnect@@@2@@std@@QAE?AViterator@?$_Tree@V?$basic_string@DU?$char_traits@D@std@@V?$allocator@D@2@@std@@U?$pair@$$CBV?$basic_string@DU?$char_traits@D@std@@V?$allocator@D@2@@std@@UROLEINFO@CHostConnect@@@2@U_Kfn@?$map@V?$basic_string@DU?$char_traits@D@std@@V?$allocator@D@2@@std@@UROLEINFO@CHostConnect@@U_tstring_less@@V?$allocator@UROLEINFO@CHostConnect@@@2@@2@U_tstring_less@@V?$allocator@UROLEINFO@CHostConnect@@@2@@2@ABV?$basic_string@DU?$char_traits@D@std@@V?$allocator@D@2@@2@@Z 0042fe30 f i HostConnect.obj
 0001:0002ee60       ??1?$_Tree@V?$basic_string@DU?$char_traits@D@std@@V?$allocator@D@2@@std@@U?$pair@$$CBV?$basic_string@DU?$char_traits@D@std@@V?$allocator@D@2@@std@@UROLEINFO@CHostConnect@@@2@U_Kfn@?$map@V?$basic_string@DU?$char_traits@D@std@@V?$allocator@D@2@@std@@UROLEINFO@CHostConnect@@U_tstring_less@@V?$allocator@UROLEINFO@CHostConnect@@@2@@2@U_tstring_less@@V?$allocator@UROLEINFO@CHostConnect@@@2@@std@@QAE@XZ 0042fe60 f i HostConnect.obj
 0001:0002ef30       ??Diterator@?$_Tree@V?$basic_string@DU?$char_traits@D@std@@V?$allocator@D@2@@std@@U?$pair@$$CBV?$basic_string@DU?$char_traits@D@std@@V?$allocator@D@2@@std@@UROLEINFO@CHostConnect@@@2@U_Kfn@?$map@V?$basic_string@DU?$char_traits@D@std@@V?$allocator@D@2@@std@@UROLEINFO@CHostConnect@@U_tstring_less@@V?$allocator@UROLEINFO@CHostConnect@@@2@@2@U_tstring_less@@V?$allocator@UROLEINFO@CHostConnect@@@2@@std@@QBEAAU?$pair@$$CBV?$basic_string@DU?$char_traits@D@std@@V?$allocator@D@2@@std@@UROLEINFO@CHostConnect@@@2@XZ 0042ff30 f i HostConnect.obj
 0001:0002ef50       ??8iterator@?$_Tree@V?$basic_string@DU?$char_traits@D@std@@V?$allocator@D@2@@std@@U?$pair@$$CBV?$basic_string@DU?$char_traits@D@std@@V?$allocator@D@2@@std@@UROLEINFO@CHostConnect@@@2@U_Kfn@?$map@V?$basic_string@DU?$char_traits@D@std@@V?$allocator@D@2@@std@@UROLEINFO@CHostConnect@@U_tstring_less@@V?$allocator@UROLEINFO@CHostConnect@@@2@@2@U_tstring_less@@V?$allocator@UROLEINFO@CHostConnect@@@2@@std@@QBE_NABV012@@Z 0042ff50 f i HostConnect.obj
 0001:0002ef70       ??0?$map@KUPARAMINFO@CHostConnect@@U?$less@K@std@@V?$allocator@UPARAMINFO@CHostConnect@@@4@@std@@QAE@ABU?$less@K@1@ABV?$allocator@UPARAMINFO@CHostConnect@@@1@@Z 0042ff70 f i HostConnect.obj
 0001:0002efa0       ?end@?$map@KUPARAMINFO@CHostConnect@@U?$less@K@std@@V?$allocator@UPARAMINFO@CHostConnect@@@4@@std@@QAE?AViterator@?$_Tree@KU?$pair@$$CBKUPARAMINFO@CHostConnect@@@std@@U_Kfn@?$map@KUPARAMINFO@CHostConnect@@U?$less@K@std@@V?$allocator@UPARAMINFO@CHostConnect@@@4@@2@U?$less@K@2@V?$allocator@UPARAMINFO@CHostConnect@@@2@@2@XZ 0042ffa0 f i HostConnect.obj
 0001:0002efd0       ??A?$map@KUPARAMINFO@CHostConnect@@U?$less@K@std@@V?$allocator@UPARAMINFO@CHostConnect@@@4@@std@@QAEAAUPARAMINFO@CHostConnect@@ABK@Z 0042ffd0 f i HostConnect.obj
 0001:0002f070       ?erase@?$map@KUPARAMINFO@CHostConnect@@U?$less@K@std@@V?$allocator@UPARAMINFO@CHostConnect@@@4@@std@@QAEIABK@Z 00430070 f i HostConnect.obj
 0001:0002f090       ?find@?$map@KUPARAMINFO@CHostConnect@@U?$less@K@std@@V?$allocator@UPARAMINFO@CHostConnect@@@4@@std@@QAE?AViterator@?$_Tree@KU?$pair@$$CBKUPARAMINFO@CHostConnect@@@std@@U_Kfn@?$map@KUPARAMINFO@CHostConnect@@U?$less@K@std@@V?$allocator@UPARAMINFO@CHostConnect@@@4@@2@U?$less@K@2@V?$allocator@UPARAMINFO@CHostConnect@@@2@@2@ABK@Z 00430090 f i HostConnect.obj
 0001:0002f0c0       ??1?$_Tree@KU?$pair@$$CBKUPARAMINFO@CHostConnect@@@std@@U_Kfn@?$map@KUPARAMINFO@CHostConnect@@U?$less@K@std@@V?$allocator@UPARAMINFO@CHostConnect@@@4@@2@U?$less@K@2@V?$allocator@UPARAMINFO@CHostConnect@@@2@@std@@QAE@XZ 004300c0 f i HostConnect.obj
 0001:0002f190       ??Diterator@?$_Tree@KU?$pair@$$CBKUPARAMINFO@CHostConnect@@@std@@U_Kfn@?$map@KUPARAMINFO@CHostConnect@@U?$less@K@std@@V?$allocator@UPARAMINFO@CHostConnect@@@4@@2@U?$less@K@2@V?$allocator@UPARAMINFO@CHostConnect@@@2@@std@@QBEAAU?$pair@$$CBKUPARAMINFO@CHostConnect@@@2@XZ 00430190 f i HostConnect.obj
 0001:0002f1b0       ??8iterator@?$_Tree@KU?$pair@$$CBKUPARAMINFO@CHostConnect@@@std@@U_Kfn@?$map@KUPARAMINFO@CHostConnect@@U?$less@K@std@@V?$allocator@UPARAMINFO@CHostConnect@@@4@@2@U?$less@K@2@V?$allocator@UPARAMINFO@CHostConnect@@@2@@std@@QBE_NABV012@@Z 004301b0 f i HostConnect.obj
 0001:0002f1d0       ??1?$pair@$$CBV?$basic_string@DU?$char_traits@D@std@@V?$allocator@D@2@@std@@UACCINFO@CHostConnect@@@std@@QAE@XZ 004301d0 f i HostConnect.obj
 0001:0002f220       ??1?$pair@$$CBV?$basic_string@DU?$char_traits@D@std@@V?$allocator@D@2@@std@@UROLEINFO@CHostConnect@@@std@@QAE@XZ 00430220 f i HostConnect.obj
 0001:0002f270       ??1?$pair@$$CBKUPARAMINFO@CHostConnect@@@std@@QAE@XZ 00430270 f i HostConnect.obj
 0001:0002f290       ?insert@?$map@V?$basic_string@DU?$char_traits@D@std@@V?$allocator@D@2@@std@@UACCINFO@CHostConnect@@U_tstring_iless@@V?$allocator@UACCINFO@CHostConnect@@@2@@std@@QAE?AU?$pair@Viterator@?$_Tree@V?$basic_string@DU?$char_traits@D@std@@V?$allocator@D@2@@std@@U?$pair@$$CBV?$basic_string@DU?$char_traits@D@std@@V?$allocator@D@2@@std@@UACCINFO@CHostConnect@@@2@U_Kfn@?$map@V?$basic_string@DU?$char_traits@D@std@@V?$allocator@D@2@@std@@UACCINFO@CHostConnect@@U_tstring_iless@@V?$allocator@UACCINFO@CHostConnect@@@2@@2@U_tstring_iless@@V?$allocator@UACCINFO@CHostConnect@@@2@@std@@_N@2@ABU?$pair@$$CBV?$basic_string@DU?$char_traits@D@std@@V?$allocator@D@2@@std@@UACCINFO@CHostConnect@@@2@@Z 00430290 f i HostConnect.obj
 0001:0002f2e0       ?_Value@?$_Tree@V?$basic_string@DU?$char_traits@D@std@@V?$allocator@D@2@@std@@U?$pair@$$CBV?$basic_string@DU?$char_traits@D@std@@V?$allocator@D@2@@std@@UACCINFO@CHostConnect@@@2@U_Kfn@?$map@V?$basic_string@DU?$char_traits@D@std@@V?$allocator@D@2@@std@@UACCINFO@CHostConnect@@U_tstring_iless@@V?$allocator@UACCINFO@CHostConnect@@@2@@2@U_tstring_iless@@V?$allocator@UACCINFO@CHostConnect@@@2@@std@@KAAAU?$pair@$$CBV?$basic_string@DU?$char_traits@D@std@@V?$allocator@D@2@@std@@UACCINFO@CHostConnect@@@2@PAU_Node@12@@Z 004302e0 f i HostConnect.obj
 0001:0002f2f0       ??0?$_Tree@V?$basic_string@DU?$char_traits@D@std@@V?$allocator@D@2@@std@@U?$pair@$$CBV?$basic_string@DU?$char_traits@D@std@@V?$allocator@D@2@@std@@UACCINFO@CHostConnect@@@2@U_Kfn@?$map@V?$basic_string@DU?$char_traits@D@std@@V?$allocator@D@2@@std@@UACCINFO@CHostConnect@@U_tstring_iless@@V?$allocator@UACCINFO@CHostConnect@@@2@@2@U_tstring_iless@@V?$allocator@UACCINFO@CHostConnect@@@2@@std@@QAE@ABU_tstring_iless@@_NABV?$allocator@UACCINFO@CHostConnect@@@1@@Z 004302f0 f i HostConnect.obj
 0001:0002f330       ?begin@?$_Tree@V?$basic_string@DU?$char_traits@D@std@@V?$allocator@D@2@@std@@U?$pair@$$CBV?$basic_string@DU?$char_traits@D@std@@V?$allocator@D@2@@std@@UACCINFO@CHostConnect@@@2@U_Kfn@?$map@V?$basic_string@DU?$char_traits@D@std@@V?$allocator@D@2@@std@@UACCINFO@CHostConnect@@U_tstring_iless@@V?$allocator@UACCINFO@CHostConnect@@@2@@2@U_tstring_iless@@V?$allocator@UACCINFO@CHostConnect@@@2@@std@@QAE?AViterator@12@XZ 00430330 f i HostConnect.obj
 0001:0002f360       ?end@?$_Tree@V?$basic_string@DU?$char_traits@D@std@@V?$allocator@D@2@@std@@U?$pair@$$CBV?$basic_string@DU?$char_traits@D@std@@V?$allocator@D@2@@std@@UACCINFO@CHostConnect@@@2@U_Kfn@?$map@V?$basic_string@DU?$char_traits@D@std@@V?$allocator@D@2@@std@@UACCINFO@CHostConnect@@U_tstring_iless@@V?$allocator@UACCINFO@CHostConnect@@@2@@2@U_tstring_iless@@V?$allocator@UACCINFO@CHostConnect@@@2@@std@@QAE?AViterator@12@XZ 00430360 f i HostConnect.obj
 0001:0002f390       ?erase@?$_Tree@V?$basic_string@DU?$char_traits@D@std@@V?$allocator@D@2@@std@@U?$pair@$$CBV?$basic_string@DU?$char_traits@D@std@@V?$allocator@D@2@@std@@UACCINFO@CHostConnect@@@2@U_Kfn@?$map@V?$basic_string@DU?$char_traits@D@std@@V?$allocator@D@2@@std@@UACCINFO@CHostConnect@@U_tstring_iless@@V?$allocator@UACCINFO@CHostConnect@@@2@@2@U_tstring_iless@@V?$allocator@UACCINFO@CHostConnect@@@2@@std@@QAE?AViterator@12@V312@@Z 00430390 f i HostConnect.obj
 0001:0002fbe0       ?erase@?$_Tree@V?$basic_string@DU?$char_traits@D@std@@V?$allocator@D@2@@std@@U?$pair@$$CBV?$basic_string@DU?$char_traits@D@std@@V?$allocator@D@2@@std@@UACCINFO@CHostConnect@@@2@U_Kfn@?$map@V?$basic_string@DU?$char_traits@D@std@@V?$allocator@D@2@@std@@UACCINFO@CHostConnect@@U_tstring_iless@@V?$allocator@UACCINFO@CHostConnect@@@2@@2@U_tstring_iless@@V?$allocator@UACCINFO@CHostConnect@@@2@@std@@QAE?AViterator@12@V312@0@Z 00430be0 f i HostConnect.obj
 0001:0002fd20       ?find@?$_Tree@V?$basic_string@DU?$char_traits@D@std@@V?$allocator@D@2@@std@@U?$pair@$$CBV?$basic_string@DU?$char_traits@D@std@@V?$allocator@D@2@@std@@UACCINFO@CHostConnect@@@2@U_Kfn@?$map@V?$basic_string@DU?$char_traits@D@std@@V?$allocator@D@2@@std@@UACCINFO@CHostConnect@@U_tstring_iless@@V?$allocator@UACCINFO@CHostConnect@@@2@@2@U_tstring_iless@@V?$allocator@UACCINFO@CHostConnect@@@2@@std@@QAE?AViterator@12@ABV?$basic_string@DU?$char_traits@D@std@@V?$allocator@D@2@@2@@Z 00430d20 f i HostConnect.obj
 0001:0002fdc0       ??R_tstring_iless@@QBE_NABV?$basic_string@DU?$char_traits@D@std@@V?$allocator@D@2@@std@@0@Z 00430dc0 f i HostConnect.obj
 0001:0002fe20       __tcsicmp                  00430e20 f i HostConnect.obj
 0001:0002fe40       ?_Freenode@?$_Tree@V?$basic_string@DU?$char_traits@D@std@@V?$allocator@D@2@@std@@U?$pair@$$CBV?$basic_string@DU?$char_traits@D@std@@V?$allocator@D@2@@std@@UACCINFO@CHostConnect@@@2@U_Kfn@?$map@V?$basic_string@DU?$char_traits@D@std@@V?$allocator@D@2@@std@@UACCINFO@CHostConnect@@U_tstring_iless@@V?$allocator@UACCINFO@CHostConnect@@@2@@2@U_tstring_iless@@V?$allocator@UACCINFO@CHostConnect@@@2@@std@@IAEXPAU_Node@12@@Z 00430e40 f i HostConnect.obj
 0001:0002fe60       ??0?$pair@$$CBV?$basic_string@DU?$char_traits@D@std@@V?$allocator@D@2@@std@@UACCINFO@CHostConnect@@@std@@QAE@ABV?$basic_string@DU?$char_traits@D@std@@V?$allocator@D@2@@1@ABUACCINFO@CHostConnect@@@Z 00430e60 f i HostConnect.obj
 0001:0002fec0       ?insert@?$map@V?$basic_string@DU?$char_traits@D@std@@V?$allocator@D@2@@std@@UROLEINFO@CHostConnect@@U_tstring_less@@V?$allocator@UROLEINFO@CHostConnect@@@2@@std@@QAE?AU?$pair@Viterator@?$_Tree@V?$basic_string@DU?$char_traits@D@std@@V?$allocator@D@2@@std@@U?$pair@$$CBV?$basic_string@DU?$char_traits@D@std@@V?$allocator@D@2@@std@@UROLEINFO@CHostConnect@@@2@U_Kfn@?$map@V?$basic_string@DU?$char_traits@D@std@@V?$allocator@D@2@@std@@UROLEINFO@CHostConnect@@U_tstring_less@@V?$allocator@UROLEINFO@CHostConnect@@@2@@2@U_tstring_less@@V?$allocator@UROLEINFO@CHostConnect@@@2@@std@@_N@2@ABU?$pair@$$CBV?$basic_string@DU?$char_traits@D@std@@V?$allocator@D@2@@std@@UROLEINFO@CHostConnect@@@2@@Z 00430ec0 f i HostConnect.obj
 0001:0002ff10       ?_Value@?$_Tree@V?$basic_string@DU?$char_traits@D@std@@V?$allocator@D@2@@std@@U?$pair@$$CBV?$basic_string@DU?$char_traits@D@std@@V?$allocator@D@2@@std@@UROLEINFO@CHostConnect@@@2@U_Kfn@?$map@V?$basic_string@DU?$char_traits@D@std@@V?$allocator@D@2@@std@@UROLEINFO@CHostConnect@@U_tstring_less@@V?$allocator@UROLEINFO@CHostConnect@@@2@@2@U_tstring_less@@V?$allocator@UROLEINFO@CHostConnect@@@2@@std@@KAAAU?$pair@$$CBV?$basic_string@DU?$char_traits@D@std@@V?$allocator@D@2@@std@@UROLEINFO@CHostConnect@@@2@PAU_Node@12@@Z 00430f10 f i HostConnect.obj
 0001:0002ff20       ??0?$_Tree@V?$basic_string@DU?$char_traits@D@std@@V?$allocator@D@2@@std@@U?$pair@$$CBV?$basic_string@DU?$char_traits@D@std@@V?$allocator@D@2@@std@@UROLEINFO@CHostConnect@@@2@U_Kfn@?$map@V?$basic_string@DU?$char_traits@D@std@@V?$allocator@D@2@@std@@UROLEINFO@CHostConnect@@U_tstring_less@@V?$allocator@UROLEINFO@CHostConnect@@@2@@2@U_tstring_less@@V?$allocator@UROLEINFO@CHostConnect@@@2@@std@@QAE@ABU_tstring_less@@_NABV?$allocator@UROLEINFO@CHostConnect@@@1@@Z 00430f20 f i HostConnect.obj
 0001:0002ff60       ?begin@?$_Tree@V?$basic_string@DU?$char_traits@D@std@@V?$allocator@D@2@@std@@U?$pair@$$CBV?$basic_string@DU?$char_traits@D@std@@V?$allocator@D@2@@std@@UROLEINFO@CHostConnect@@@2@U_Kfn@?$map@V?$basic_string@DU?$char_traits@D@std@@V?$allocator@D@2@@std@@UROLEINFO@CHostConnect@@U_tstring_less@@V?$allocator@UROLEINFO@CHostConnect@@@2@@2@U_tstring_less@@V?$allocator@UROLEINFO@CHostConnect@@@2@@std@@QAE?AViterator@12@XZ 00430f60 f i HostConnect.obj
 0001:0002ff90       ?end@?$_Tree@V?$basic_string@DU?$char_traits@D@std@@V?$allocator@D@2@@std@@U?$pair@$$CBV?$basic_string@DU?$char_traits@D@std@@V?$allocator@D@2@@std@@UROLEINFO@CHostConnect@@@2@U_Kfn@?$map@V?$basic_string@DU?$char_traits@D@std@@V?$allocator@D@2@@std@@UROLEINFO@CHostConnect@@U_tstring_less@@V?$allocator@UROLEINFO@CHostConnect@@@2@@2@U_tstring_less@@V?$allocator@UROLEINFO@CHostConnect@@@2@@std@@QAE?AViterator@12@XZ 00430f90 f i HostConnect.obj
 0001:0002ffc0       ?size@?$_Tree@V?$basic_string@DU?$char_traits@D@std@@V?$allocator@D@2@@std@@U?$pair@$$CBV?$basic_string@DU?$char_traits@D@std@@V?$allocator@D@2@@std@@UROLEINFO@CHostConnect@@@2@U_Kfn@?$map@V?$basic_string@DU?$char_traits@D@std@@V?$allocator@D@2@@std@@UROLEINFO@CHostConnect@@U_tstring_less@@V?$allocator@UROLEINFO@CHostConnect@@@2@@2@U_tstring_less@@V?$allocator@UROLEINFO@CHostConnect@@@2@@std@@QBEIXZ 00430fc0 f i HostConnect.obj
 0001:0002ffe0       ?erase@?$_Tree@V?$basic_string@DU?$char_traits@D@std@@V?$allocator@D@2@@std@@U?$pair@$$CBV?$basic_string@DU?$char_traits@D@std@@V?$allocator@D@2@@std@@UROLEINFO@CHostConnect@@@2@U_Kfn@?$map@V?$basic_string@DU?$char_traits@D@std@@V?$allocator@D@2@@std@@UROLEINFO@CHostConnect@@U_tstring_less@@V?$allocator@UROLEINFO@CHostConnect@@@2@@2@U_tstring_less@@V?$allocator@UROLEINFO@CHostConnect@@@2@@std@@QAE?AViterator@12@V312@0@Z 00430fe0 f i HostConnect.obj
 0001:00030120       ?erase@?$_Tree@V?$basic_string@DU?$char_traits@D@std@@V?$allocator@D@2@@std@@U?$pair@$$CBV?$basic_string@DU?$char_traits@D@std@@V?$allocator@D@2@@std@@UROLEINFO@CHostConnect@@@2@U_Kfn@?$map@V?$basic_string@DU?$char_traits@D@std@@V?$allocator@D@2@@std@@UROLEINFO@CHostConnect@@U_tstring_less@@V?$allocator@UROLEINFO@CHostConnect@@@2@@2@U_tstring_less@@V?$allocator@UROLEINFO@CHostConnect@@@2@@std@@QAEIABV?$basic_string@DU?$char_traits@D@std@@V?$allocator@D@2@@2@@Z 00431120 f i HostConnect.obj
 0001:00030180       ?find@?$_Tree@V?$basic_string@DU?$char_traits@D@std@@V?$allocator@D@2@@std@@U?$pair@$$CBV?$basic_string@DU?$char_traits@D@std@@V?$allocator@D@2@@std@@UROLEINFO@CHostConnect@@@2@U_Kfn@?$map@V?$basic_string@DU?$char_traits@D@std@@V?$allocator@D@2@@std@@UROLEINFO@CHostConnect@@U_tstring_less@@V?$allocator@UROLEINFO@CHostConnect@@@2@@2@U_tstring_less@@V?$allocator@UROLEINFO@CHostConnect@@@2@@std@@QAE?AViterator@12@ABV?$basic_string@DU?$char_traits@D@std@@V?$allocator@D@2@@2@@Z 00431180 f i HostConnect.obj
 0001:00030220       ?_Freenode@?$_Tree@V?$basic_string@DU?$char_traits@D@std@@V?$allocator@D@2@@std@@U?$pair@$$CBV?$basic_string@DU?$char_traits@D@std@@V?$allocator@D@2@@std@@UROLEINFO@CHostConnect@@@2@U_Kfn@?$map@V?$basic_string@DU?$char_traits@D@std@@V?$allocator@D@2@@std@@UROLEINFO@CHostConnect@@U_tstring_less@@V?$allocator@UROLEINFO@CHostConnect@@@2@@2@U_tstring_less@@V?$allocator@UROLEINFO@CHostConnect@@@2@@std@@IAEXPAU_Node@12@@Z 00431220 f i HostConnect.obj
 0001:00030240       ??0?$pair@$$CBV?$basic_string@DU?$char_traits@D@std@@V?$allocator@D@2@@std@@UROLEINFO@CHostConnect@@@std@@QAE@ABV?$basic_string@DU?$char_traits@D@std@@V?$allocator@D@2@@1@ABUROLEINFO@CHostConnect@@@Z 00431240 f i HostConnect.obj
 0001:000302a0       ?insert@?$map@KUPARAMINFO@CHostConnect@@U?$less@K@std@@V?$allocator@UPARAMINFO@CHostConnect@@@4@@std@@QAE?AU?$pair@Viterator@?$_Tree@KU?$pair@$$CBKUPARAMINFO@CHostConnect@@@std@@U_Kfn@?$map@KUPARAMINFO@CHostConnect@@U?$less@K@std@@V?$allocator@UPARAMINFO@CHostConnect@@@4@@2@U?$less@K@2@V?$allocator@UPARAMINFO@CHostConnect@@@2@@std@@_N@2@ABU?$pair@$$CBKUPARAMINFO@CHostConnect@@@2@@Z 004312a0 f i HostConnect.obj
 0001:000302f0       ?_Value@?$_Tree@KU?$pair@$$CBKUPARAMINFO@CHostConnect@@@std@@U_Kfn@?$map@KUPARAMINFO@CHostConnect@@U?$less@K@std@@V?$allocator@UPARAMINFO@CHostConnect@@@4@@2@U?$less@K@2@V?$allocator@UPARAMINFO@CHostConnect@@@2@@std@@KAAAU?$pair@$$CBKUPARAMINFO@CHostConnect@@@2@PAU_Node@12@@Z 004312f0 f i HostConnect.obj
 0001:00030300       ??0?$_Tree@KU?$pair@$$CBKUPARAMINFO@CHostConnect@@@std@@U_Kfn@?$map@KUPARAMINFO@CHostConnect@@U?$less@K@std@@V?$allocator@UPARAMINFO@CHostConnect@@@4@@2@U?$less@K@2@V?$allocator@UPARAMINFO@CHostConnect@@@2@@std@@QAE@ABU?$less@K@1@_NABV?$allocator@UPARAMINFO@CHostConnect@@@1@@Z 00431300 f i HostConnect.obj
 0001:00030340       ?begin@?$_Tree@KU?$pair@$$CBKUPARAMINFO@CHostConnect@@@std@@U_Kfn@?$map@KUPARAMINFO@CHostConnect@@U?$less@K@std@@V?$allocator@UPARAMINFO@CHostConnect@@@4@@2@U?$less@K@2@V?$allocator@UPARAMINFO@CHostConnect@@@2@@std@@QAE?AViterator@12@XZ 00431340 f i HostConnect.obj
 0001:00030370       ?end@?$_Tree@KU?$pair@$$CBKUPARAMINFO@CHostConnect@@@std@@U_Kfn@?$map@KUPARAMINFO@CHostConnect@@U?$less@K@std@@V?$allocator@UPARAMINFO@CHostConnect@@@4@@2@U?$less@K@2@V?$allocator@UPARAMINFO@CHostConnect@@@2@@std@@QAE?AViterator@12@XZ 00431370 f i HostConnect.obj
 0001:000303a0       ?erase@?$_Tree@KU?$pair@$$CBKUPARAMINFO@CHostConnect@@@std@@U_Kfn@?$map@KUPARAMINFO@CHostConnect@@U?$less@K@std@@V?$allocator@UPARAMINFO@CHostConnect@@@4@@2@U?$less@K@2@V?$allocator@UPARAMINFO@CHostConnect@@@2@@std@@QAE?AViterator@12@V312@0@Z 004313a0 f i HostConnect.obj
 0001:000304e0       ?erase@?$_Tree@KU?$pair@$$CBKUPARAMINFO@CHostConnect@@@std@@U_Kfn@?$map@KUPARAMINFO@CHostConnect@@U?$less@K@std@@V?$allocator@UPARAMINFO@CHostConnect@@@4@@2@U?$less@K@2@V?$allocator@UPARAMINFO@CHostConnect@@@2@@std@@QAEIABK@Z 004314e0 f i HostConnect.obj
 0001:00030540       ?find@?$_Tree@KU?$pair@$$CBKUPARAMINFO@CHostConnect@@@std@@U_Kfn@?$map@KUPARAMINFO@CHostConnect@@U?$less@K@std@@V?$allocator@UPARAMINFO@CHostConnect@@@4@@2@U?$less@K@2@V?$allocator@UPARAMINFO@CHostConnect@@@2@@std@@QAE?AViterator@12@ABK@Z 00431540 f i HostConnect.obj
 0001:000305e0       ?_Freenode@?$_Tree@KU?$pair@$$CBKUPARAMINFO@CHostConnect@@@std@@U_Kfn@?$map@KUPARAMINFO@CHostConnect@@U?$less@K@std@@V?$allocator@UPARAMINFO@CHostConnect@@@4@@2@U?$less@K@2@V?$allocator@UPARAMINFO@CHostConnect@@@2@@std@@IAEXPAU_Node@12@@Z 004315e0 f i HostConnect.obj
 0001:00030600       ??0?$pair@$$CBKUPARAMINFO@CHostConnect@@@std@@QAE@ABKABUPARAMINFO@CHostConnect@@@Z 00431600 f i HostConnect.obj
 0001:00030630       ??0ACCINFO@CHostConnect@@QAE@ABU01@@Z 00431630 f i HostConnect.obj
 0001:00030670       ??0ROLEINFO@CHostConnect@@QAE@ABU01@@Z 00431670 f i HostConnect.obj
 0001:000306b0       ??0PARAMINFO@CHostConnect@@QAE@ABU01@@Z 004316b0 f i HostConnect.obj
 0001:00030720       ?deallocate@?$allocator@UACCINFO@CHostConnect@@@std@@QAEXPAXI@Z 00431720 f i HostConnect.obj
 0001:00030740       ?_Color@?$_Tree@V?$basic_string@DU?$char_traits@D@std@@V?$allocator@D@2@@std@@U?$pair@$$CBV?$basic_string@DU?$char_traits@D@std@@V?$allocator@D@2@@std@@UACCINFO@CHostConnect@@@2@U_Kfn@?$map@V?$basic_string@DU?$char_traits@D@std@@V?$allocator@D@2@@std@@UACCINFO@CHostConnect@@U_tstring_iless@@V?$allocator@UACCINFO@CHostConnect@@@2@@2@U_tstring_iless@@V?$allocator@UACCINFO@CHostConnect@@@2@@std@@KAAAW4_Redbl@12@PAU_Node@12@@Z 00431740 f i HostConnect.obj
 0001:00030750       ?_Key@?$_Tree@V?$basic_string@DU?$char_traits@D@std@@V?$allocator@D@2@@std@@U?$pair@$$CBV?$basic_string@DU?$char_traits@D@std@@V?$allocator@D@2@@std@@UACCINFO@CHostConnect@@@2@U_Kfn@?$map@V?$basic_string@DU?$char_traits@D@std@@V?$allocator@D@2@@std@@UACCINFO@CHostConnect@@U_tstring_iless@@V?$allocator@UACCINFO@CHostConnect@@@2@@2@U_tstring_iless@@V?$allocator@UACCINFO@CHostConnect@@@2@@std@@KAABV?$basic_string@DU?$char_traits@D@std@@V?$allocator@D@2@@2@PAU_Node@12@@Z 00431750 f i HostConnect.obj
 0001:00030770       ?_Left@?$_Tree@V?$basic_string@DU?$char_traits@D@std@@V?$allocator@D@2@@std@@U?$pair@$$CBV?$basic_string@DU?$char_traits@D@std@@V?$allocator@D@2@@std@@UACCINFO@CHostConnect@@@2@U_Kfn@?$map@V?$basic_string@DU?$char_traits@D@std@@V?$allocator@D@2@@std@@UACCINFO@CHostConnect@@U_tstring_iless@@V?$allocator@UACCINFO@CHostConnect@@@2@@2@U_tstring_iless@@V?$allocator@UACCINFO@CHostConnect@@@2@@std@@KAAAPAU_Node@12@PAU312@@Z 00431770 f i HostConnect.obj
 0001:00030780       ?_Parent@?$_Tree@V?$basic_string@DU?$char_traits@D@std@@V?$allocator@D@2@@std@@U?$pair@$$CBV?$basic_string@DU?$char_traits@D@std@@V?$allocator@D@2@@std@@UACCINFO@CHostConnect@@@2@U_Kfn@?$map@V?$basic_string@DU?$char_traits@D@std@@V?$allocator@D@2@@std@@UACCINFO@CHostConnect@@U_tstring_iless@@V?$allocator@UACCINFO@CHostConnect@@@2@@2@U_tstring_iless@@V?$allocator@UACCINFO@CHostConnect@@@2@@std@@KAAAPAU_Node@12@PAU312@@Z 00431780 f i HostConnect.obj
 0001:00030790       ?_Right@?$_Tree@V?$basic_string@DU?$char_traits@D@std@@V?$allocator@D@2@@std@@U?$pair@$$CBV?$basic_string@DU?$char_traits@D@std@@V?$allocator@D@2@@std@@UACCINFO@CHostConnect@@@2@U_Kfn@?$map@V?$basic_string@DU?$char_traits@D@std@@V?$allocator@D@2@@std@@UACCINFO@CHostConnect@@U_tstring_iless@@V?$allocator@UACCINFO@CHostConnect@@@2@@2@U_tstring_iless@@V?$allocator@UACCINFO@CHostConnect@@@2@@std@@KAAAPAU_Node@12@PAU312@@Z 00431790 f i HostConnect.obj
 0001:000307a0       ?size@?$_Tree@V?$basic_string@DU?$char_traits@D@std@@V?$allocator@D@2@@std@@U?$pair@$$CBV?$basic_string@DU?$char_traits@D@std@@V?$allocator@D@2@@std@@UACCINFO@CHostConnect@@@2@U_Kfn@?$map@V?$basic_string@DU?$char_traits@D@std@@V?$allocator@D@2@@std@@UACCINFO@CHostConnect@@U_tstring_iless@@V?$allocator@UACCINFO@CHostConnect@@@2@@2@U_tstring_iless@@V?$allocator@UACCINFO@CHostConnect@@@2@@std@@QBEIXZ 004317a0 f i HostConnect.obj
 0001:000307c0       ?insert@?$_Tree@V?$basic_string@DU?$char_traits@D@std@@V?$allocator@D@2@@std@@U?$pair@$$CBV?$basic_string@DU?$char_traits@D@std@@V?$allocator@D@2@@std@@UACCINFO@CHostConnect@@@2@U_Kfn@?$map@V?$basic_string@DU?$char_traits@D@std@@V?$allocator@D@2@@std@@UACCINFO@CHostConnect@@U_tstring_iless@@V?$allocator@UACCINFO@CHostConnect@@@2@@2@U_tstring_iless@@V?$allocator@UACCINFO@CHostConnect@@@2@@std@@QAE?AU?$pair@Viterator@?$_Tree@V?$basic_string@DU?$char_traits@D@std@@V?$allocator@D@2@@std@@U?$pair@$$CBV?$basic_string@DU?$char_traits@D@std@@V?$allocator@D@2@@std@@UACCINFO@CHostConnect@@@2@U_Kfn@?$map@V?$basic_string@DU?$char_traits@D@std@@V?$allocator@D@2@@std@@UACCINFO@CHostConnect@@U_tstring_iless@@V?$allocator@UACCINFO@CHostConnect@@@2@@2@U_tstring_iless@@V?$allocator@UACCINFO@CHostConnect@@@2@@std@@_N@2@ABU?$pair@$$CBV?$basic_string@DU?$char_traits@D@std@@V?$allocator@D@2@@std@@UACCINFO@CHostConnect@@@2@@Z 004317c0 f i HostConnect.obj
 0001:00030a00       ?lower_bound@?$_Tree@V?$basic_string@DU?$char_traits@D@std@@V?$allocator@D@2@@std@@U?$pair@$$CBV?$basic_string@DU?$char_traits@D@std@@V?$allocator@D@2@@std@@UACCINFO@CHostConnect@@@2@U_Kfn@?$map@V?$basic_string@DU?$char_traits@D@std@@V?$allocator@D@2@@std@@UACCINFO@CHostConnect@@U_tstring_iless@@V?$allocator@UACCINFO@CHostConnect@@@2@@2@U_tstring_iless@@V?$allocator@UACCINFO@CHostConnect@@@2@@std@@QAE?AViterator@12@ABV?$basic_string@DU?$char_traits@D@std@@V?$allocator@D@2@@2@@Z 00431a00 f i HostConnect.obj
 0001:00030a30       ?_Erase@?$_Tree@V?$basic_string@DU?$char_traits@D@std@@V?$allocator@D@2@@std@@U?$pair@$$CBV?$basic_string@DU?$char_traits@D@std@@V?$allocator@D@2@@std@@UACCINFO@CHostConnect@@@2@U_Kfn@?$map@V?$basic_string@DU?$char_traits@D@std@@V?$allocator@D@2@@std@@UACCINFO@CHostConnect@@U_tstring_iless@@V?$allocator@UACCINFO@CHostConnect@@@2@@2@U_tstring_iless@@V?$allocator@UACCINFO@CHostConnect@@@2@@std@@IAEXPAU_Node@12@@Z 00431a30 f i HostConnect.obj
 0001:00030ae0       ?_Init@?$_Tree@V?$basic_string@DU?$char_traits@D@std@@V?$allocator@D@2@@std@@U?$pair@$$CBV?$basic_string@DU?$char_traits@D@std@@V?$allocator@D@2@@std@@UACCINFO@CHostConnect@@@2@U_Kfn@?$map@V?$basic_string@DU?$char_traits@D@std@@V?$allocator@D@2@@std@@UACCINFO@CHostConnect@@U_tstring_iless@@V?$allocator@UACCINFO@CHostConnect@@@2@@2@U_tstring_iless@@V?$allocator@UACCINFO@CHostConnect@@@2@@std@@IAEXXZ 00431ae0 f i HostConnect.obj
 0001:00030bc0       ?_Lmost@?$_Tree@V?$basic_string@DU?$char_traits@D@std@@V?$allocator@D@2@@std@@U?$pair@$$CBV?$basic_string@DU?$char_traits@D@std@@V?$allocator@D@2@@std@@UACCINFO@CHostConnect@@@2@U_Kfn@?$map@V?$basic_string@DU?$char_traits@D@std@@V?$allocator@D@2@@std@@UACCINFO@CHostConnect@@U_tstring_iless@@V?$allocator@UACCINFO@CHostConnect@@@2@@2@U_tstring_iless@@V?$allocator@UACCINFO@CHostConnect@@@2@@std@@IAEAAPAU_Node@12@XZ 00431bc0 f i HostConnect.obj
 0001:00030be0       ?_Lrotate@?$_Tree@V?$basic_string@DU?$char_traits@D@std@@V?$allocator@D@2@@std@@U?$pair@$$CBV?$basic_string@DU?$char_traits@D@std@@V?$allocator@D@2@@std@@UACCINFO@CHostConnect@@@2@U_Kfn@?$map@V?$basic_string@DU?$char_traits@D@std@@V?$allocator@D@2@@std@@UACCINFO@CHostConnect@@U_tstring_iless@@V?$allocator@UACCINFO@CHostConnect@@@2@@2@U_tstring_iless@@V?$allocator@UACCINFO@CHostConnect@@@2@@std@@IAEXPAU_Node@12@@Z 00431be0 f i HostConnect.obj
 0001:00030d50       ?_Max@?$_Tree@V?$basic_string@DU?$char_traits@D@std@@V?$allocator@D@2@@std@@U?$pair@$$CBV?$basic_string@DU?$char_traits@D@std@@V?$allocator@D@2@@std@@UACCINFO@CHostConnect@@@2@U_Kfn@?$map@V?$basic_string@DU?$char_traits@D@std@@V?$allocator@D@2@@std@@UACCINFO@CHostConnect@@U_tstring_iless@@V?$allocator@UACCINFO@CHostConnect@@@2@@2@U_tstring_iless@@V?$allocator@UACCINFO@CHostConnect@@@2@@std@@KAPAU_Node@12@PAU312@@Z 00431d50 f i HostConnect.obj
 0001:00030dd0       ?_Min@?$_Tree@V?$basic_string@DU?$char_traits@D@std@@V?$allocator@D@2@@std@@U?$pair@$$CBV?$basic_string@DU?$char_traits@D@std@@V?$allocator@D@2@@std@@UACCINFO@CHostConnect@@@2@U_Kfn@?$map@V?$basic_string@DU?$char_traits@D@std@@V?$allocator@D@2@@std@@UACCINFO@CHostConnect@@U_tstring_iless@@V?$allocator@UACCINFO@CHostConnect@@@2@@2@U_tstring_iless@@V?$allocator@UACCINFO@CHostConnect@@@2@@std@@KAPAU_Node@12@PAU312@@Z 00431dd0 f i HostConnect.obj
 0001:00030e50       ?_Rmost@?$_Tree@V?$basic_string@DU?$char_traits@D@std@@V?$allocator@D@2@@std@@U?$pair@$$CBV?$basic_string@DU?$char_traits@D@std@@V?$allocator@D@2@@std@@UACCINFO@CHostConnect@@@2@U_Kfn@?$map@V?$basic_string@DU?$char_traits@D@std@@V?$allocator@D@2@@std@@UACCINFO@CHostConnect@@U_tstring_iless@@V?$allocator@UACCINFO@CHostConnect@@@2@@2@U_tstring_iless@@V?$allocator@UACCINFO@CHostConnect@@@2@@std@@IAEAAPAU_Node@12@XZ 00431e50 f i HostConnect.obj
 0001:00030e70       ?_Root@?$_Tree@V?$basic_string@DU?$char_traits@D@std@@V?$allocator@D@2@@std@@U?$pair@$$CBV?$basic_string@DU?$char_traits@D@std@@V?$allocator@D@2@@std@@UACCINFO@CHostConnect@@@2@U_Kfn@?$map@V?$basic_string@DU?$char_traits@D@std@@V?$allocator@D@2@@std@@UACCINFO@CHostConnect@@U_tstring_iless@@V?$allocator@UACCINFO@CHostConnect@@@2@@2@U_tstring_iless@@V?$allocator@UACCINFO@CHostConnect@@@2@@std@@IAEAAPAU_Node@12@XZ 00431e70 f i HostConnect.obj
 0001:00030e90       ?_Rrotate@?$_Tree@V?$basic_string@DU?$char_traits@D@std@@V?$allocator@D@2@@std@@U?$pair@$$CBV?$basic_string@DU?$char_traits@D@std@@V?$allocator@D@2@@std@@UACCINFO@CHostConnect@@@2@U_Kfn@?$map@V?$basic_string@DU?$char_traits@D@std@@V?$allocator@D@2@@std@@UACCINFO@CHostConnect@@U_tstring_iless@@V?$allocator@UACCINFO@CHostConnect@@@2@@2@U_tstring_iless@@V?$allocator@UACCINFO@CHostConnect@@@2@@std@@IAEXPAU_Node@12@@Z 00431e90 f i HostConnect.obj
 0001:00031000       ?_Destval@?$_Tree@V?$basic_string@DU?$char_traits@D@std@@V?$allocator@D@2@@std@@U?$pair@$$CBV?$basic_string@DU?$char_traits@D@std@@V?$allocator@D@2@@std@@UACCINFO@CHostConnect@@@2@U_Kfn@?$map@V?$basic_string@DU?$char_traits@D@std@@V?$allocator@D@2@@std@@UACCINFO@CHostConnect@@U_tstring_iless@@V?$allocator@UACCINFO@CHostConnect@@@2@@2@U_tstring_iless@@V?$allocator@UACCINFO@CHostConnect@@@2@@std@@IAEXPAU?$pair@$$CBV?$basic_string@DU?$char_traits@D@std@@V?$allocator@D@2@@std@@UACCINFO@CHostConnect@@@2@@Z 00432000 f i HostConnect.obj
 0001:00031020       ?_Mynode@const_iterator@?$_Tree@V?$basic_string@DU?$char_traits@D@std@@V?$allocator@D@2@@std@@U?$pair@$$CBV?$basic_string@DU?$char_traits@D@std@@V?$allocator@D@2@@std@@UACCINFO@CHostConnect@@@2@U_Kfn@?$map@V?$basic_string@DU?$char_traits@D@std@@V?$allocator@D@2@@std@@UACCINFO@CHostConnect@@U_tstring_iless@@V?$allocator@UACCINFO@CHostConnect@@@2@@2@U_tstring_iless@@V?$allocator@UACCINFO@CHostConnect@@@2@@std@@QBEPAU_Node@23@XZ 00432020 f i HostConnect.obj
 0001:00031030       ??0iterator@?$_Tree@V?$basic_string@DU?$char_traits@D@std@@V?$allocator@D@2@@std@@U?$pair@$$CBV?$basic_string@DU?$char_traits@D@std@@V?$allocator@D@2@@std@@UACCINFO@CHostConnect@@@2@U_Kfn@?$map@V?$basic_string@DU?$char_traits@D@std@@V?$allocator@D@2@@std@@UACCINFO@CHostConnect@@U_tstring_iless@@V?$allocator@UACCINFO@CHostConnect@@@2@@2@U_tstring_iless@@V?$allocator@UACCINFO@CHostConnect@@@2@@std@@QAE@PAU_Node@12@@Z 00432030 f i HostConnect.obj
 0001:00031050       ??Eiterator@?$_Tree@V?$basic_string@DU?$char_traits@D@std@@V?$allocator@D@2@@std@@U?$pair@$$CBV?$basic_string@DU?$char_traits@D@std@@V?$allocator@D@2@@std@@UACCINFO@CHostConnect@@@2@U_Kfn@?$map@V?$basic_string@DU?$char_traits@D@std@@V?$allocator@D@2@@std@@UACCINFO@CHostConnect@@U_tstring_iless@@V?$allocator@UACCINFO@CHostConnect@@@2@@2@U_tstring_iless@@V?$allocator@UACCINFO@CHostConnect@@@2@@std@@QAE?AV012@H@Z 00432050 f i HostConnect.obj
 0001:00031080       ?deallocate@?$allocator@UROLEINFO@CHostConnect@@@std@@QAEXPAXI@Z 00432080 f i HostConnect.obj
 0001:000310a0       ?_Key@?$_Tree@V?$basic_string@DU?$char_traits@D@std@@V?$allocator@D@2@@std@@U?$pair@$$CBV?$basic_string@DU?$char_traits@D@std@@V?$allocator@D@2@@std@@UROLEINFO@CHostConnect@@@2@U_Kfn@?$map@V?$basic_string@DU?$char_traits@D@std@@V?$allocator@D@2@@std@@UROLEINFO@CHostConnect@@U_tstring_less@@V?$allocator@UROLEINFO@CHostConnect@@@2@@2@U_tstring_less@@V?$allocator@UROLEINFO@CHostConnect@@@2@@std@@KAABV?$basic_string@DU?$char_traits@D@std@@V?$allocator@D@2@@2@PAU_Node@12@@Z 004320a0 f i HostConnect.obj
 0001:000310c0       ?insert@?$_Tree@V?$basic_string@DU?$char_traits@D@std@@V?$allocator@D@2@@std@@U?$pair@$$CBV?$basic_string@DU?$char_traits@D@std@@V?$allocator@D@2@@std@@UROLEINFO@CHostConnect@@@2@U_Kfn@?$map@V?$basic_string@DU?$char_traits@D@std@@V?$allocator@D@2@@std@@UROLEINFO@CHostConnect@@U_tstring_less@@V?$allocator@UROLEINFO@CHostConnect@@@2@@2@U_tstring_less@@V?$allocator@UROLEINFO@CHostConnect@@@2@@std@@QAE?AU?$pair@Viterator@?$_Tree@V?$basic_string@DU?$char_traits@D@std@@V?$allocator@D@2@@std@@U?$pair@$$CBV?$basic_string@DU?$char_traits@D@std@@V?$allocator@D@2@@std@@UROLEINFO@CHostConnect@@@2@U_Kfn@?$map@V?$basic_string@DU?$char_traits@D@std@@V?$allocator@D@2@@std@@UROLEINFO@CHostConnect@@U_tstring_less@@V?$allocator@UROLEINFO@CHostConnect@@@2@@2@U_tstring_less@@V?$allocator@UROLEINFO@CHostConnect@@@2@@std@@_N@2@ABU?$pair@$$CBV?$basic_string@DU?$char_traits@D@std@@V?$allocator@D@2@@std@@UROLEINFO@CHostConnect@@@2@@Z 004320c0 f i HostConnect.obj
 0001:00031300       ?erase@?$_Tree@V?$basic_string@DU?$char_traits@D@std@@V?$allocator@D@2@@std@@U?$pair@$$CBV?$basic_string@DU?$char_traits@D@std@@V?$allocator@D@2@@std@@UROLEINFO@CHostConnect@@@2@U_Kfn@?$map@V?$basic_string@DU?$char_traits@D@std@@V?$allocator@D@2@@std@@UROLEINFO@CHostConnect@@U_tstring_less@@V?$allocator@UROLEINFO@CHostConnect@@@2@@2@U_tstring_less@@V?$allocator@UROLEINFO@CHostConnect@@@2@@std@@QAE?AViterator@12@V312@@Z 00432300 f i HostConnect.obj
 0001:00031b50       ?lower_bound@?$_Tree@V?$basic_string@DU?$char_traits@D@std@@V?$allocator@D@2@@std@@U?$pair@$$CBV?$basic_string@DU?$char_traits@D@std@@V?$allocator@D@2@@std@@UROLEINFO@CHostConnect@@@2@U_Kfn@?$map@V?$basic_string@DU?$char_traits@D@std@@V?$allocator@D@2@@std@@UROLEINFO@CHostConnect@@U_tstring_less@@V?$allocator@UROLEINFO@CHostConnect@@@2@@2@U_tstring_less@@V?$allocator@UROLEINFO@CHostConnect@@@2@@std@@QAE?AViterator@12@ABV?$basic_string@DU?$char_traits@D@std@@V?$allocator@D@2@@2@@Z 00432b50 f i HostConnect.obj
 0001:00031b80       ?equal_range@?$_Tree@V?$basic_string@DU?$char_traits@D@std@@V?$allocator@D@2@@std@@U?$pair@$$CBV?$basic_string@DU?$char_traits@D@std@@V?$allocator@D@2@@std@@UROLEINFO@CHostConnect@@@2@U_Kfn@?$map@V?$basic_string@DU?$char_traits@D@std@@V?$allocator@D@2@@std@@UROLEINFO@CHostConnect@@U_tstring_less@@V?$allocator@UROLEINFO@CHostConnect@@@2@@2@U_tstring_less@@V?$allocator@UROLEINFO@CHostConnect@@@2@@std@@QAE?AU?$pair@Viterator@?$_Tree@V?$basic_string@DU?$char_traits@D@std@@V?$allocator@D@2@@std@@U?$pair@$$CBV?$basic_string@DU?$char_traits@D@std@@V?$allocator@D@2@@std@@UROLEINFO@CHostConnect@@@2@U_Kfn@?$map@V?$basic_string@DU?$char_traits@D@std@@V?$allocator@D@2@@std@@UROLEINFO@CHostConnect@@U_tstring_less@@V?$allocator@UROLEINFO@CHostConnect@@@2@@2@U_tstring_less@@V?$allocator@UROLEINFO@CHostConnect@@@2@@std@@V123@@2@ABV?$basic_string@DU?$char_traits@D@std@@V?$allocator@D@2@@2@@Z 00432b80 f i HostConnect.obj
 0001:00031bd0       ?_Erase@?$_Tree@V?$basic_string@DU?$char_traits@D@std@@V?$allocator@D@2@@std@@U?$pair@$$CBV?$basic_string@DU?$char_traits@D@std@@V?$allocator@D@2@@std@@UROLEINFO@CHostConnect@@@2@U_Kfn@?$map@V?$basic_string@DU?$char_traits@D@std@@V?$allocator@D@2@@std@@UROLEINFO@CHostConnect@@U_tstring_less@@V?$allocator@UROLEINFO@CHostConnect@@@2@@2@U_tstring_less@@V?$allocator@UROLEINFO@CHostConnect@@@2@@std@@IAEXPAU_Node@12@@Z 00432bd0 f i HostConnect.obj
 0001:00031c80       ?_Init@?$_Tree@V?$basic_string@DU?$char_traits@D@std@@V?$allocator@D@2@@std@@U?$pair@$$CBV?$basic_string@DU?$char_traits@D@std@@V?$allocator@D@2@@std@@UROLEINFO@CHostConnect@@@2@U_Kfn@?$map@V?$basic_string@DU?$char_traits@D@std@@V?$allocator@D@2@@std@@UROLEINFO@CHostConnect@@U_tstring_less@@V?$allocator@UROLEINFO@CHostConnect@@@2@@2@U_tstring_less@@V?$allocator@UROLEINFO@CHostConnect@@@2@@std@@IAEXXZ 00432c80 f i HostConnect.obj
 0001:00031d60       ?_Lmost@?$_Tree@V?$basic_string@DU?$char_traits@D@std@@V?$allocator@D@2@@std@@U?$pair@$$CBV?$basic_string@DU?$char_traits@D@std@@V?$allocator@D@2@@std@@UROLEINFO@CHostConnect@@@2@U_Kfn@?$map@V?$basic_string@DU?$char_traits@D@std@@V?$allocator@D@2@@std@@UROLEINFO@CHostConnect@@U_tstring_less@@V?$allocator@UROLEINFO@CHostConnect@@@2@@2@U_tstring_less@@V?$allocator@UROLEINFO@CHostConnect@@@2@@std@@IAEAAPAU_Node@12@XZ 00432d60 f i HostConnect.obj
 0001:00031d80       ?_Rmost@?$_Tree@V?$basic_string@DU?$char_traits@D@std@@V?$allocator@D@2@@std@@U?$pair@$$CBV?$basic_string@DU?$char_traits@D@std@@V?$allocator@D@2@@std@@UROLEINFO@CHostConnect@@@2@U_Kfn@?$map@V?$basic_string@DU?$char_traits@D@std@@V?$allocator@D@2@@std@@UROLEINFO@CHostConnect@@U_tstring_less@@V?$allocator@UROLEINFO@CHostConnect@@@2@@2@U_tstring_less@@V?$allocator@UROLEINFO@CHostConnect@@@2@@std@@IAEAAPAU_Node@12@XZ 00432d80 f i HostConnect.obj
 0001:00031da0       ?_Root@?$_Tree@V?$basic_string@DU?$char_traits@D@std@@V?$allocator@D@2@@std@@U?$pair@$$CBV?$basic_string@DU?$char_traits@D@std@@V?$allocator@D@2@@std@@UROLEINFO@CHostConnect@@@2@U_Kfn@?$map@V?$basic_string@DU?$char_traits@D@std@@V?$allocator@D@2@@std@@UROLEINFO@CHostConnect@@U_tstring_less@@V?$allocator@UROLEINFO@CHostConnect@@@2@@2@U_tstring_less@@V?$allocator@UROLEINFO@CHostConnect@@@2@@std@@IAEAAPAU_Node@12@XZ 00432da0 f i HostConnect.obj
 0001:00031dc0       ?_Mynode@const_iterator@?$_Tree@V?$basic_string@DU?$char_traits@D@std@@V?$allocator@D@2@@std@@U?$pair@$$CBV?$basic_string@DU?$char_traits@D@std@@V?$allocator@D@2@@std@@UROLEINFO@CHostConnect@@@2@U_Kfn@?$map@V?$basic_string@DU?$char_traits@D@std@@V?$allocator@D@2@@std@@UROLEINFO@CHostConnect@@U_tstring_less@@V?$allocator@UROLEINFO@CHostConnect@@@2@@2@U_tstring_less@@V?$allocator@UROLEINFO@CHostConnect@@@2@@std@@QBEPAU_Node@23@XZ 00432dc0 f i HostConnect.obj
 0001:00031dd0       ??0iterator@?$_Tree@V?$basic_string@DU?$char_traits@D@std@@V?$allocator@D@2@@std@@U?$pair@$$CBV?$basic_string@DU?$char_traits@D@std@@V?$allocator@D@2@@std@@UROLEINFO@CHostConnect@@@2@U_Kfn@?$map@V?$basic_string@DU?$char_traits@D@std@@V?$allocator@D@2@@std@@UROLEINFO@CHostConnect@@U_tstring_less@@V?$allocator@UROLEINFO@CHostConnect@@@2@@2@U_tstring_less@@V?$allocator@UROLEINFO@CHostConnect@@@2@@std@@QAE@PAU_Node@12@@Z 00432dd0 f i HostConnect.obj
 0001:00031df0       ??Eiterator@?$_Tree@V?$basic_string@DU?$char_traits@D@std@@V?$allocator@D@2@@std@@U?$pair@$$CBV?$basic_string@DU?$char_traits@D@std@@V?$allocator@D@2@@std@@UROLEINFO@CHostConnect@@@2@U_Kfn@?$map@V?$basic_string@DU?$char_traits@D@std@@V?$allocator@D@2@@std@@UROLEINFO@CHostConnect@@U_tstring_less@@V?$allocator@UROLEINFO@CHostConnect@@@2@@2@U_tstring_less@@V?$allocator@UROLEINFO@CHostConnect@@@2@@std@@QAE?AV012@H@Z 00432df0 f i HostConnect.obj
 0001:00031e20       ??9iterator@?$_Tree@V?$basic_string@DU?$char_traits@D@std@@V?$allocator@D@2@@std@@U?$pair@$$CBV?$basic_string@DU?$char_traits@D@std@@V?$allocator@D@2@@std@@UROLEINFO@CHostConnect@@@2@U_Kfn@?$map@V?$basic_string@DU?$char_traits@D@std@@V?$allocator@D@2@@std@@UROLEINFO@CHostConnect@@U_tstring_less@@V?$allocator@UROLEINFO@CHostConnect@@@2@@2@U_tstring_less@@V?$allocator@UROLEINFO@CHostConnect@@@2@@std@@QBE_NABV012@@Z 00432e20 f i HostConnect.obj
 0001:00031e50       ?deallocate@?$allocator@UPARAMINFO@CHostConnect@@@std@@QAEXPAXI@Z 00432e50 f i HostConnect.obj
 0001:00031e70       ?_Key@?$_Tree@KU?$pair@$$CBKUPARAMINFO@CHostConnect@@@std@@U_Kfn@?$map@KUPARAMINFO@CHostConnect@@U?$less@K@std@@V?$allocator@UPARAMINFO@CHostConnect@@@4@@2@U?$less@K@2@V?$allocator@UPARAMINFO@CHostConnect@@@2@@std@@KAABKPAU_Node@12@@Z 00432e70 f i HostConnect.obj
 0001:00031e90       ?size@?$_Tree@KU?$pair@$$CBKUPARAMINFO@CHostConnect@@@std@@U_Kfn@?$map@KUPARAMINFO@CHostConnect@@U?$less@K@std@@V?$allocator@UPARAMINFO@CHostConnect@@@4@@2@U?$less@K@2@V?$allocator@UPARAMINFO@CHostConnect@@@2@@std@@QBEIXZ 00432e90 f i HostConnect.obj
 0001:00031eb0       ?insert@?$_Tree@KU?$pair@$$CBKUPARAMINFO@CHostConnect@@@std@@U_Kfn@?$map@KUPARAMINFO@CHostConnect@@U?$less@K@std@@V?$allocator@UPARAMINFO@CHostConnect@@@4@@2@U?$less@K@2@V?$allocator@UPARAMINFO@CHostConnect@@@2@@std@@QAE?AU?$pair@Viterator@?$_Tree@KU?$pair@$$CBKUPARAMINFO@CHostConnect@@@std@@U_Kfn@?$map@KUPARAMINFO@CHostConnect@@U?$less@K@std@@V?$allocator@UPARAMINFO@CHostConnect@@@4@@2@U?$less@K@2@V?$allocator@UPARAMINFO@CHostConnect@@@2@@std@@_N@2@ABU?$pair@$$CBKUPARAMINFO@CHostConnect@@@2@@Z 00432eb0 f i HostConnect.obj
 0001:000320f0       ?erase@?$_Tree@KU?$pair@$$CBKUPARAMINFO@CHostConnect@@@std@@U_Kfn@?$map@KUPARAMINFO@CHostConnect@@U?$less@K@std@@V?$allocator@UPARAMINFO@CHostConnect@@@4@@2@U?$less@K@2@V?$allocator@UPARAMINFO@CHostConnect@@@2@@std@@QAE?AViterator@12@V312@@Z 004330f0 f i HostConnect.obj
 0001:00032940       ?lower_bound@?$_Tree@KU?$pair@$$CBKUPARAMINFO@CHostConnect@@@std@@U_Kfn@?$map@KUPARAMINFO@CHostConnect@@U?$less@K@std@@V?$allocator@UPARAMINFO@CHostConnect@@@4@@2@U?$less@K@2@V?$allocator@UPARAMINFO@CHostConnect@@@2@@std@@QAE?AViterator@12@ABK@Z 00433940 f i HostConnect.obj
 0001:00032970       ?equal_range@?$_Tree@KU?$pair@$$CBKUPARAMINFO@CHostConnect@@@std@@U_Kfn@?$map@KUPARAMINFO@CHostConnect@@U?$less@K@std@@V?$allocator@UPARAMINFO@CHostConnect@@@4@@2@U?$less@K@2@V?$allocator@UPARAMINFO@CHostConnect@@@2@@std@@QAE?AU?$pair@Viterator@?$_Tree@KU?$pair@$$CBKUPARAMINFO@CHostConnect@@@std@@U_Kfn@?$map@KUPARAMINFO@CHostConnect@@U?$less@K@std@@V?$allocator@UPARAMINFO@CHostConnect@@@4@@2@U?$less@K@2@V?$allocator@UPARAMINFO@CHostConnect@@@2@@std@@V123@@2@ABK@Z 00433970 f i HostConnect.obj
 0001:000329c0       ?_Erase@?$_Tree@KU?$pair@$$CBKUPARAMINFO@CHostConnect@@@std@@U_Kfn@?$map@KUPARAMINFO@CHostConnect@@U?$less@K@std@@V?$allocator@UPARAMINFO@CHostConnect@@@4@@2@U?$less@K@2@V?$allocator@UPARAMINFO@CHostConnect@@@2@@std@@IAEXPAU_Node@12@@Z 004339c0 f i HostConnect.obj
 0001:00032a70       ?_Init@?$_Tree@KU?$pair@$$CBKUPARAMINFO@CHostConnect@@@std@@U_Kfn@?$map@KUPARAMINFO@CHostConnect@@U?$less@K@std@@V?$allocator@UPARAMINFO@CHostConnect@@@4@@2@U?$less@K@2@V?$allocator@UPARAMINFO@CHostConnect@@@2@@std@@IAEXXZ 00433a70 f i HostConnect.obj
 0001:00032b50       ?_Lmost@?$_Tree@KU?$pair@$$CBKUPARAMINFO@CHostConnect@@@std@@U_Kfn@?$map@KUPARAMINFO@CHostConnect@@U?$less@K@std@@V?$allocator@UPARAMINFO@CHostConnect@@@4@@2@U?$less@K@2@V?$allocator@UPARAMINFO@CHostConnect@@@2@@std@@IAEAAPAU_Node@12@XZ 00433b50 f i HostConnect.obj
 0001:00032b70       ?_Rmost@?$_Tree@KU?$pair@$$CBKUPARAMINFO@CHostConnect@@@std@@U_Kfn@?$map@KUPARAMINFO@CHostConnect@@U?$less@K@std@@V?$allocator@UPARAMINFO@CHostConnect@@@4@@2@U?$less@K@2@V?$allocator@UPARAMINFO@CHostConnect@@@2@@std@@IAEAAPAU_Node@12@XZ 00433b70 f i HostConnect.obj
 0001:00032b90       ?_Root@?$_Tree@KU?$pair@$$CBKUPARAMINFO@CHostConnect@@@std@@U_Kfn@?$map@KUPARAMINFO@CHostConnect@@U?$less@K@std@@V?$allocator@UPARAMINFO@CHostConnect@@@4@@2@U?$less@K@2@V?$allocator@UPARAMINFO@CHostConnect@@@2@@std@@IAEAAPAU_Node@12@XZ 00433b90 f i HostConnect.obj
 0001:00032bb0       ?_Mynode@const_iterator@?$_Tree@KU?$pair@$$CBKUPARAMINFO@CHostConnect@@@std@@U_Kfn@?$map@KUPARAMINFO@CHostConnect@@U?$less@K@std@@V?$allocator@UPARAMINFO@CHostConnect@@@4@@2@U?$less@K@2@V?$allocator@UPARAMINFO@CHostConnect@@@2@@std@@QBEPAU_Node@23@XZ 00433bb0 f i HostConnect.obj
 0001:00032bc0       ??0iterator@?$_Tree@KU?$pair@$$CBKUPARAMINFO@CHostConnect@@@std@@U_Kfn@?$map@KUPARAMINFO@CHostConnect@@U?$less@K@std@@V?$allocator@UPARAMINFO@CHostConnect@@@4@@2@U?$less@K@2@V?$allocator@UPARAMINFO@CHostConnect@@@2@@std@@QAE@PAU_Node@12@@Z 00433bc0 f i HostConnect.obj
 0001:00032be0       ??Eiterator@?$_Tree@KU?$pair@$$CBKUPARAMINFO@CHostConnect@@@std@@U_Kfn@?$map@KUPARAMINFO@CHostConnect@@U?$less@K@std@@V?$allocator@UPARAMINFO@CHostConnect@@@4@@2@U?$less@K@2@V?$allocator@UPARAMINFO@CHostConnect@@@2@@std@@QAE?AV012@H@Z 00433be0 f i HostConnect.obj
 0001:00032c10       ??9iterator@?$_Tree@KU?$pair@$$CBKUPARAMINFO@CHostConnect@@@std@@U_Kfn@?$map@KUPARAMINFO@CHostConnect@@U?$less@K@std@@V?$allocator@UPARAMINFO@CHostConnect@@@4@@2@U?$less@K@2@V?$allocator@UPARAMINFO@CHostConnect@@@2@@std@@QBE_NABV012@@Z 00433c10 f i HostConnect.obj
 0001:00032c40       ??0?$pair@Viterator@?$_Tree@V?$basic_string@DU?$char_traits@D@std@@V?$allocator@D@2@@std@@U?$pair@$$CBV?$basic_string@DU?$char_traits@D@std@@V?$allocator@D@2@@std@@UACCINFO@CHostConnect@@@2@U_Kfn@?$map@V?$basic_string@DU?$char_traits@D@std@@V?$allocator@D@2@@std@@UACCINFO@CHostConnect@@U_tstring_iless@@V?$allocator@UACCINFO@CHostConnect@@@2@@2@U_tstring_iless@@V?$allocator@UACCINFO@CHostConnect@@@2@@std@@_N@std@@QAE@ABViterator@?$_Tree@V?$basic_string@DU?$char_traits@D@std@@V?$allocator@D@2@@std@@U?$pair@$$CBV?$basic_string@DU?$char_traits@D@std@@V?$allocator@D@2@@std@@UACCINFO@CHostConnect@@@2@U_Kfn@?$map@V?$basic_string@DU?$char_traits@D@std@@V?$allocator@D@2@@std@@UACCINFO@CHostConnect@@U_tstring_iless@@V?$allocator@UACCINFO@CHostConnect@@@2@@2@U_tstring_iless@@V?$allocator@UACCINFO@CHostConnect@@@2@@1@AB_N@Z 00433c40 f i HostConnect.obj
 0001:00032c70       ??0?$pair@Viterator@?$_Tree@V?$basic_string@DU?$char_traits@D@std@@V?$allocator@D@2@@std@@U?$pair@$$CBV?$basic_string@DU?$char_traits@D@std@@V?$allocator@D@2@@std@@UROLEINFO@CHostConnect@@@2@U_Kfn@?$map@V?$basic_string@DU?$char_traits@D@std@@V?$allocator@D@2@@std@@UROLEINFO@CHostConnect@@U_tstring_less@@V?$allocator@UROLEINFO@CHostConnect@@@2@@2@U_tstring_less@@V?$allocator@UROLEINFO@CHostConnect@@@2@@std@@_N@std@@QAE@ABViterator@?$_Tree@V?$basic_string@DU?$char_traits@D@std@@V?$allocator@D@2@@std@@U?$pair@$$CBV?$basic_string@DU?$char_traits@D@std@@V?$allocator@D@2@@std@@UROLEINFO@CHostConnect@@@2@U_Kfn@?$map@V?$basic_string@DU?$char_traits@D@std@@V?$allocator@D@2@@std@@UROLEINFO@CHostConnect@@U_tstring_less@@V?$allocator@UROLEINFO@CHostConnect@@@2@@2@U_tstring_less@@V?$allocator@UROLEINFO@CHostConnect@@@2@@1@AB_N@Z 00433c70 f i HostConnect.obj
 0001:00032ca0       ??0?$pair@Viterator@?$_Tree@KU?$pair@$$CBKUPARAMINFO@CHostConnect@@@std@@U_Kfn@?$map@KUPARAMINFO@CHostConnect@@U?$less@K@std@@V?$allocator@UPARAMINFO@CHostConnect@@@4@@2@U?$less@K@2@V?$allocator@UPARAMINFO@CHostConnect@@@2@@std@@_N@std@@QAE@ABViterator@?$_Tree@KU?$pair@$$CBKUPARAMINFO@CHostConnect@@@std@@U_Kfn@?$map@KUPARAMINFO@CHostConnect@@U?$less@K@std@@V?$allocator@UPARAMINFO@CHostConnect@@@4@@2@U?$less@K@2@V?$allocator@UPARAMINFO@CHostConnect@@@2@@1@AB_N@Z 00433ca0 f i HostConnect.obj
 0001:00032cd0       ??R_Kfn@?$map@V?$basic_string@DU?$char_traits@D@std@@V?$allocator@D@2@@std@@UACCINFO@CHostConnect@@U_tstring_iless@@V?$allocator@UACCINFO@CHostConnect@@@2@@std@@QBEABV?$basic_string@DU?$char_traits@D@std@@V?$allocator@D@2@@2@ABU?$pair@$$CBV?$basic_string@DU?$char_traits@D@std@@V?$allocator@D@2@@std@@UACCINFO@CHostConnect@@@2@@Z 00433cd0 f i HostConnect.obj
 0001:00032ce0       ?_Insert@?$_Tree@V?$basic_string@DU?$char_traits@D@std@@V?$allocator@D@2@@std@@U?$pair@$$CBV?$basic_string@DU?$char_traits@D@std@@V?$allocator@D@2@@std@@UACCINFO@CHostConnect@@@2@U_Kfn@?$map@V?$basic_string@DU?$char_traits@D@std@@V?$allocator@D@2@@std@@UACCINFO@CHostConnect@@U_tstring_iless@@V?$allocator@UACCINFO@CHostConnect@@@2@@2@U_tstring_iless@@V?$allocator@UACCINFO@CHostConnect@@@2@@std@@IAE?AViterator@12@PAU_Node@12@0ABU?$pair@$$CBV?$basic_string@DU?$char_traits@D@std@@V?$allocator@D@2@@std@@UACCINFO@CHostConnect@@@2@@Z 00433ce0 f i HostConnect.obj
 0001:000331b0       ?_Lbound@?$_Tree@V?$basic_string@DU?$char_traits@D@std@@V?$allocator@D@2@@std@@U?$pair@$$CBV?$basic_string@DU?$char_traits@D@std@@V?$allocator@D@2@@std@@UACCINFO@CHostConnect@@@2@U_Kfn@?$map@V?$basic_string@DU?$char_traits@D@std@@V?$allocator@D@2@@std@@UACCINFO@CHostConnect@@U_tstring_iless@@V?$allocator@UACCINFO@CHostConnect@@@2@@2@U_tstring_iless@@V?$allocator@UACCINFO@CHostConnect@@@2@@std@@IBEPAU_Node@12@ABV?$basic_string@DU?$char_traits@D@std@@V?$allocator@D@2@@2@@Z 004341b0 f i HostConnect.obj
 0001:00033280       ?_Buynode@?$_Tree@V?$basic_string@DU?$char_traits@D@std@@V?$allocator@D@2@@std@@U?$pair@$$CBV?$basic_string@DU?$char_traits@D@std@@V?$allocator@D@2@@std@@UACCINFO@CHostConnect@@@2@U_Kfn@?$map@V?$basic_string@DU?$char_traits@D@std@@V?$allocator@D@2@@std@@UACCINFO@CHostConnect@@U_tstring_iless@@V?$allocator@UACCINFO@CHostConnect@@@2@@2@U_tstring_iless@@V?$allocator@UACCINFO@CHostConnect@@@2@@std@@IAEPAU_Node@12@PAU312@W4_Redbl@12@@Z 00434280 f i HostConnect.obj
 0001:000332d0       ??0const_iterator@?$_Tree@V?$basic_string@DU?$char_traits@D@std@@V?$allocator@D@2@@std@@U?$pair@$$CBV?$basic_string@DU?$char_traits@D@std@@V?$allocator@D@2@@std@@UACCINFO@CHostConnect@@@2@U_Kfn@?$map@V?$basic_string@DU?$char_traits@D@std@@V?$allocator@D@2@@std@@UACCINFO@CHostConnect@@U_tstring_iless@@V?$allocator@UACCINFO@CHostConnect@@@2@@2@U_tstring_iless@@V?$allocator@UACCINFO@CHostConnect@@@2@@std@@QAE@PAU_Node@12@@Z 004342d0 f i HostConnect.obj
 0001:000332f0       ??Eiterator@?$_Tree@V?$basic_string@DU?$char_traits@D@std@@V?$allocator@D@2@@std@@U?$pair@$$CBV?$basic_string@DU?$char_traits@D@std@@V?$allocator@D@2@@std@@UACCINFO@CHostConnect@@@2@U_Kfn@?$map@V?$basic_string@DU?$char_traits@D@std@@V?$allocator@D@2@@std@@UACCINFO@CHostConnect@@U_tstring_iless@@V?$allocator@UACCINFO@CHostConnect@@@2@@2@U_tstring_iless@@V?$allocator@UACCINFO@CHostConnect@@@2@@std@@QAEAAV012@XZ 004342f0 f i HostConnect.obj
 0001:00033310       ??Fiterator@?$_Tree@V?$basic_string@DU?$char_traits@D@std@@V?$allocator@D@2@@std@@U?$pair@$$CBV?$basic_string@DU?$char_traits@D@std@@V?$allocator@D@2@@std@@UACCINFO@CHostConnect@@@2@U_Kfn@?$map@V?$basic_string@DU?$char_traits@D@std@@V?$allocator@D@2@@std@@UACCINFO@CHostConnect@@U_tstring_iless@@V?$allocator@UACCINFO@CHostConnect@@@2@@2@U_tstring_iless@@V?$allocator@UACCINFO@CHostConnect@@@2@@std@@QAEAAV012@XZ 00434310 f i HostConnect.obj
 0001:00033330       ??R_Kfn@?$map@V?$basic_string@DU?$char_traits@D@std@@V?$allocator@D@2@@std@@UROLEINFO@CHostConnect@@U_tstring_less@@V?$allocator@UROLEINFO@CHostConnect@@@2@@std@@QBEABV?$basic_string@DU?$char_traits@D@std@@V?$allocator@D@2@@2@ABU?$pair@$$CBV?$basic_string@DU?$char_traits@D@std@@V?$allocator@D@2@@std@@UROLEINFO@CHostConnect@@@2@@Z 00434330 f i HostConnect.obj
 0001:00033340       ?_Color@?$_Tree@V?$basic_string@DU?$char_traits@D@std@@V?$allocator@D@2@@std@@U?$pair@$$CBV?$basic_string@DU?$char_traits@D@std@@V?$allocator@D@2@@std@@UROLEINFO@CHostConnect@@@2@U_Kfn@?$map@V?$basic_string@DU?$char_traits@D@std@@V?$allocator@D@2@@std@@UROLEINFO@CHostConnect@@U_tstring_less@@V?$allocator@UROLEINFO@CHostConnect@@@2@@2@U_tstring_less@@V?$allocator@UROLEINFO@CHostConnect@@@2@@std@@KAAAW4_Redbl@12@PAU_Node@12@@Z 00434340 f i HostConnect.obj
 0001:00033350       ?_Left@?$_Tree@V?$basic_string@DU?$char_traits@D@std@@V?$allocator@D@2@@std@@U?$pair@$$CBV?$basic_string@DU?$char_traits@D@std@@V?$allocator@D@2@@std@@UROLEINFO@CHostConnect@@@2@U_Kfn@?$map@V?$basic_string@DU?$char_traits@D@std@@V?$allocator@D@2@@std@@UROLEINFO@CHostConnect@@U_tstring_less@@V?$allocator@UROLEINFO@CHostConnect@@@2@@2@U_tstring_less@@V?$allocator@UROLEINFO@CHostConnect@@@2@@std@@KAAAPAU_Node@12@PAU312@@Z 00434350 f i HostConnect.obj
 0001:00033360       ?_Parent@?$_Tree@V?$basic_string@DU?$char_traits@D@std@@V?$allocator@D@2@@std@@U?$pair@$$CBV?$basic_string@DU?$char_traits@D@std@@V?$allocator@D@2@@std@@UROLEINFO@CHostConnect@@@2@U_Kfn@?$map@V?$basic_string@DU?$char_traits@D@std@@V?$allocator@D@2@@std@@UROLEINFO@CHostConnect@@U_tstring_less@@V?$allocator@UROLEINFO@CHostConnect@@@2@@2@U_tstring_less@@V?$allocator@UROLEINFO@CHostConnect@@@2@@std@@KAAAPAU_Node@12@PAU312@@Z 00434360 f i HostConnect.obj
 0001:00033370       ?_Right@?$_Tree@V?$basic_string@DU?$char_traits@D@std@@V?$allocator@D@2@@std@@U?$pair@$$CBV?$basic_string@DU?$char_traits@D@std@@V?$allocator@D@2@@std@@UROLEINFO@CHostConnect@@@2@U_Kfn@?$map@V?$basic_string@DU?$char_traits@D@std@@V?$allocator@D@2@@std@@UROLEINFO@CHostConnect@@U_tstring_less@@V?$allocator@UROLEINFO@CHostConnect@@@2@@2@U_tstring_less@@V?$allocator@UROLEINFO@CHostConnect@@@2@@std@@KAAAPAU_Node@12@PAU312@@Z 00434370 f i HostConnect.obj
 0001:00033380       ?upper_bound@?$_Tree@V?$basic_string@DU?$char_traits@D@std@@V?$allocator@D@2@@std@@U?$pair@$$CBV?$basic_string@DU?$char_traits@D@std@@V?$allocator@D@2@@std@@UROLEINFO@CHostConnect@@@2@U_Kfn@?$map@V?$basic_string@DU?$char_traits@D@std@@V?$allocator@D@2@@std@@UROLEINFO@CHostConnect@@U_tstring_less@@V?$allocator@UROLEINFO@CHostConnect@@@2@@2@U_tstring_less@@V?$allocator@UROLEINFO@CHostConnect@@@2@@std@@QAE?AViterator@12@ABV?$basic_string@DU?$char_traits@D@std@@V?$allocator@D@2@@2@@Z 00434380 f i HostConnect.obj
 0001:000333b0       ?_Insert@?$_Tree@V?$basic_string@DU?$char_traits@D@std@@V?$allocator@D@2@@std@@U?$pair@$$CBV?$basic_string@DU?$char_traits@D@std@@V?$allocator@D@2@@std@@UROLEINFO@CHostConnect@@@2@U_Kfn@?$map@V?$basic_string@DU?$char_traits@D@std@@V?$allocator@D@2@@std@@UROLEINFO@CHostConnect@@U_tstring_less@@V?$allocator@UROLEINFO@CHostConnect@@@2@@2@U_tstring_less@@V?$allocator@UROLEINFO@CHostConnect@@@2@@std@@IAE?AViterator@12@PAU_Node@12@0ABU?$pair@$$CBV?$basic_string@DU?$char_traits@D@std@@V?$allocator@D@2@@std@@UROLEINFO@CHostConnect@@@2@@Z 004343b0 f i HostConnect.obj
 0001:00033880       ?_Lbound@?$_Tree@V?$basic_string@DU?$char_traits@D@std@@V?$allocator@D@2@@std@@U?$pair@$$CBV?$basic_string@DU?$char_traits@D@std@@V?$allocator@D@2@@std@@UROLEINFO@CHostConnect@@@2@U_Kfn@?$map@V?$basic_string@DU?$char_traits@D@std@@V?$allocator@D@2@@std@@UROLEINFO@CHostConnect@@U_tstring_less@@V?$allocator@UROLEINFO@CHostConnect@@@2@@2@U_tstring_less@@V?$allocator@UROLEINFO@CHostConnect@@@2@@std@@IBEPAU_Node@12@ABV?$basic_string@DU?$char_traits@D@std@@V?$allocator@D@2@@2@@Z 00434880 f i HostConnect.obj
 0001:00033950       ?_Lrotate@?$_Tree@V?$basic_string@DU?$char_traits@D@std@@V?$allocator@D@2@@std@@U?$pair@$$CBV?$basic_string@DU?$char_traits@D@std@@V?$allocator@D@2@@std@@UROLEINFO@CHostConnect@@@2@U_Kfn@?$map@V?$basic_string@DU?$char_traits@D@std@@V?$allocator@D@2@@std@@UROLEINFO@CHostConnect@@U_tstring_less@@V?$allocator@UROLEINFO@CHostConnect@@@2@@2@U_tstring_less@@V?$allocator@UROLEINFO@CHostConnect@@@2@@std@@IAEXPAU_Node@12@@Z 00434950 f i HostConnect.obj
 0001:00033ac0       ?_Max@?$_Tree@V?$basic_string@DU?$char_traits@D@std@@V?$allocator@D@2@@std@@U?$pair@$$CBV?$basic_string@DU?$char_traits@D@std@@V?$allocator@D@2@@std@@UROLEINFO@CHostConnect@@@2@U_Kfn@?$map@V?$basic_string@DU?$char_traits@D@std@@V?$allocator@D@2@@std@@UROLEINFO@CHostConnect@@U_tstring_less@@V?$allocator@UROLEINFO@CHostConnect@@@2@@2@U_tstring_less@@V?$allocator@UROLEINFO@CHostConnect@@@2@@std@@KAPAU_Node@12@PAU312@@Z 00434ac0 f i HostConnect.obj
 0001:00033b40       ?_Min@?$_Tree@V?$basic_string@DU?$char_traits@D@std@@V?$allocator@D@2@@std@@U?$pair@$$CBV?$basic_string@DU?$char_traits@D@std@@V?$allocator@D@2@@std@@UROLEINFO@CHostConnect@@@2@U_Kfn@?$map@V?$basic_string@DU?$char_traits@D@std@@V?$allocator@D@2@@std@@UROLEINFO@CHostConnect@@U_tstring_less@@V?$allocator@UROLEINFO@CHostConnect@@@2@@2@U_tstring_less@@V?$allocator@UROLEINFO@CHostConnect@@@2@@std@@KAPAU_Node@12@PAU312@@Z 00434b40 f i HostConnect.obj
 0001:00033bc0       ?_Rrotate@?$_Tree@V?$basic_string@DU?$char_traits@D@std@@V?$allocator@D@2@@std@@U?$pair@$$CBV?$basic_string@DU?$char_traits@D@std@@V?$allocator@D@2@@std@@UROLEINFO@CHostConnect@@@2@U_Kfn@?$map@V?$basic_string@DU?$char_traits@D@std@@V?$allocator@D@2@@std@@UROLEINFO@CHostConnect@@U_tstring_less@@V?$allocator@UROLEINFO@CHostConnect@@@2@@2@U_tstring_less@@V?$allocator@UROLEINFO@CHostConnect@@@2@@std@@IAEXPAU_Node@12@@Z 00434bc0 f i HostConnect.obj
 0001:00033d30       ?_Buynode@?$_Tree@V?$basic_string@DU?$char_traits@D@std@@V?$allocator@D@2@@std@@U?$pair@$$CBV?$basic_string@DU?$char_traits@D@std@@V?$allocator@D@2@@std@@UROLEINFO@CHostConnect@@@2@U_Kfn@?$map@V?$basic_string@DU?$char_traits@D@std@@V?$allocator@D@2@@std@@UROLEINFO@CHostConnect@@U_tstring_less@@V?$allocator@UROLEINFO@CHostConnect@@@2@@2@U_tstring_less@@V?$allocator@UROLEINFO@CHostConnect@@@2@@std@@IAEPAU_Node@12@PAU312@W4_Redbl@12@@Z 00434d30 f i HostConnect.obj
 0001:00033d80       ?_Destval@?$_Tree@V?$basic_string@DU?$char_traits@D@std@@V?$allocator@D@2@@std@@U?$pair@$$CBV?$basic_string@DU?$char_traits@D@std@@V?$allocator@D@2@@std@@UROLEINFO@CHostConnect@@@2@U_Kfn@?$map@V?$basic_string@DU?$char_traits@D@std@@V?$allocator@D@2@@std@@UROLEINFO@CHostConnect@@U_tstring_less@@V?$allocator@UROLEINFO@CHostConnect@@@2@@2@U_tstring_less@@V?$allocator@UROLEINFO@CHostConnect@@@2@@std@@IAEXPAU?$pair@$$CBV?$basic_string@DU?$char_traits@D@std@@V?$allocator@D@2@@std@@UROLEINFO@CHostConnect@@@2@@Z 00434d80 f i HostConnect.obj
 0001:00033da0       ??0const_iterator@?$_Tree@V?$basic_string@DU?$char_traits@D@std@@V?$allocator@D@2@@std@@U?$pair@$$CBV?$basic_string@DU?$char_traits@D@std@@V?$allocator@D@2@@std@@UROLEINFO@CHostConnect@@@2@U_Kfn@?$map@V?$basic_string@DU?$char_traits@D@std@@V?$allocator@D@2@@std@@UROLEINFO@CHostConnect@@U_tstring_less@@V?$allocator@UROLEINFO@CHostConnect@@@2@@2@U_tstring_less@@V?$allocator@UROLEINFO@CHostConnect@@@2@@std@@QAE@PAU_Node@12@@Z 00434da0 f i HostConnect.obj
 0001:00033dc0       ??Eiterator@?$_Tree@V?$basic_string@DU?$char_traits@D@std@@V?$allocator@D@2@@std@@U?$pair@$$CBV?$basic_string@DU?$char_traits@D@std@@V?$allocator@D@2@@std@@UROLEINFO@CHostConnect@@@2@U_Kfn@?$map@V?$basic_string@DU?$char_traits@D@std@@V?$allocator@D@2@@std@@UROLEINFO@CHostConnect@@U_tstring_less@@V?$allocator@UROLEINFO@CHostConnect@@@2@@2@U_tstring_less@@V?$allocator@UROLEINFO@CHostConnect@@@2@@std@@QAEAAV012@XZ 00434dc0 f i HostConnect.obj
 0001:00033de0       ??Fiterator@?$_Tree@V?$basic_string@DU?$char_traits@D@std@@V?$allocator@D@2@@std@@U?$pair@$$CBV?$basic_string@DU?$char_traits@D@std@@V?$allocator@D@2@@std@@UROLEINFO@CHostConnect@@@2@U_Kfn@?$map@V?$basic_string@DU?$char_traits@D@std@@V?$allocator@D@2@@std@@UROLEINFO@CHostConnect@@U_tstring_less@@V?$allocator@UROLEINFO@CHostConnect@@@2@@2@U_tstring_less@@V?$allocator@UROLEINFO@CHostConnect@@@2@@std@@QAEAAV012@XZ 00434de0 f i HostConnect.obj
 0001:00033e00       ??R_Kfn@?$map@KUPARAMINFO@CHostConnect@@U?$less@K@std@@V?$allocator@UPARAMINFO@CHostConnect@@@4@@std@@QBEABKABU?$pair@$$CBKUPARAMINFO@CHostConnect@@@2@@Z 00434e00 f i HostConnect.obj
 0001:00033e10       ?_Color@?$_Tree@KU?$pair@$$CBKUPARAMINFO@CHostConnect@@@std@@U_Kfn@?$map@KUPARAMINFO@CHostConnect@@U?$less@K@std@@V?$allocator@UPARAMINFO@CHostConnect@@@4@@2@U?$less@K@2@V?$allocator@UPARAMINFO@CHostConnect@@@2@@std@@KAAAW4_Redbl@12@PAU_Node@12@@Z 00434e10 f i HostConnect.obj
 0001:00033e20       ?_Left@?$_Tree@KU?$pair@$$CBKUPARAMINFO@CHostConnect@@@std@@U_Kfn@?$map@KUPARAMINFO@CHostConnect@@U?$less@K@std@@V?$allocator@UPARAMINFO@CHostConnect@@@4@@2@U?$less@K@2@V?$allocator@UPARAMINFO@CHostConnect@@@2@@std@@KAAAPAU_Node@12@PAU312@@Z 00434e20 f i HostConnect.obj
 0001:00033e30       ?_Parent@?$_Tree@KU?$pair@$$CBKUPARAMINFO@CHostConnect@@@std@@U_Kfn@?$map@KUPARAMINFO@CHostConnect@@U?$less@K@std@@V?$allocator@UPARAMINFO@CHostConnect@@@4@@2@U?$less@K@2@V?$allocator@UPARAMINFO@CHostConnect@@@2@@std@@KAAAPAU_Node@12@PAU312@@Z 00434e30 f i HostConnect.obj
 0001:00033e40       ?_Right@?$_Tree@KU?$pair@$$CBKUPARAMINFO@CHostConnect@@@std@@U_Kfn@?$map@KUPARAMINFO@CHostConnect@@U?$less@K@std@@V?$allocator@UPARAMINFO@CHostConnect@@@4@@2@U?$less@K@2@V?$allocator@UPARAMINFO@CHostConnect@@@2@@std@@KAAAPAU_Node@12@PAU312@@Z 00434e40 f i HostConnect.obj
 0001:00033e50       ?upper_bound@?$_Tree@KU?$pair@$$CBKUPARAMINFO@CHostConnect@@@std@@U_Kfn@?$map@KUPARAMINFO@CHostConnect@@U?$less@K@std@@V?$allocator@UPARAMINFO@CHostConnect@@@4@@2@U?$less@K@2@V?$allocator@UPARAMINFO@CHostConnect@@@2@@std@@QAE?AViterator@12@ABK@Z 00434e50 f i HostConnect.obj
 0001:00033e80       ?_Insert@?$_Tree@KU?$pair@$$CBKUPARAMINFO@CHostConnect@@@std@@U_Kfn@?$map@KUPARAMINFO@CHostConnect@@U?$less@K@std@@V?$allocator@UPARAMINFO@CHostConnect@@@4@@2@U?$less@K@2@V?$allocator@UPARAMINFO@CHostConnect@@@2@@std@@IAE?AViterator@12@PAU_Node@12@0ABU?$pair@$$CBKUPARAMINFO@CHostConnect@@@2@@Z 00434e80 f i HostConnect.obj
 0001:00034350       ?_Lbound@?$_Tree@KU?$pair@$$CBKUPARAMINFO@CHostConnect@@@std@@U_Kfn@?$map@KUPARAMINFO@CHostConnect@@U?$less@K@std@@V?$allocator@UPARAMINFO@CHostConnect@@@4@@2@U?$less@K@2@V?$allocator@UPARAMINFO@CHostConnect@@@2@@std@@IBEPAU_Node@12@ABK@Z 00435350 f i HostConnect.obj
 0001:00034420       ?_Lrotate@?$_Tree@KU?$pair@$$CBKUPARAMINFO@CHostConnect@@@std@@U_Kfn@?$map@KUPARAMINFO@CHostConnect@@U?$less@K@std@@V?$allocator@UPARAMINFO@CHostConnect@@@4@@2@U?$less@K@2@V?$allocator@UPARAMINFO@CHostConnect@@@2@@std@@IAEXPAU_Node@12@@Z 00435420 f i HostConnect.obj
